; Listing generated by Microsoft (R) Optimizing Compiler Version 19.29.30140.0 

	TITLE	C:\Users\jose-remedy\Documents\GitHub\lazyengine\main.obj
	.686P
	.XMM
	include listing.inc
	.model	flat

INCLUDELIB LIBCMT
INCLUDELIB OLDNAMES

PUBLIC	?window@lib3d@@3PAUHWND__@@A			; lib3d::window
PUBLIC	?device@lib3d@@3PAUID3D11Device@@A		; lib3d::device
PUBLIC	?inmediate@lib3d@@3PAUID3D11DeviceContext@@A	; lib3d::inmediate
PUBLIC	?swapchain@lib3d@@3PAUIDXGISwapChain@@A		; lib3d::swapchain
PUBLIC	?is_focused@lib3d@@3_NA				; lib3d::is_focused
PUBLIC	?quad_vertices@lib3d@@3PAMA			; lib3d::quad_vertices
PUBLIC	?quad_indices@lib3d@@3PAHA			; lib3d::quad_indices
PUBLIC	?cube_vertices@lib3d@@3PAMA			; lib3d::cube_vertices
PUBLIC	?cube_indices@lib3d@@3PAHA			; lib3d::cube_indices
PUBLIC	?sphere_vertices@lib3d@@3PAMA			; lib3d::sphere_vertices
PUBLIC	?sphere_indices@lib3d@@3PAHA			; lib3d::sphere_indices
PUBLIC	?null_srv@lib3d@@3PAUID3D11ShaderResourceView@@A ; lib3d::null_srv
PUBLIC	?null_uav@lib3d@@3PAUID3D11UnorderedAccessView@@A ; lib3d::null_uav
PUBLIC	?null_rtv@lib3d@@3PAUID3D11RenderTargetView@@A	; lib3d::null_rtv
PUBLIC	?null_buffer@lib3d@@3PAUID3D11Buffer@@A		; lib3d::null_buffer
PUBLIC	?common_vertex_layout@lib3d@@3PAUID3D11InputLayout@@A ; lib3d::common_vertex_layout
PUBLIC	?common_vertex_layout_stride@lib3d@@3IA		; lib3d::common_vertex_layout_stride
PUBLIC	?renderdepth2D_list@lib3d@@3PAPAURenderDepth2D@1@A ; lib3d::renderdepth2D_list
PUBLIC	?rendertarget2D_list@lib3d@@3PAPAURenderTarget2D@1@A ; lib3d::rendertarget2D_list
PUBLIC	?rendertarget3D_list@lib3d@@3PAPAURenderTarget3D@1@A ; lib3d::rendertarget3D_list
PUBLIC	?buffer_list@lib3d@@3PAPAUBuffer@1@A		; lib3d::buffer_list
PUBLIC	?constantbuffer_list@lib3d@@3PAPAUConstantBuffer@1@A ; lib3d::constantbuffer_list
PUBLIC	?fx_list@lib3d@@3PAPAUFX@1@A			; lib3d::fx_list
PUBLIC	?computefx_list@lib3d@@3PAPAUComputeFX@1@A	; lib3d::computefx_list
PUBLIC	?mesh_list@lib3d@@3PAPAUMesh@1@A		; lib3d::mesh_list
PUBLIC	?BACKGROUND_COL@@3PAMA				; BACKGROUND_COL
PUBLIC	?gcb@@3PAUGlobalConstantsBuffer@@A		; gcb
PUBLIC	?tb@@3PAUTransformBuffer@@A			; tb
PUBLIC	?cdb@@3PAUCustomDataBuffer@@A			; cdb
PUBLIC	?viewport@@3PAUViewport@lib3d@@A		; viewport
PUBLIC	?rasterizer@@3PAURasterizer@lib3d@@A		; rasterizer
PUBLIC	?rasterizer_nocull@@3PAURasterizer@lib3d@@A	; rasterizer_nocull
PUBLIC	?rasterizer_wireframe@@3PAURasterizer@lib3d@@A	; rasterizer_wireframe
PUBLIC	?alpha_blending@@3PAUAlphaBlending@lib3d@@A	; alpha_blending
PUBLIC	?nowrite_depthstencil@@3PAUDepthStencil@lib3d@@A ; nowrite_depthstencil
PUBLIC	?write_depthstencil@@3PAUDepthStencil@lib3d@@A	; write_depthstencil
PUBLIC	?rendertarget_main@@3PAUBackbuffer@lib3d@@A	; rendertarget_main
PUBLIC	?depth_main@@3PAURenderDepth2D@lib3d@@A		; depth_main
PUBLIC	?mesh_quad@@3PAUMesh@lib3d@@A			; mesh_quad
PUBLIC	?mesh_cube@@3PAUMesh@lib3d@@A			; mesh_cube
PUBLIC	?mesh_sphere@@3PAUMesh@lib3d@@A			; mesh_sphere
PUBLIC	?constantbuffer_main@@3PAUConstantBuffer@lib3d@@A ; constantbuffer_main
PUBLIC	?transformbuffer_main@@3PAUConstantBuffer@lib3d@@A ; transformbuffer_main
PUBLIC	?customdatabuffer_main@@3PAUConstantBuffer@lib3d@@A ; customdatabuffer_main
PUBLIC	__fltused
_BSS	SEGMENT
?window@lib3d@@3PAUHWND__@@A DD 01H DUP (?)		; lib3d::window
?device@lib3d@@3PAUID3D11Device@@A DD 01H DUP (?)	; lib3d::device
?inmediate@lib3d@@3PAUID3D11DeviceContext@@A DD 01H DUP (?) ; lib3d::inmediate
?swapchain@lib3d@@3PAUIDXGISwapChain@@A DD 01H DUP (?)	; lib3d::swapchain
?null_srv@lib3d@@3PAUID3D11ShaderResourceView@@A DD 01H DUP (?) ; lib3d::null_srv
?null_uav@lib3d@@3PAUID3D11UnorderedAccessView@@A DD 01H DUP (?) ; lib3d::null_uav
?null_rtv@lib3d@@3PAUID3D11RenderTargetView@@A DD 01H DUP (?) ; lib3d::null_rtv
?null_buffer@lib3d@@3PAUID3D11Buffer@@A DD 01H DUP (?)	; lib3d::null_buffer
?common_vertex_layout@lib3d@@3PAUID3D11InputLayout@@A DD 01H DUP (?) ; lib3d::common_vertex_layout
?common_vertex_layout_stride@lib3d@@3IA DD 01H DUP (?)	; lib3d::common_vertex_layout_stride
?renderdepth2D_list@lib3d@@3PAPAURenderDepth2D@1@A DD 014H DUP (?) ; lib3d::renderdepth2D_list
?rendertarget2D_list@lib3d@@3PAPAURenderTarget2D@1@A DD 014H DUP (?) ; lib3d::rendertarget2D_list
?rendertarget3D_list@lib3d@@3PAPAURenderTarget3D@1@A DD 014H DUP (?) ; lib3d::rendertarget3D_list
?buffer_list@lib3d@@3PAPAUBuffer@1@A DD 014H DUP (?)	; lib3d::buffer_list
?constantbuffer_list@lib3d@@3PAPAUConstantBuffer@1@A DD 014H DUP (?) ; lib3d::constantbuffer_list
?fx_list@lib3d@@3PAPAUFX@1@A DD 014H DUP (?)		; lib3d::fx_list
?computefx_list@lib3d@@3PAPAUComputeFX@1@A DD 014H DUP (?) ; lib3d::computefx_list
?mesh_list@lib3d@@3PAPAUMesh@1@A DD 014H DUP (?)	; lib3d::mesh_list
?gcb@@3PAUGlobalConstantsBuffer@@A DD 01H DUP (?)	; gcb
?tb@@3PAUTransformBuffer@@A DD 01H DUP (?)		; tb
?cdb@@3PAUCustomDataBuffer@@A DD 01H DUP (?)		; cdb
?viewport@@3PAUViewport@lib3d@@A DD 01H DUP (?)		; viewport
?rasterizer@@3PAURasterizer@lib3d@@A DD 01H DUP (?)	; rasterizer
?rasterizer_nocull@@3PAURasterizer@lib3d@@A DD 01H DUP (?) ; rasterizer_nocull
?rasterizer_wireframe@@3PAURasterizer@lib3d@@A DD 01H DUP (?) ; rasterizer_wireframe
?alpha_blending@@3PAUAlphaBlending@lib3d@@A DD 01H DUP (?) ; alpha_blending
?nowrite_depthstencil@@3PAUDepthStencil@lib3d@@A DD 01H DUP (?) ; nowrite_depthstencil
?write_depthstencil@@3PAUDepthStencil@lib3d@@A DD 01H DUP (?) ; write_depthstencil
?rendertarget_main@@3PAUBackbuffer@lib3d@@A DD 01H DUP (?) ; rendertarget_main
?depth_main@@3PAURenderDepth2D@lib3d@@A DD 01H DUP (?)	; depth_main
?mesh_quad@@3PAUMesh@lib3d@@A DD 01H DUP (?)		; mesh_quad
?mesh_cube@@3PAUMesh@lib3d@@A DD 01H DUP (?)		; mesh_cube
?mesh_sphere@@3PAUMesh@lib3d@@A DD 01H DUP (?)		; mesh_sphere
?constantbuffer_main@@3PAUConstantBuffer@lib3d@@A DD 01H DUP (?) ; constantbuffer_main
?transformbuffer_main@@3PAUConstantBuffer@lib3d@@A DD 01H DUP (?) ; transformbuffer_main
?customdatabuffer_main@@3PAUConstantBuffer@lib3d@@A DD 01H DUP (?) ; customdatabuffer_main
__fltused DD	01H DUP (?)
_BSS	ENDS
_DATA	SEGMENT
?is_focused@lib3d@@3_NA DB 01H				; lib3d::is_focused
	ORG $+7
?quad_vertices@lib3d@@3PAMA DD 0bf000000r	; -0.5	; lib3d::quad_vertices
	DD	03f000000r			; 0.5
	DD	000000000r			; 0
	DD	000000000r			; 0
	DD	000000000r			; 0
	DD	000000000r			; 0
	DD	03f800000r			; 1
	DD	000000000r			; 0
	DD	03f000000r			; 0.5
	DD	03f000000r			; 0.5
	DD	000000000r			; 0
	DD	03f800000r			; 1
	DD	000000000r			; 0
	DD	000000000r			; 0
	DD	03f800000r			; 1
	DD	000000000r			; 0
	DD	0bf000000r			; -0.5
	DD	0bf000000r			; -0.5
	DD	000000000r			; 0
	DD	000000000r			; 0
	DD	03f800000r			; 1
	DD	000000000r			; 0
	DD	03f800000r			; 1
	DD	000000000r			; 0
	DD	03f000000r			; 0.5
	DD	0bf000000r			; -0.5
	DD	000000000r			; 0
	DD	03f800000r			; 1
	DD	03f800000r			; 1
	DD	000000000r			; 0
	DD	03f800000r			; 1
	DD	000000000r			; 0
?quad_indices@lib3d@@3PAHA DD 00H			; lib3d::quad_indices
	DD	01H
	DD	02H
	DD	02H
	DD	01H
	DD	03H
?cube_vertices@lib3d@@3PAMA DD 0bf000000r	; -0.5	; lib3d::cube_vertices
	DD	03f000000r			; 0.5
	DD	03f000000r			; 0.5
	DD	000000000r			; 0
	DD	000000000r			; 0
	DD	000000000r			; 0
	DD	000000000r			; 0
	DD	03f800000r			; 1
	DD	03f000000r			; 0.5
	DD	03f000000r			; 0.5
	DD	03f000000r			; 0.5
	DD	03f800000r			; 1
	DD	000000000r			; 0
	DD	000000000r			; 0
	DD	000000000r			; 0
	DD	03f800000r			; 1
	DD	0bf000000r			; -0.5
	DD	0bf000000r			; -0.5
	DD	03f000000r			; 0.5
	DD	000000000r			; 0
	DD	03f800000r			; 1
	DD	000000000r			; 0
	DD	000000000r			; 0
	DD	03f800000r			; 1
	DD	03f000000r			; 0.5
	DD	0bf000000r			; -0.5
	DD	03f000000r			; 0.5
	DD	03f800000r			; 1
	DD	03f800000r			; 1
	DD	000000000r			; 0
	DD	000000000r			; 0
	DD	03f800000r			; 1
	DD	0bf000000r			; -0.5
	DD	03f000000r			; 0.5
	DD	0bf000000r			; -0.5
	DD	03f800000r			; 1
	DD	000000000r			; 0
	DD	000000000r			; 0
	DD	000000000r			; 0
	DD	0bf800000r			; -1
	DD	03f000000r			; 0.5
	DD	03f000000r			; 0.5
	DD	0bf000000r			; -0.5
	DD	000000000r			; 0
	DD	000000000r			; 0
	DD	000000000r			; 0
	DD	000000000r			; 0
	DD	0bf800000r			; -1
	DD	0bf000000r			; -0.5
	DD	0bf000000r			; -0.5
	DD	0bf000000r			; -0.5
	DD	03f800000r			; 1
	DD	03f800000r			; 1
	DD	000000000r			; 0
	DD	000000000r			; 0
	DD	0bf800000r			; -1
	DD	03f000000r			; 0.5
	DD	0bf000000r			; -0.5
	DD	0bf000000r			; -0.5
	DD	000000000r			; 0
	DD	03f800000r			; 1
	DD	000000000r			; 0
	DD	000000000r			; 0
	DD	0bf800000r			; -1
	DD	0bf000000r			; -0.5
	DD	03f000000r			; 0.5
	DD	0bf000000r			; -0.5
	DD	000000000r			; 0
	DD	03f800000r			; 1
	DD	000000000r			; 0
	DD	03f800000r			; 1
	DD	000000000r			; 0
	DD	03f000000r			; 0.5
	DD	03f000000r			; 0.5
	DD	0bf000000r			; -0.5
	DD	03f800000r			; 1
	DD	03f800000r			; 1
	DD	000000000r			; 0
	DD	03f800000r			; 1
	DD	000000000r			; 0
	DD	0bf000000r			; -0.5
	DD	03f000000r			; 0.5
	DD	03f000000r			; 0.5
	DD	000000000r			; 0
	DD	000000000r			; 0
	DD	000000000r			; 0
	DD	03f800000r			; 1
	DD	000000000r			; 0
	DD	03f000000r			; 0.5
	DD	03f000000r			; 0.5
	DD	03f000000r			; 0.5
	DD	03f800000r			; 1
	DD	000000000r			; 0
	DD	000000000r			; 0
	DD	03f800000r			; 1
	DD	000000000r			; 0
	DD	0bf000000r			; -0.5
	DD	0bf000000r			; -0.5
	DD	0bf000000r			; -0.5
	DD	000000000r			; 0
	DD	000000000r			; 0
	DD	000000000r			; 0
	DD	0bf800000r			; -1
	DD	000000000r			; 0
	DD	03f000000r			; 0.5
	DD	0bf000000r			; -0.5
	DD	0bf000000r			; -0.5
	DD	03f800000r			; 1
	DD	000000000r			; 0
	DD	000000000r			; 0
	DD	0bf800000r			; -1
	DD	000000000r			; 0
	DD	0bf000000r			; -0.5
	DD	0bf000000r			; -0.5
	DD	03f000000r			; 0.5
	DD	000000000r			; 0
	DD	03f800000r			; 1
	DD	000000000r			; 0
	DD	0bf800000r			; -1
	DD	000000000r			; 0
	DD	03f000000r			; 0.5
	DD	0bf000000r			; -0.5
	DD	03f000000r			; 0.5
	DD	03f800000r			; 1
	DD	03f800000r			; 1
	DD	000000000r			; 0
	DD	0bf800000r			; -1
	DD	000000000r			; 0
	DD	0bf000000r			; -0.5
	DD	03f000000r			; 0.5
	DD	0bf000000r			; -0.5
	DD	000000000r			; 0
	DD	03f800000r			; 1
	DD	0bf800000r			; -1
	DD	000000000r			; 0
	DD	000000000r			; 0
	DD	0bf000000r			; -0.5
	DD	03f000000r			; 0.5
	DD	03f000000r			; 0.5
	DD	03f800000r			; 1
	DD	03f800000r			; 1
	DD	0bf800000r			; -1
	DD	000000000r			; 0
	DD	000000000r			; 0
	DD	0bf000000r			; -0.5
	DD	0bf000000r			; -0.5
	DD	0bf000000r			; -0.5
	DD	000000000r			; 0
	DD	000000000r			; 0
	DD	0bf800000r			; -1
	DD	000000000r			; 0
	DD	000000000r			; 0
	DD	0bf000000r			; -0.5
	DD	0bf000000r			; -0.5
	DD	03f000000r			; 0.5
	DD	03f800000r			; 1
	DD	000000000r			; 0
	DD	0bf800000r			; -1
	DD	000000000r			; 0
	DD	000000000r			; 0
	DD	03f000000r			; 0.5
	DD	03f000000r			; 0.5
	DD	0bf000000r			; -0.5
	DD	000000000r			; 0
	DD	03f800000r			; 1
	DD	03f800000r			; 1
	DD	000000000r			; 0
	DD	000000000r			; 0
	DD	03f000000r			; 0.5
	DD	03f000000r			; 0.5
	DD	03f000000r			; 0.5
	DD	03f800000r			; 1
	DD	03f800000r			; 1
	DD	03f800000r			; 1
	DD	000000000r			; 0
	DD	000000000r			; 0
	DD	03f000000r			; 0.5
	DD	0bf000000r			; -0.5
	DD	0bf000000r			; -0.5
	DD	000000000r			; 0
	DD	000000000r			; 0
	DD	03f800000r			; 1
	DD	000000000r			; 0
	DD	000000000r			; 0
	DD	03f000000r			; 0.5
	DD	0bf000000r			; -0.5
	DD	03f000000r			; 0.5
	DD	03f800000r			; 1
	DD	000000000r			; 0
	DD	03f800000r			; 1
	DD	000000000r			; 0
	DD	000000000r			; 0
?cube_indices@lib3d@@3PAHA DD 00H			; lib3d::cube_indices
	DD	02H
	DD	01H
	DD	01H
	DD	02H
	DD	03H
	DD	04H
	DD	05H
	DD	06H
	DD	06H
	DD	05H
	DD	07H
	DD	09H
	DD	08H
	DD	0aH
	DD	09H
	DD	0aH
	DD	0bH
	DD	0cH
	DD	0dH
	DD	0eH
	DD	0eH
	DD	0dH
	DD	0fH
	DD	011H
	DD	010H
	DD	012H
	DD	011H
	DD	012H
	DD	013H
	DD	014H
	DD	015H
	DD	016H
	DD	016H
	DD	015H
	DD	017H
?sphere_vertices@lib3d@@3PAMA DD 03e051074r	; 0.129946 ; lib3d::sphere_vertices
	DD	03d2cf0ebr			; 0.0422219
	DD	0bef6419cr			; -0.480969
	DD	03e54fec3r			; 0.208003
	DD	03f06e3aar			; 0.526911
	DD	03dcc3e3ar			; 0.0997281
	DD	03e0c8eebr			; 0.137264
	DD	0bf7c49d1r			; -0.985501
	DD	000000000r			; 0
	DD	000000000r			; 0
	DD	0bf000000r			; -0.5
	DD	03e800000r			; 0.25
	DD	03f000000r			; 0.5
	DD	03dcc3e38r			; 0.099728
	DD	03e0c8eear			; 0.137264
	DD	0bf7c49d0r			; -0.985501
	DD	000000000r			; 0
	DD	03e0be97fr			; 0.136633
	DD	0bef6419cr			; -0.480969
	DD	03e800000r			; 0.25
	DD	03f168dfar			; 0.588104
	DD	03dcc3e39r			; 0.0997281
	DD	03e0c8eebr			; 0.137264
	DD	0bf7c49d1r			; -0.985501
	DD	03e0c596br			; 0.13706
	DD	03e412ca1r			; 0.188647
	DD	0bee274cdr			; -0.442297
	DD	03e4f06c8r			; 0.202174
	DD	03f1f8672r			; 0.623145
	DD	03dd61643r			; 0.104535
	DD	03ecd62e9r			; 0.401145
	DD	0bf68f7ber			; -0.91003
	DD	000000000r			; 0
	DD	03e0be97fr			; 0.136633
	DD	0bef6419cr			; -0.480969
	DD	03e800000r			; 0.25
	DD	03f168dfar			; 0.588104
	DD	03dd61644r			; 0.104535
	DD	03ecd62e9r			; 0.401145
	DD	0bf68f7ber			; -0.91003
	DD	000000000r			; 0
	DD	03e869652r			; 0.262866
	DD	0bed9c440r			; -0.425325
	DD	03e800000r			; 0.25
	DD	03f2d1bfcr			; 0.676208
	DD	03dd61643r			; 0.104535
	DD	03ecd62e8r			; 0.401145
	DD	0bf68f7bfr			; -0.91003
	DD	03e7fffffr			; 0.25
	DD	03da65bf1r			; 0.0812301
	DD	0bed9c440r			; -0.425325
	DD	03e29659fr			; 0.165427
	DD	03f0d4c21r			; 0.551943
	DD	03eb2cb7cr			; 0.349209
	DD	03e64bd85r			; 0.223379
	DD	0bf68f7bfr			; -0.91003
	DD	03e051074r			; 0.129946
	DD	03d2cf0ebr			; 0.0422219
	DD	0bef6419cr			; -0.480969
	DD	03e54fec3r			; 0.208003
	DD	03f06e3aar			; 0.526911
	DD	03eb2cb7cr			; 0.349209
	DD	03e64bd85r			; 0.223379
	DD	0bf68f7ber			; -0.91003
	DD	03e0c596br			; 0.13706
	DD	03e412ca1r			; 0.188647
	DD	0bee274cdr			; -0.442297
	DD	03e4f06c8r			; 0.202174
	DD	03f1f8672r			; 0.623145
	DD	03eb2cb7br			; 0.349209
	DD	03e64bd82r			; 0.223379
	DD	0bf68f7bdr			; -0.91003
	DD	03e0c596cr			; 0.13706
	DD	03e9f5a87r			; 0.311238
	DD	0bebbaa17r			; -0.366532
	DD	03e45ae72r			; 0.193048
	DD	03f36c05fr			; 0.713873
	DD	03dd61649r			; 0.104535
	DD	03f22726er			; 0.634559
	DD	0bf4409afr			; -0.765773
	DD	000000000r			; 0
	DD	03e869652r			; 0.262866
	DD	0bed9c440r			; -0.425325
	DD	03e800000r			; 0.25
	DD	03f2d1bfcr			; 0.676208
	DD	03dd61648r			; 0.104535
	DD	03f22726er			; 0.634559
	DD	0bf4409aer			; -0.765773
	DD	000000000r			; 0
	DD	03ebcf91ar			; 0.369088
	DD	0beacb31fr			; -0.337304
	DD	03e800000r			; 0.25
	DD	03f43a9fdr			; 0.764313
	DD	03dd61649r			; 0.104535
	DD	03f22726er			; 0.634559
	DD	0bf4409afr			; -0.765773
	DD	03e81de7dr			; 0.253651
	DD	03e67f75br			; 0.22653
	DD	0bebbaa17r			; -0.366532
	DD	03e1d57a3r			; 0.153655
	DD	03f265099r			; 0.649667
	DD	03eb6b15fr			; 0.356822
	DD	03efb7493r			; 0.491124
	DD	0bf4b6e78r			; -0.794654
	DD	03e0c596br			; 0.13706
	DD	03e412ca1r			; 0.188647
	DD	0bee274cdr			; -0.442297
	DD	03e4f06c8r			; 0.202174
	DD	03f1f8672r			; 0.623145
	DD	03eb6b15er			; 0.356822
	DD	03efb7493r			; 0.491124
	DD	0bf4b6e76r			; -0.794654
	DD	03e0c596cr			; 0.13706
	DD	03e9f5a87r			; 0.311238
	DD	0bebbaa17r			; -0.366532
	DD	03e45ae72r			; 0.193048
	DD	03f36c05fr			; 0.713873
	DD	03eb6b15fr			; 0.356822
	DD	03efb7494r			; 0.491124
	DD	0bf4b6e78r			; -0.794654
	DD	03eb3b959r			; 0.351023
	DD	03de99579r			; 0.114055
	DD	0beacb320r			; -0.337304
	DD	03df98117r			; 0.121828
	DD	03f12c0ccr			; 0.573254
	DD	03f123a06r			; 0.571198
	DD	03e974ccer			; 0.295508
	DD	0bf4409b2r			; -0.765773
	DD	03e7fffffr			; 0.25
	DD	03da65bf1r			; 0.0812301
	DD	0bed9c440r			; -0.425325
	DD	03e29659fr			; 0.165427
	DD	03f0d4c21r			; 0.551943
	DD	03f123a06r			; 0.571198
	DD	03e974ccer			; 0.295508
	DD	0bf4409b2r			; -0.765773
	DD	03e81de7dr			; 0.253651
	DD	03e67f75br			; 0.22653
	DD	0bebbaa17r			; -0.366532
	DD	03e1d57a3r			; 0.153655
	DD	03f265099r			; 0.649667
	DD	03f123a06r			; 0.571198
	DD	03e974ccer			; 0.295508
	DD	0bf4409b2r			; -0.765773
	DD	03e051077r			; 0.129946
	DD	03ed29738r			; 0.41131
	DD	0be8176e3r			; -0.25286
	DD	03e32a274r			; 0.174448
	DD	03f4eb791r			; 0.807489
	DD	03dcc3e37r			; 0.099728
	DD	03f51f050r			; 0.820073
	DD	0bf1041abr			; -0.563502
	DD	000000000r			; 0
	DD	03ebcf91ar			; 0.369088
	DD	0beacb31fr			; -0.337304
	DD	03e800000r			; 0.25
	DD	03f43a9fdr			; 0.764313
	DD	03dcc3e37r			; 0.099728
	DD	03f51f04fr			; 0.820073
	DD	0bf1041aar			; -0.563502
	DD	000000000r			; 0
	DD	03ee4f931r			; 0.447214
	DD	0be64f91fr			; -0.223607
	DD	03e800000r			; 0.25
	DD	03f5a37f9r			; 0.852417
	DD	03dcc3e35r			; 0.099728
	DD	03f51f04fr			; 0.820073
	DD	0bf1041aar			; -0.563502
	DD	03e7fffffr			; 0.25
	DD	03eb02d4fr			; 0.344096
	DD	0be869648r			; -0.262865
	DD	03e041660r			; 0.128992
	DD	03f3dd92dr			; 0.741595
	DD	03eb2cb7br			; 0.349209
	DD	03f36cc80r			; 0.714058
	DD	0bf1b558ar			; -0.606774
	DD	03e0c596cr			; 0.13706
	DD	03e9f5a87r			; 0.311238
	DD	0bebbaa17r			; -0.366532
	DD	03e45ae72r			; 0.193048
	DD	03f36c05fr			; 0.713873
	DD	03eb2cb7ar			; 0.349209
	DD	03f36cc7fr			; 0.714058
	DD	0bf1b558ar			; -0.606774
	DD	03e051077r			; 0.129946
	DD	03ed29738r			; 0.41131
	DD	0be8176e3r			; -0.25286
	DD	03e32a274r			; 0.174448
	DD	03f4eb791r			; 0.807489
	DD	03eb2cb7br			; 0.349209
	DD	03f36cc80r			; 0.714058
	DD	0bf1b558ar			; -0.606774
	DD	03eb3b959r			; 0.351023
	DD	03e805a1fr			; 0.250688
	DD	0be8176e4r			; -0.25286
	DD	03dcb79adr			; 0.0993532
	DD	03f2acbcfr			; 0.667172
	DD	03f123a05r			; 0.571198
	DD	03f0d8293r			; 0.552774
	DD	0bf1b5587r			; -0.606774
	DD	03e81de7dr			; 0.253651
	DD	03e67f75br			; 0.22653
	DD	0bebbaa17r			; -0.366532
	DD	03e1d57a3r			; 0.153655
	DD	03f265099r			; 0.649667
	DD	03f123a05r			; 0.571198
	DD	03f0d8294r			; 0.552774
	DD	0bf1b5587r			; -0.606774
	DD	03e7fffffr			; 0.25
	DD	03eb02d4fr			; 0.344096
	DD	0be869648r			; -0.262865
	DD	03e041660r			; 0.128992
	DD	03f3dd92dr			; 0.741595
	DD	03f123a04r			; 0.571198
	DD	03f0d8293r			; 0.552774
	DD	0bf1b5586r			; -0.606774
	DD	03ed9c441r			; 0.425325
	DD	03e0d8379r			; 0.138197
	DD	0be64f921r			; -0.223607
	DD	03d9dc411r			; 0.0770341
	DD	03f16d1d6r			; 0.589139
	DD	03f3fc632r			; 0.749118
	DD	03eb24fa8r			; 0.348264
	DD	0bf1041adr			; -0.563502
	DD	03eb3b959r			; 0.351023
	DD	03de99579r			; 0.114055
	DD	0beacb320r			; -0.337304
	DD	03df98117r			; 0.121828
	DD	03f12c0ccr			; 0.573254
	DD	03f3fc630r			; 0.749118
	DD	03eb24fa8r			; 0.348264
	DD	0bf1041acr			; -0.563502
	DD	03eb3b959r			; 0.351023
	DD	03e805a1fr			; 0.250688
	DD	0be8176e4r			; -0.25286
	DD	03dcb79adr			; 0.0993532
	DD	03f2acbcfr			; 0.667172
	DD	03f3fc630r			; 0.749118
	DD	03eb24fa8r			; 0.348264
	DD	0bf1041adr			; -0.563502
	DD	03e051074r			; 0.129946
	DD	03d2cf0ebr			; 0.0422219
	DD	0bef6419cr			; -0.480969
	DD	03e54fec3r			; 0.208003
	DD	03f06e3aar			; 0.526911
	DD	03e35016er			; 0.176763
	DD	03e792208r			; 0.243294
	DD	0bf742656r			; -0.95371
	DD	000000000r			; 0
	DD	03e0be97fr			; 0.136633
	DD	0bef6419cr			; -0.480969
	DD	03e800000r			; 0.25
	DD	03f168dfar			; 0.588104
	DD	03e35016er			; 0.176763
	DD	03e792208r			; 0.243294
	DD	0bf742656r			; -0.95371
	DD	03e0c596br			; 0.13706
	DD	03e412ca1r			; 0.188647
	DD	0bee274cdr			; -0.442297
	DD	03e4f06c8r			; 0.202174
	DD	03f1f8672r			; 0.623145
	DD	03e35016fr			; 0.176763
	DD	03e792208r			; 0.243294
	DD	0bf742658r			; -0.95371
	DD	03e0c596br			; 0.13706
	DD	03e412ca1r			; 0.188647
	DD	0bee274cdr			; -0.442297
	DD	03e4f06c8r			; 0.202174
	DD	03f1f8672r			; 0.623145
	DD	03e34c594r			; 0.176535
	DD	03f047935r			; 0.517474
	DD	0bf5658acr			; -0.837291
	DD	000000000r			; 0
	DD	03e869652r			; 0.262866
	DD	0bed9c440r			; -0.425325
	DD	03e800000r			; 0.25
	DD	03f2d1bfcr			; 0.676208
	DD	03e34c596r			; 0.176535
	DD	03f047936r			; 0.517475
	DD	0bf5658aer			; -0.837291
	DD	03e0c596cr			; 0.13706
	DD	03e9f5a87r			; 0.311238
	DD	0bebbaa17r			; -0.366532
	DD	03e45ae72r			; 0.193048
	DD	03f36c05fr			; 0.713873
	DD	03e34c595r			; 0.176535
	DD	03f047936r			; 0.517475
	DD	0bf5658adr			; -0.837291
	DD	03e7fffffr			; 0.25
	DD	03da65bf1r			; 0.0812301
	DD	0bed9c440r			; -0.425325
	DD	03e29659fr			; 0.165427
	DD	03f0d4c21r			; 0.551943
	DD	03ee00c73r			; 0.437595
	DD	03ea7d5d3r			; 0.327803
	DD	0bf5658afr			; -0.837291
	DD	03e0c596br			; 0.13706
	DD	03e412ca1r			; 0.188647
	DD	0bee274cdr			; -0.442297
	DD	03e4f06c8r			; 0.202174
	DD	03f1f8672r			; 0.623145
	DD	03ee00c73r			; 0.437595
	DD	03ea7d5d4r			; 0.327803
	DD	0bf5658b0r			; -0.837291
	DD	03e81de7dr			; 0.253651
	DD	03e67f75br			; 0.22653
	DD	0bebbaa17r			; -0.366532
	DD	03e1d57a3r			; 0.153655
	DD	03f265099r			; 0.649667
	DD	03ee00c73r			; 0.437595
	DD	03ea7d5d5r			; 0.327803
	DD	0bf5658afr			; -0.837291
	DD	03e0c596cr			; 0.13706
	DD	03e9f5a87r			; 0.311238
	DD	0bebbaa17r			; -0.366532
	DD	03e45ae72r			; 0.193048
	DD	03f36c05fr			; 0.713873
	DD	03e35016br			; 0.176763
	DD	03f3e8538r			; 0.74422
	DD	0bf24e512r			; -0.64412
	DD	000000000r			; 0
	DD	03ebcf91ar			; 0.369088
	DD	0beacb31fr			; -0.337304
	DD	03e800000r			; 0.25
	DD	03f43a9fdr			; 0.764313
	DD	03e35016br			; 0.176763
	DD	03f3e8538r			; 0.74422
	DD	0bf24e512r			; -0.64412
	DD	03e051077r			; 0.129946
	DD	03ed29738r			; 0.41131
	DD	0be8176e3r			; -0.25286
	DD	03e32a274r			; 0.174448
	DD	03f4eb791r			; 0.807489
	DD	03e35016br			; 0.176763
	DD	03f3e8538r			; 0.74422
	DD	0bf24e513r			; -0.64412
	DD	03e81de7dr			; 0.253651
	DD	03e67f75br			; 0.22653
	DD	0bebbaa17r			; -0.366532
	DD	03e1d57a3r			; 0.153655
	DD	03f265099r			; 0.649667
	DD	03ee00c70r			; 0.437595
	DD	03f1a3038r			; 0.602298
	DD	0bf2aeaacr			; -0.667643
	DD	03e0c596cr			; 0.13706
	DD	03e9f5a87r			; 0.311238
	DD	0bebbaa17r			; -0.366532
	DD	03e45ae72r			; 0.193048
	DD	03f36c05fr			; 0.713873
	DD	03ee00c70r			; 0.437595
	DD	03f1a3038r			; 0.602298
	DD	0bf2aeaacr			; -0.667643
	DD	03e7fffffr			; 0.25
	DD	03eb02d4fr			; 0.344096
	DD	0be869648r			; -0.262865
	DD	03e041660r			; 0.128992
	DD	03f3dd92dr			; 0.741595
	DD	03ee00c6fr			; 0.437595
	DD	03f1a3037r			; 0.602298
	DD	0bf2aeaacr			; -0.667643
	DD	03eb3b959r			; 0.351023
	DD	03de99579r			; 0.114055
	DD	0beacb320r			; -0.337304
	DD	03df98117r			; 0.121828
	DD	03f12c0ccr			; 0.573254
	DD	03f273651r			; 0.653173
	DD	03ecbd24br			; 0.398089
	DD	0bf24e510r			; -0.64412
	DD	03e81de7dr			; 0.253651
	DD	03e67f75br			; 0.22653
	DD	0bebbaa17r			; -0.366532
	DD	03e1d57a3r			; 0.153655
	DD	03f265099r			; 0.649667
	DD	03f273652r			; 0.653173
	DD	03ecbd24br			; 0.398089
	DD	0bf24e512r			; -0.64412
	DD	03eb3b959r			; 0.351023
	DD	03e805a1fr			; 0.250688
	DD	0be8176e4r			; -0.25286
	DD	03dcb79adr			; 0.0993532
	DD	03f2acbcfr			; 0.667172
	DD	03f273652r			; 0.653173
	DD	03ecbd24br			; 0.398089
	DD	0bf24e511r			; -0.64412
	DD	03da479fbr			; 0.0803108
	DD	0bde261ear			; -0.110538
	DD	0bef6419cr			; -0.480969
	DD	03e650928r			; 0.223668
	DD	03edbab84r			; 0.429043
	DD	03e253c79r			; 0.161363
	DD	0bd56c101r			; -0.0524302
	DD	0bf7c49d1r			; -0.985501
	DD	000000000r			; 0
	DD	000000000r			; 0
	DD	0bf000000r			; -0.5
	DD	03e800000r			; 0.25
	DD	03f000000r			; 0.5
	DD	03e253c7ar			; 0.161364
	DD	0bd56c101r			; -0.0524302
	DD	0bf7c49d1r			; -0.985501
	DD	03e051074r			; 0.129946
	DD	03d2cf0ebr			; 0.0422219
	DD	0bef6419cr			; -0.480969
	DD	03e54fec3r			; 0.208003
	DD	03f06e3aar			; 0.526911
	DD	03e253c79r			; 0.161363
	DD	0bd56c100r			; -0.0524302
	DD	0bf7c49d0r			; -0.985501
	DD	03e631708r			; 0.221768
	DD	0bd939266r			; -0.0720566
	DD	0bee274cfr			; -0.442297
	DD	03e344140r			; 0.17603
	DD	03ee86e60r			; 0.453967
	DD	03ed3df86r			; 0.413815
	DD	03cc90dbfr			; 0.0245427
	DD	0bf68f7ber			; -0.91003
	DD	03e051074r			; 0.129946
	DD	03d2cf0ebr			; 0.0422219
	DD	0bef6419cr			; -0.480969
	DD	03e54fec3r			; 0.208003
	DD	03f06e3aar			; 0.526911
	DD	03ed3df86r			; 0.413815
	DD	03cc90dbfr			; 0.0245427
	DD	0bf68f7ber			; -0.91003
	DD	03e7fffffr			; 0.25
	DD	03da65bf1r			; 0.0812301
	DD	0bed9c440r			; -0.425325
	DD	03e29659fr			; 0.165427
	DD	03f0d4c21r			; 0.551943
	DD	03ed3df85r			; 0.413815
	DD	03cc90dber			; 0.0245427
	DD	0bf68f7bdr			; -0.91003
	DD	03e1e377ar			; 0.154509
	DD	0be59c441r			; -0.212663
	DD	0bed9c441r			; -0.425325
	DD	03e473633r			; 0.194543
	DD	03eb866d8r			; 0.36016
	DD	03ea405e2r			; 0.320357
	DD	0be86b3a4r			; -0.263089
	DD	0bf68f7bfr			; -0.91003
	DD	03da479fbr			; 0.0803108
	DD	0bde261ear			; -0.110538
	DD	0bef6419cr			; -0.480969
	DD	03e650928r			; 0.223668
	DD	03edbab84r			; 0.429043
	DD	03ea405e2r			; 0.320357
	DD	0be86b3a3r			; -0.263089
	DD	0bf68f7bfr			; -0.91003
	DD	03e631708r			; 0.221768
	DD	0bd939266r			; -0.0720566
	DD	0bee274cfr			; -0.442297
	DD	03e344140r			; 0.17603
	DD	03ee86e60r			; 0.453967
	DD	03ea405e2r			; 0.320357
	DD	0be86b3a4r			; -0.263089
	DD	0bf68f7ber			; -0.91003
	DD	03ead3d4br			; 0.338358
	DD	0bd0bf9f0r			; -0.0341739
	DD	0bebbaa1ar			; -0.366532
	DD	03e0682b1r			; 0.131358
	DD	03ef4da33r			; 0.478227
	DD	03f22c40ar			; 0.635804
	DD	03dc5fb9ar			; 0.0966713
	DD	0bf4409b1r			; -0.765773
	DD	03e7fffffr			; 0.25
	DD	03da65bf1r			; 0.0812301
	DD	0bed9c440r			; -0.425325
	DD	03e29659fr			; 0.165427
	DD	03f0d4c21r			; 0.551943
	DD	03f22c40br			; 0.635804
	DD	03dc5fb9br			; 0.0966713
	DD	0bf4409b2r			; -0.765773
	DD	03eb3b959r			; 0.351023
	DD	03de99579r			; 0.114055
	DD	0beacb320r			; -0.337304
	DD	03df98117r			; 0.121828
	DD	03f12c0ccr			; 0.573254
	DD	03f22c40br			; 0.635804
	DD	03dc5fb9ar			; 0.0966713
	DD	0bf4409b2r			; -0.765773
	DD	03e96702er			; 0.293825
	DD	0be2f581er			; -0.171235
	DD	0bebbaa1ar			; -0.366532
	DD	03e11df42r			; 0.142453
	DD	03ec70881r			; 0.388737
	DD	03f13cd3fr			; 0.577351
	DD	0be40182fr			; -0.187592
	DD	0bf4b6e78r			; -0.794654
	DD	03e631708r			; 0.221768
	DD	0bd939266r			; -0.0720566
	DD	0bee274cfr			; -0.442297
	DD	03e344140r			; 0.17603
	DD	03ee86e60r			; 0.453967
	DD	03f13cd3fr			; 0.577351
	DD	0be401830r			; -0.187592
	DD	0bf4b6e79r			; -0.794654
	DD	03ead3d4br			; 0.338358
	DD	0bd0bf9f0r			; -0.0341739
	DD	0bebbaa1ar			; -0.366532
	DD	03e0682b1r			; 0.131358
	DD	03ef4da33r			; 0.478227
	DD	03f13cd3er			; 0.57735
	DD	0be40182er			; -0.187592
	DD	0bf4b6e77r			; -0.794654
	DD	03e5e26b0r			; 0.216944
	DD	0be98e1e6r			; -0.298598
	DD	0beacb321r			; -0.337304
	DD	03e22d9a6r			; 0.159033
	DD	03e97b227r			; 0.296281
	DD	03eea4490r			; 0.457554
	DD	0bee762a6r			; -0.451925
	DD	0bf4409b3r			; -0.765773
	DD	03e1e377ar			; 0.154509
	DD	0be59c441r			; -0.212663
	DD	0bed9c441r			; -0.425325
	DD	03e473633r			; 0.194543
	DD	03eb866d8r			; 0.36016
	DD	03eea4490r			; 0.457554
	DD	0bee762a6r			; -0.451925
	DD	0bf4409b3r			; -0.765773
	DD	03e96702er			; 0.293825
	DD	0be2f581er			; -0.171235
	DD	0bebbaa1ar			; -0.366532
	DD	03e11df42r			; 0.142453
	DD	03ec70881r			; 0.388737
	DD	03eea4490r			; 0.457554
	DD	0bee762a6r			; -0.451925
	DD	0bf4409b3r			; -0.765773
	DD	03edcd7dcr			; 0.431334
	DD	03b667124r			; 0.00351627
	DD	0be8176e5r			; -0.25286
	DD	03dacd41dr			; 0.0843889
	DD	03f0092b4r			; 0.502239
	DD	03f4f8d89r			; 0.810753
	DD	03e226017r			; 0.15857
	DD	0bf1041abr			; -0.563502
	DD	03eb3b959r			; 0.351023
	DD	03de99579r			; 0.114055
	DD	0beacb320r			; -0.337304
	DD	03df98117r			; 0.121828
	DD	03f12c0ccr			; 0.573254
	DD	03f4f8d89r			; 0.810753
	DD	03e226015r			; 0.15857
	DD	0bf1041abr			; -0.563502
	DD	03ed9c441r			; 0.425325
	DD	03e0d8379r			; 0.138197
	DD	0be64f921r			; -0.223607
	DD	03d9dc411r			; 0.0770341
	DD	03f16d1d6r			; 0.589139
	DD	03f4f8d8ar			; 0.810753
	DD	03e226018r			; 0.15857
	DD	0bf1041acr			; -0.563502
	DD	03ecf1bc1r			; 0.404509
	DD	0be06964br			; -0.131433
	DD	0be86964br			; -0.262865
	DD	03dbbd50ar			; 0.0917149
	DD	03ed4a676r			; 0.415332
	DD	03f497a32r			; 0.787021
	DD	0bde445adr			; -0.111461
	DD	0bf1b558ar			; -0.606774
	DD	03ead3d4br			; 0.338358
	DD	0bd0bf9f0r			; -0.0341739
	DD	0bebbaa1ar			; -0.366532
	DD	03e0682b1r			; 0.131358
	DD	03ef4da33r			; 0.478227
	DD	03f497a33r			; 0.787021
	DD	0bde445aer			; -0.111461
	DD	0bf1b558ar			; -0.606774
	DD	03edcd7dcr			; 0.431334
	DD	03b667124r			; 0.00351627
	DD	0be8176e5r			; -0.25286
	DD	03dacd41dr			; 0.0843889
	DD	03f0092b4r			; 0.502239
	DD	03f497a33r			; 0.787021
	DD	0bde445adr			; -0.111461
	DD	0bf1b558ar			; -0.606774
	DD	03eb19b96r			; 0.34689
	DD	0be8343c9r			; -0.256377
	DD	0be8176e5r			; -0.25286
	DD	03dcd4f48r			; 0.100249
	DD	03ea8419fr			; 0.328626
	DD	03f33c543r			; 0.702229
	DD	0bebeae80r			; -0.372425
	DD	0bf1b5586r			; -0.606774
	DD	03e96702er			; 0.293825
	DD	0be2f581er			; -0.171235
	DD	0bebbaa1ar			; -0.366532
	DD	03e11df42r			; 0.142453
	DD	03ec70881r			; 0.388737
	DD	03f33c543r			; 0.702229
	DD	0bebeae80r			; -0.372425
	DD	0bf1b5587r			; -0.606774
	DD	03ecf1bc1r			; 0.404509
	DD	0be06964br			; -0.131433
	DD	0be86964br			; -0.262865
	DD	03dbbd50ar			; 0.0917149
	DD	03ed4a676r			; 0.415332
	DD	03f33c543r			; 0.702229
	DD	0bebeae81r			; -0.372425
	DD	0bf1b5586r			; -0.606774
	DD	03e869652r			; 0.262866
	DD	0beb93e4er			; -0.361803
	DD	0be64f923r			; -0.223607
	DD	03de5c099r			; 0.112184
	DD	03e784d6dr			; 0.242483
	DD	03f100dafr			; 0.562709
	DD	0bf1ad668r			; -0.604834
	DD	0bf1041abr			; -0.563502
	DD	03e5e26b0r			; 0.216944
	DD	0be98e1e6r			; -0.298598
	DD	0beacb321r			; -0.337304
	DD	03e22d9a6r			; 0.159033
	DD	03e97b227r			; 0.296281
	DD	03f100dafr			; 0.562709
	DD	0bf1ad668r			; -0.604834
	DD	0bf1041abr			; -0.563502
	DD	03eb19b96r			; 0.34689
	DD	0be8343c9r			; -0.256377
	DD	0be8176e5r			; -0.25286
	DD	03dcd4f48r			; 0.100249
	DD	03ea8419fr			; 0.328626
	DD	03f100db0r			; 0.562709
	DD	0bf1ad668r			; -0.604834
	DD	0bf1041abr			; -0.563502
	DD	03da479fbr			; 0.0803108
	DD	0bde261ear			; -0.110538
	DD	0bef6419cr			; -0.480969
	DD	03e650928r			; 0.223668
	DD	03edbab84r			; 0.429043
	DD	03e926fbbr			; 0.286009
	DD	0bdbe51fbr			; -0.0929298
	DD	0bf74265ar			; -0.95371
	DD	03e051074r			; 0.129946
	DD	03d2cf0ebr			; 0.0422219
	DD	0bef6419cr			; -0.480969
	DD	03e54fec3r			; 0.208003
	DD	03f06e3aar			; 0.526911
	DD	03e926fbbr			; 0.286009
	DD	0bdbe51fbr			; -0.0929298
	DD	0bf74265ar			; -0.95371
	DD	03e631708r			; 0.221768
	DD	0bd939266r			; -0.0720566
	DD	0bee274cfr			; -0.442297
	DD	03e344140r			; 0.17603
	DD	03ee86e60r			; 0.453967
	DD	03e926fbbr			; 0.286009
	DD	0bdbe51fbr			; -0.0929298
	DD	0bf742659r			; -0.95371
	DD	03e631708r			; 0.221768
	DD	0bd939266r			; -0.0720566
	DD	0bee274cfr			; -0.442297
	DD	03e344140r			; 0.17603
	DD	03ee86e60r			; 0.453967
	DD	03f0bf482r			; 0.5467
	DD	0bc02d773r			; -0.00798594
	DD	0bf5658b1r			; -0.837291
	DD	03e7fffffr			; 0.25
	DD	03da65bf1r			; 0.0812301
	DD	0bed9c440r			; -0.425325
	DD	03e29659fr			; 0.165427
	DD	03f0d4c21r			; 0.551943
	DD	03f0bf481r			; 0.5467
	DD	0bc02d773r			; -0.00798594
	DD	0bf5658afr			; -0.837291
	DD	03ead3d4br			; 0.338358
	DD	0bd0bf9f0r			; -0.0341739
	DD	0bebbaa1ar			; -0.366532
	DD	03e0682b1r			; 0.131358
	DD	03ef4da33r			; 0.478227
	DD	03f0bf481r			; 0.5467
	DD	0bc02d772r			; -0.00798594
	DD	0bf5658aer			; -0.837291
	DD	03e1e377ar			; 0.154509
	DD	0be59c441r			; -0.212663
	DD	0bed9c441r			; -0.425325
	DD	03e473633r			; 0.194543
	DD	03eb866d8r			; 0.36016
	DD	03ee4db02r			; 0.446983
	DD	0bea1380fr			; -0.314881
	DD	0bf5658afr			; -0.837291
	DD	03e631708r			; 0.221768
	DD	0bd939266r			; -0.0720566
	DD	0bee274cfr			; -0.442297
	DD	03e344140r			; 0.17603
	DD	03ee86e60r			; 0.453967
	DD	03ee4db03r			; 0.446983
	DD	0bea13810r			; -0.314881
	DD	0bf5658b0r			; -0.837291
	DD	03e96702er			; 0.293825
	DD	0be2f581er			; -0.171235
	DD	0bebbaa1ar			; -0.366532
	DD	03e11df42r			; 0.142453
	DD	03ec70881r			; 0.388737
	DD	03ee4db03r			; 0.446983
	DD	0bea13810r			; -0.314881
	DD	0bf5658b1r			; -0.837291
	DD	03ead3d4br			; 0.338358
	DD	0bd0bf9f0r			; -0.0341739
	DD	0bebbaa1ar			; -0.366532
	DD	03e0682b1r			; 0.131358
	DD	03ef4da33r			; 0.478227
	DD	03f432dd9r			; 0.762418
	DD	03d7d664er			; 0.0618651
	DD	0bf24e512r			; -0.64412
	DD	03eb3b959r			; 0.351023
	DD	03de99579r			; 0.114055
	DD	0beacb320r			; -0.337304
	DD	03df98117r			; 0.121828
	DD	03f12c0ccr			; 0.573254
	DD	03f432dd9r			; 0.762418
	DD	03d7d664er			; 0.0618651
	DD	0bf24e512r			; -0.64412
	DD	03edcd7dcr			; 0.431334
	DD	03b667124r			; 0.00351627
	DD	0be8176e5r			; -0.25286
	DD	03dacd41dr			; 0.0843889
	DD	03f0092b4r			; 0.502239
	DD	03f432dd9r			; 0.762418
	DD	03d7d664er			; 0.0618651
	DD	0bf24e512r			; -0.64412
	DD	03e96702er			; 0.293825
	DD	0be2f581er			; -0.171235
	DD	0bebbaa1ar			; -0.366532
	DD	03e11df42r			; 0.142453
	DD	03ec70881r			; 0.388737
	DD	03f35425dr			; 0.708044
	DD	0be6b9412r			; -0.230057
	DD	0bf2aeaaer			; -0.667643
	DD	03ead3d4br			; 0.338358
	DD	0bd0bf9f0r			; -0.0341739
	DD	0bebbaa1ar			; -0.366532
	DD	03e0682b1r			; 0.131358
	DD	03ef4da33r			; 0.478227
	DD	03f35425cr			; 0.708044
	DD	0be6b9411r			; -0.230057
	DD	0bf2aeaaer			; -0.667643
	DD	03ecf1bc1r			; 0.404509
	DD	0be06964br			; -0.131433
	DD	0be86964br			; -0.262865
	DD	03dbbd50ar			; 0.0917149
	DD	03ed4a676r			; 0.415332
	DD	03f35425cr			; 0.708044
	DD	0be6b9411r			; -0.230057
	DD	0bf2aeaadr			; -0.667643
	DD	03e5e26b0r			; 0.216944
	DD	0be98e1e6r			; -0.298598
	DD	0beacb321r			; -0.337304
	DD	03e22d9a6r			; 0.159033
	DD	03e97b227r			; 0.296281
	DD	03f149821r			; 0.580446
	DD	0beff127cr			; -0.498188
	DD	0bf24e510r			; -0.64412
	DD	03e96702er			; 0.293825
	DD	0be2f581er			; -0.171235
	DD	0bebbaa1ar			; -0.366532
	DD	03e11df42r			; 0.142453
	DD	03ec70881r			; 0.388737
	DD	03f149821r			; 0.580446
	DD	0beff127dr			; -0.498188
	DD	0bf24e511r			; -0.64412
	DD	03eb19b96r			; 0.34689
	DD	0be8343c9r			; -0.256377
	DD	0be8176e5r			; -0.25286
	DD	03dcd4f48r			; 0.100249
	DD	03ea8419fr			; 0.328626
	DD	03f149821r			; 0.580446
	DD	0beff127cr			; -0.498188
	DD	0bf24e511r			; -0.64412
	DD	0bda479fbr			; -0.0803108
	DD	0bde261ear			; -0.110538
	DD	0bef6419cr			; -0.480969
	DD	03e8d7b6cr			; 0.276332
	DD	03edbab84r			; 0.429043
	DD	080000000r			; -0
	DD	0be2dbd57r			; -0.169668
	DD	0bf7c49d1r			; -0.985501
	DD	000000000r			; 0
	DD	000000000r			; 0
	DD	0bf000000r			; -0.5
	DD	03e800000r			; 0.25
	DD	03f000000r			; 0.5
	DD	080000000r			; -0
	DD	0be2dbd56r			; -0.169668
	DD	0bf7c49d2r			; -0.985501
	DD	03da479fbr			; 0.0803108
	DD	0bde261ear			; -0.110538
	DD	0bef6419cr			; -0.480969
	DD	03e650928r			; 0.223668
	DD	03edbab84r			; 0.429043
	DD	080000000r			; -0
	DD	0be2dbd57r			; -0.169668
	DD	0bf7c49d1r			; -0.985501
	DD	000000000r			; 0
	DD	0be6ec6c9r			; -0.23318
	DD	0bee274cer			; -0.442297
	DD	03e800000r			; 0.25
	DD	03eb0ede5r			; 0.345565
	DD	03e1ad896r			; 0.151217
	DD	0bec59ecar			; -0.385977
	DD	0bf68f7ber			; -0.91003
	DD	03da479fbr			; 0.0803108
	DD	0bde261ear			; -0.110538
	DD	0bef6419cr			; -0.480969
	DD	03e650928r			; 0.223668
	DD	03edbab84r			; 0.429043
	DD	03e1ad897r			; 0.151217
	DD	0bec59ecbr			; -0.385977
	DD	0bf68f7ber			; -0.91003
	DD	03e1e377ar			; 0.154509
	DD	0be59c441r			; -0.212663
	DD	0bed9c441r			; -0.425325
	DD	03e473633r			; 0.194543
	DD	03eb866d8r			; 0.36016
	DD	03e1ad897r			; 0.151217
	DD	0bec59eccr			; -0.385977
	DD	0bf68f7bfr			; -0.91003
	DD	0be1e377ar			; -0.154509
	DD	0be59c441r			; -0.212663
	DD	0bed9c441r			; -0.425325
	DD	03e9c64e6r			; 0.305457
	DD	03eb866d8r			; 0.36016
	DD	0be1ad897r			; -0.151217
	DD	0bec59eccr			; -0.385977
	DD	0bf68f7bfr			; -0.91003
	DD	0bda479fbr			; -0.0803108
	DD	0bde261ear			; -0.110538
	DD	0bef6419cr			; -0.480969
	DD	03e8d7b6cr			; 0.276332
	DD	03edbab84r			; 0.429043
	DD	0be1ad897r			; -0.151217
	DD	0bec59ecbr			; -0.385977
	DD	0bf68f7ber			; -0.91003
	DD	000000000r			; 0
	DD	0be6ec6c9r			; -0.23318
	DD	0bee274cer			; -0.442297
	DD	03e800000r			; 0.25
	DD	03eb0ede5r			; 0.345565
	DD	0be1ad896r			; -0.151217
	DD	0bec59ecar			; -0.385977
	DD	0bf68f7ber			; -0.91003
	DD	03d9392a1r			; 0.072057
	DD	0beaa2adbr			; -0.332358
	DD	0bebbaa1ar			; -0.366532
	DD	03e605d32r			; 0.219106
	DD	03e897fb2r			; 0.268552
	DD	03e93aaf7r			; 0.288414
	DD	0bf1326e5r			; -0.574812
	DD	0bf4409b3r			; -0.765773
	DD	03e1e377ar			; 0.154509
	DD	0be59c441r			; -0.212663
	DD	0bed9c441r			; -0.425325
	DD	03e473633r			; 0.194543
	DD	03eb866d8r			; 0.36016
	DD	03e93aaf8r			; 0.288414
	DD	0bf1326e6r			; -0.574812
	DD	0bf4409b4r			; -0.765773
	DD	03e5e26b0r			; 0.216944
	DD	0be98e1e6r			; -0.298598
	DD	0beacb321r			; -0.337304
	DD	03e22d9a6r			; 0.159033
	DD	03e97b227r			; 0.296281
	DD	03e93aaf8r			; 0.288414
	DD	0bf1326e6r			; -0.574812
	DD	0bf4409b3r			; -0.765773
	DD	0bd9392a2r			; -0.072057
	DD	0beaa2adcr			; -0.332358
	DD	0bebbaa1ar			; -0.366532
	DD	03e8fd167r			; 0.280894
	DD	03e897fb1r			; 0.268552
	DD	0340831ffr			; 1.26842e-07
	DD	0bf1b6867r			; -0.607062
	DD	0bf4b6e7ar			; -0.794654
	DD	000000000r			; 0
	DD	0be6ec6c9r			; -0.23318
	DD	0bee274cer			; -0.442297
	DD	03e800000r			; 0.25
	DD	03eb0ede5r			; 0.345565
	DD	034083200r			; 1.26842e-07
	DD	0bf1b6868r			; -0.607062
	DD	0bf4b6e7dr			; -0.794655
	DD	03d9392a1r			; 0.072057
	DD	0beaa2adbr			; -0.332358
	DD	0bebbaa1ar			; -0.366532
	DD	03e605d32r			; 0.219106
	DD	03e897fb2r			; 0.268552
	DD	0340831ffr			; 1.26842e-07
	DD	0bf1b6868r			; -0.607062
	DD	0bf4b6e7cr			; -0.794655
	DD	0be5e26b0r			; -0.216944
	DD	0be98e1e6r			; -0.298598
	DD	0beacb321r			; -0.337304
	DD	03eae932cr			; 0.340967
	DD	03e97b227r			; 0.296281
	DD	0be93aafbr			; -0.288414
	DD	0bf1326e6r			; -0.574812
	DD	0bf4409b3r			; -0.765773
	DD	0be1e377ar			; -0.154509
	DD	0be59c441r			; -0.212663
	DD	0bed9c441r			; -0.425325
	DD	03e9c64e6r			; 0.305457
	DD	03eb866d8r			; 0.36016
	DD	0be93aafcr			; -0.288414
	DD	0bf1326e6r			; -0.574812
	DD	0bf4409b4r			; -0.765773
	DD	0bd9392a2r			; -0.072057
	DD	0beaa2adcr			; -0.332358
	DD	0bebbaa1ar			; -0.366532
	DD	03e8fd167r			; 0.280894
	DD	03e897fb1r			; 0.268552
	DD	0be93aafbr			; -0.288414
	DD	0bf1326e5r			; -0.574812
	DD	0bf4409b3r			; -0.765773
	DD	03e0be9b0r			; 0.136634
	DD	0bed17a63r			; -0.409137
	DD	0be8176e5r			; -0.25286
	DD	03e2f42e9r			; 0.171154
	DD	03e479c15r			; 0.194931
	DD	03ecd7d17r			; 0.401345
	DD	0bf38d9b5r			; -0.722072
	DD	0bf1041abr			; -0.563502
	DD	03e5e26b0r			; 0.216944
	DD	0be98e1e6r			; -0.298598
	DD	0beacb321r			; -0.337304
	DD	03e22d9a6r			; 0.159033
	DD	03e97b227r			; 0.296281
	DD	03ecd7d14r			; 0.401345
	DD	0bf38d9b2r			; -0.722072
	DD	0bf1041aar			; -0.563502
	DD	03e869652r			; 0.262866
	DD	0beb93e4er			; -0.361803
	DD	0be64f923r			; -0.223607
	DD	03de5c099r			; 0.112184
	DD	03e784d6dr			; 0.242483
	DD	03ecd7d15r			; 0.401345
	DD	0bf38d9b3r			; -0.722072
	DD	0bf1041abr			; -0.563502
	DD	000000000r			; 0
	DD	0bed9c444r			; -0.425326
	DD	0be86964ar			; -0.262865
	DD	03e800000r			; 0.25
	DD	03e346fe3r			; 0.176208
	DD	03e0c7d4ar			; 0.137197
	DD	0bf486f14r			; -0.782945
	DD	0bf1b5587r			; -0.606774
	DD	03d9392a1r			; 0.072057
	DD	0beaa2adbr			; -0.332358
	DD	0bebbaa1ar			; -0.366532
	DD	03e605d32r			; 0.219106
	DD	03e897fb2r			; 0.268552
	DD	03e0c7d4br			; 0.137197
	DD	0bf486f13r			; -0.782945
	DD	0bf1b5587r			; -0.606774
	DD	03e0be9b0r			; 0.136634
	DD	0bed17a63r			; -0.409137
	DD	0be8176e5r			; -0.25286
	DD	03e2f42e9r			; 0.171154
	DD	03e479c15r			; 0.194931
	DD	03e0c7d4ar			; 0.137197
	DD	0bf486f13r			; -0.782945
	DD	0bf1b5587r			; -0.606774
	DD	0be0be9b0r			; -0.136634
	DD	0bed17a63r			; -0.409137
	DD	0be8176e5r			; -0.25286
	DD	03ea85e8cr			; 0.328846
	DD	03e479c15r			; 0.194931
	DD	0be0c7d4ar			; -0.137197
	DD	0bf486f15r			; -0.782945
	DD	0bf1b5585r			; -0.606774
	DD	0bd9392a2r			; -0.072057
	DD	0beaa2adcr			; -0.332358
	DD	0bebbaa1ar			; -0.366532
	DD	03e8fd167r			; 0.280894
	DD	03e897fb1r			; 0.268552
	DD	0be0c7d4br			; -0.137197
	DD	0bf486f15r			; -0.782945
	DD	0bf1b5585r			; -0.606774
	DD	000000000r			; 0
	DD	0bed9c444r			; -0.425326
	DD	0be86964ar			; -0.262865
	DD	03e800000r			; 0.25
	DD	03e346fe3r			; 0.176208
	DD	0be0c7d49r			; -0.137197
	DD	0bf486f14r			; -0.782945
	DD	0bf1b5584r			; -0.606774
	DD	0be869652r			; -0.262866
	DD	0beb93e4er			; -0.361803
	DD	0be64f923r			; -0.223607
	DD	03ec68fdar			; 0.387816
	DD	03e784d6dr			; 0.242483
	DD	0becd7d15r			; -0.401345
	DD	0bf38d9b3r			; -0.722072
	DD	0bf1041abr			; -0.563502
	DD	0be5e26b0r			; -0.216944
	DD	0be98e1e6r			; -0.298598
	DD	0beacb321r			; -0.337304
	DD	03eae932cr			; 0.340967
	DD	03e97b227r			; 0.296281
	DD	0becd7d14r			; -0.401345
	DD	0bf38d9b2r			; -0.722072
	DD	0bf1041aar			; -0.563502
	DD	0be0be9b0r			; -0.136634
	DD	0bed17a63r			; -0.409137
	DD	0be8176e5r			; -0.25286
	DD	03ea85e8cr			; 0.328846
	DD	03e479c15r			; 0.194931
	DD	0becd7d17r			; -0.401345
	DD	0bf38d9b5r			; -0.722072
	DD	0bf1041abr			; -0.563502
	DD	0bda479fbr			; -0.0803108
	DD	0bde261ear			; -0.110538
	DD	0bef6419cr			; -0.480969
	DD	03e8d7b6cr			; 0.276332
	DD	03edbab84r			; 0.429043
	DD	000000000r			; 0
	DD	0be99f8f6r			; -0.300728
	DD	0bf742658r			; -0.95371
	DD	03da479fbr			; 0.0803108
	DD	0bde261ear			; -0.110538
	DD	0bef6419cr			; -0.480969
	DD	03e650928r			; 0.223668
	DD	03edbab84r			; 0.429043
	DD	000000000r			; 0
	DD	0be99f8f6r			; -0.300728
	DD	0bf742658r			; -0.95371
	DD	000000000r			; 0
	DD	0be6ec6c9r			; -0.23318
	DD	0bee274cer			; -0.442297
	DD	03e800000r			; 0.25
	DD	03eb0ede5r			; 0.345565
	DD	000000000r			; 0
	DD	0be99f8f7r			; -0.300728
	DD	0bf742659r			; -0.95371
	DD	000000000r			; 0
	DD	0be6ec6c9r			; -0.23318
	DD	0bee274cer			; -0.442297
	DD	03e800000r			; 0.25
	DD	03eb0ede5r			; 0.345565
	DD	03e253758r			; 0.161344
	DD	0bf05bca7r			; -0.52241
	DD	0bf5658b2r			; -0.837291
	DD	03e1e377ar			; 0.154509
	DD	0be59c441r			; -0.212663
	DD	0bed9c441r			; -0.425325
	DD	03e473633r			; 0.194543
	DD	03eb866d8r			; 0.36016
	DD	03e253759r			; 0.161344
	DD	0bf05bca8r			; -0.52241
	DD	0bf5658b3r			; -0.837291
	DD	03d9392a1r			; 0.072057
	DD	0beaa2adbr			; -0.332358
	DD	0bebbaa1ar			; -0.366532
	DD	03e605d32r			; 0.219106
	DD	03e897fb2r			; 0.268552
	DD	03e253758r			; 0.161344
	DD	0bf05bca7r			; -0.52241
	DD	0bf5658b2r			; -0.837291
	DD	0be1e377ar			; -0.154509
	DD	0be59c441r			; -0.212663
	DD	0bed9c441r			; -0.425325
	DD	03e9c64e6r			; 0.305457
	DD	03eb866d8r			; 0.36016
	DD	0be253758r			; -0.161344
	DD	0bf05bca7r			; -0.52241
	DD	0bf5658b4r			; -0.837291
	DD	000000000r			; 0
	DD	0be6ec6c9r			; -0.23318
	DD	0bee274cer			; -0.442297
	DD	03e800000r			; 0.25
	DD	03eb0ede5r			; 0.345565
	DD	0be253757r			; -0.161344
	DD	0bf05bca6r			; -0.52241
	DD	0bf5658b3r			; -0.837291
	DD	0bd9392a2r			; -0.072057
	DD	0beaa2adcr			; -0.332358
	DD	0bebbaa1ar			; -0.366532
	DD	03e8fd167r			; 0.280894
	DD	03e897fb1r			; 0.268552
	DD	0be253757r			; -0.161344
	DD	0bf05bca6r			; -0.52241
	DD	0bf5658b3r			; -0.837291
	DD	03d9392a1r			; 0.072057
	DD	0beaa2adbr			; -0.332358
	DD	0bebbaa1ar			; -0.366532
	DD	03e605d32r			; 0.219106
	DD	03e897fb2r			; 0.268552
	DD	03e96c077r			; 0.294437
	DD	0bf34bb7ar			; -0.705986
	DD	0bf24e510r			; -0.64412
	DD	03e5e26b0r			; 0.216944
	DD	0be98e1e6r			; -0.298598
	DD	0beacb321r			; -0.337304
	DD	03e22d9a6r			; 0.159033
	DD	03e97b227r			; 0.296281
	DD	03e96c078r			; 0.294437
	DD	0bf34bb7br			; -0.705986
	DD	0bf24e511r			; -0.64412
	DD	03e0be9b0r			; 0.136634
	DD	0bed17a63r			; -0.409137
	DD	0be8176e5r			; -0.25286
	DD	03e2f42e9r			; 0.171154
	DD	03e479c15r			; 0.194931
	DD	03e96c077r			; 0.294437
	DD	0bf34bb7br			; -0.705986
	DD	0bf24e510r			; -0.64412
	DD	0bd9392a2r			; -0.072057
	DD	0beaa2adcr			; -0.332358
	DD	0bebbaa1ar			; -0.366532
	DD	03e8fd167r			; 0.280894
	DD	03e897fb1r			; 0.268552
	DD	03430a61cr			; 1.64517e-07
	DD	0bf3e9656r			; -0.744481
	DD	0bf2aeaabr			; -0.667643
	DD	03d9392a1r			; 0.072057
	DD	0beaa2adbr			; -0.332358
	DD	0bebbaa1ar			; -0.366532
	DD	03e605d32r			; 0.219106
	DD	03e897fb2r			; 0.268552
	DD	03430a61cr			; 1.64517e-07
	DD	0bf3e9656r			; -0.744481
	DD	0bf2aeaaar			; -0.667643
	DD	000000000r			; 0
	DD	0bed9c444r			; -0.425326
	DD	0be86964ar			; -0.262865
	DD	03e800000r			; 0.25
	DD	03e346fe3r			; 0.176208
	DD	03430a61cr			; 1.64517e-07
	DD	0bf3e9656r			; -0.744481
	DD	0bf2aeaaar			; -0.667643
	DD	0be5e26b0r			; -0.216944
	DD	0be98e1e6r			; -0.298598
	DD	0beacb321r			; -0.337304
	DD	03eae932cr			; 0.340967
	DD	03e97b227r			; 0.296281
	DD	0be96c07dr			; -0.294437
	DD	0bf34bb7br			; -0.705986
	DD	0bf24e50er			; -0.64412
	DD	0bd9392a2r			; -0.072057
	DD	0beaa2adcr			; -0.332358
	DD	0bebbaa1ar			; -0.366532
	DD	03e8fd167r			; 0.280894
	DD	03e897fb1r			; 0.268552
	DD	0be96c07er			; -0.294437
	DD	0bf34bb7cr			; -0.705986
	DD	0bf24e50fr			; -0.64412
	DD	0be0be9b0r			; -0.136634
	DD	0bed17a63r			; -0.409137
	DD	0be8176e5r			; -0.25286
	DD	03ea85e8cr			; 0.328846
	DD	03e479c15r			; 0.194931
	DD	0be96c07er			; -0.294437
	DD	0bf34bb7dr			; -0.705986
	DD	0bf24e50fr			; -0.64412
	DD	0be051074r			; -0.129946
	DD	03d2cf0ebr			; 0.0422219
	DD	0bef6419cr			; -0.480969
	DD	03e95809er			; 0.291997
	DD	03f06e3aar			; 0.526911
	DD	0be253c79r			; -0.161363
	DD	0bd56c100r			; -0.0524302
	DD	0bf7c49d0r			; -0.985501
	DD	000000000r			; 0
	DD	000000000r			; 0
	DD	0bf000000r			; -0.5
	DD	03e800000r			; 0.25
	DD	03f000000r			; 0.5
	DD	0be253c7ar			; -0.161364
	DD	0bd56c101r			; -0.0524302
	DD	0bf7c49d1r			; -0.985501
	DD	0bda479fbr			; -0.0803108
	DD	0bde261ear			; -0.110538
	DD	0bef6419cr			; -0.480969
	DD	03e8d7b6cr			; 0.276332
	DD	03edbab84r			; 0.429043
	DD	0be253c79r			; -0.161363
	DD	0bd56c101r			; -0.0524302
	DD	0bf7c49d1r			; -0.985501
	DD	0be631708r			; -0.221768
	DD	0bd939266r			; -0.0720566
	DD	0bee274cfr			; -0.442297
	DD	03ea5df61r			; 0.32397
	DD	03ee86e60r			; 0.453967
	DD	0bea405e2r			; -0.320357
	DD	0be86b3a4r			; -0.263089
	DD	0bf68f7ber			; -0.91003
	DD	0bda479fbr			; -0.0803108
	DD	0bde261ear			; -0.110538
	DD	0bef6419cr			; -0.480969
	DD	03e8d7b6cr			; 0.276332
	DD	03edbab84r			; 0.429043
	DD	0bea405e2r			; -0.320357
	DD	0be86b3a3r			; -0.263089
	DD	0bf68f7bfr			; -0.91003
	DD	0be1e377ar			; -0.154509
	DD	0be59c441r			; -0.212663
	DD	0bed9c441r			; -0.425325
	DD	03e9c64e6r			; 0.305457
	DD	03eb866d8r			; 0.36016
	DD	0bea405e2r			; -0.320357
	DD	0be86b3a4r			; -0.263089
	DD	0bf68f7bfr			; -0.91003
	DD	0be7fffffr			; -0.25
	DD	03da65bf1r			; 0.0812301
	DD	0bed9c440r			; -0.425325
	DD	03eab4d31r			; 0.334573
	DD	03f0d4c21r			; 0.551943
	DD	0bed3df85r			; -0.413815
	DD	03cc90dbdr			; 0.0245427
	DD	0bf68f7bdr			; -0.91003
	DD	0be051074r			; -0.129946
	DD	03d2cf0ebr			; 0.0422219
	DD	0bef6419cr			; -0.480969
	DD	03e95809er			; 0.291997
	DD	03f06e3aar			; 0.526911
	DD	0bed3df86r			; -0.413815
	DD	03cc90dber			; 0.0245427
	DD	0bf68f7ber			; -0.91003
	DD	0be631708r			; -0.221768
	DD	0bd939266r			; -0.0720566
	DD	0bee274cfr			; -0.442297
	DD	03ea5df61r			; 0.32397
	DD	03ee86e60r			; 0.453967
	DD	0bed3df86r			; -0.413815
	DD	03cc90dber			; 0.0245427
	DD	0bf68f7ber			; -0.91003
	DD	0be96702dr			; -0.293825
	DD	0be2f581dr			; -0.171235
	DD	0bebbaa1ar			; -0.366532
	DD	03eb7105fr			; 0.357547
	DD	03ec70881r			; 0.388737
	DD	0beea4493r			; -0.457554
	DD	0bee762a3r			; -0.451924
	DD	0bf4409b3r			; -0.765773
	DD	0be1e377ar			; -0.154509
	DD	0be59c441r			; -0.212663
	DD	0bed9c441r			; -0.425325
	DD	03e9c64e6r			; 0.305457
	DD	03eb866d8r			; 0.36016
	DD	0beea4494r			; -0.457554
	DD	0bee762a3r			; -0.451924
	DD	0bf4409b3r			; -0.765773
	DD	0be5e26b0r			; -0.216944
	DD	0be98e1e6r			; -0.298598
	DD	0beacb321r			; -0.337304
	DD	03eae932cr			; 0.340967
	DD	03e97b227r			; 0.296281
	DD	0beea4493r			; -0.457554
	DD	0bee762a3r			; -0.451924
	DD	0bf4409b3r			; -0.765773
	DD	0bead3d4cr			; -0.338358
	DD	0bd0bf9f1r			; -0.0341739
	DD	0bebbaa1ar			; -0.366532
	DD	03ebcbea8r			; 0.368642
	DD	03ef4da33r			; 0.478227
	DD	0bf13cd3dr			; -0.57735
	DD	0be40183fr			; -0.187592
	DD	0bf4b6e77r			; -0.794654
	DD	0be631708r			; -0.221768
	DD	0bd939266r			; -0.0720566
	DD	0bee274cfr			; -0.442297
	DD	03ea5df61r			; 0.32397
	DD	03ee86e60r			; 0.453967
	DD	0bf13cd3dr			; -0.57735
	DD	0be40183fr			; -0.187592
	DD	0bf4b6e77r			; -0.794654
	DD	0be96702dr			; -0.293825
	DD	0be2f581dr			; -0.171235
	DD	0bebbaa1ar			; -0.366532
	DD	03eb7105fr			; 0.357547
	DD	03ec70881r			; 0.388737
	DD	0bf13cd3dr			; -0.57735
	DD	0be40183fr			; -0.187592
	DD	0bf4b6e77r			; -0.794654
	DD	0beb3b959r			; -0.351023
	DD	03de99579r			; 0.114055
	DD	0beacb320r			; -0.337304
	DD	03ec19fbbr			; 0.378172
	DD	03f12c0ccr			; 0.573254
	DD	0bf22c409r			; -0.635804
	DD	03dc5fba9r			; 0.0966714
	DD	0bf4409b2r			; -0.765773
	DD	0be7fffffr			; -0.25
	DD	03da65bf1r			; 0.0812301
	DD	0bed9c440r			; -0.425325
	DD	03eab4d31r			; 0.334573
	DD	03f0d4c21r			; 0.551943
	DD	0bf22c40ar			; -0.635804
	DD	03dc5fbabr			; 0.0966714
	DD	0bf4409b3r			; -0.765773
	DD	0bead3d4cr			; -0.338358
	DD	0bd0bf9f1r			; -0.0341739
	DD	0bebbaa1ar			; -0.366532
	DD	03ebcbea8r			; 0.368642
	DD	03ef4da33r			; 0.478227
	DD	0bf22c409r			; -0.635804
	DD	03dc5fbabr			; 0.0966714
	DD	0bf4409b3r			; -0.765773
	DD	0beb19b96r			; -0.34689
	DD	0be8343c9r			; -0.256377
	DD	0be8176e5r			; -0.25286
	DD	03eccac2er			; 0.399751
	DD	03ea8419fr			; 0.328626
	DD	0bf100db0r			; -0.562709
	DD	0bf1ad668r			; -0.604834
	DD	0bf1041abr			; -0.563502
	DD	0be5e26b0r			; -0.216944
	DD	0be98e1e6r			; -0.298598
	DD	0beacb321r			; -0.337304
	DD	03eae932cr			; 0.340967
	DD	03e97b227r			; 0.296281
	DD	0bf100dafr			; -0.562709
	DD	0bf1ad668r			; -0.604834
	DD	0bf1041abr			; -0.563502
	DD	0be869652r			; -0.262866
	DD	0beb93e4er			; -0.361803
	DD	0be64f923r			; -0.223607
	DD	03ec68fdar			; 0.387816
	DD	03e784d6dr			; 0.242483
	DD	0bf100dafr			; -0.562709
	DD	0bf1ad668r			; -0.604834
	DD	0bf1041abr			; -0.563502
	DD	0becf1bc1r			; -0.404509
	DD	0be06964br			; -0.131433
	DD	0be86964br			; -0.262865
	DD	03ed10aber			; 0.408285
	DD	03ed4a676r			; 0.415332
	DD	0bf33c53fr			; -0.702228
	DD	0bebeae7fr			; -0.372425
	DD	0bf1b5589r			; -0.606774
	DD	0be96702dr			; -0.293825
	DD	0be2f581dr			; -0.171235
	DD	0bebbaa1ar			; -0.366532
	DD	03eb7105fr			; 0.357547
	DD	03ec70881r			; 0.388737
	DD	0bf33c53fr			; -0.702228
	DD	0bebeae7er			; -0.372425
	DD	0bf1b5589r			; -0.606774
	DD	0beb19b96r			; -0.34689
	DD	0be8343c9r			; -0.256377
	DD	0be8176e5r			; -0.25286
	DD	03eccac2er			; 0.399751
	DD	03ea8419fr			; 0.328626
	DD	0bf33c53fr			; -0.702228
	DD	0bebeae80r			; -0.372425
	DD	0bf1b558ar			; -0.606774
	DD	0bedcd7dcr			; -0.431334
	DD	03b667124r			; 0.00351627
	DD	0be8176e5r			; -0.25286
	DD	03ed4caf9r			; 0.415611
	DD	03f0092b4r			; 0.502239
	DD	0bf497a35r			; -0.787021
	DD	0bde445afr			; -0.111461
	DD	0bf1b5587r			; -0.606774
	DD	0bead3d4cr			; -0.338358
	DD	0bd0bf9f1r			; -0.0341739
	DD	0bebbaa1ar			; -0.366532
	DD	03ebcbea8r			; 0.368642
	DD	03ef4da33r			; 0.478227
	DD	0bf497a35r			; -0.787021
	DD	0bde445afr			; -0.111461
	DD	0bf1b5587r			; -0.606774
	DD	0becf1bc1r			; -0.404509
	DD	0be06964br			; -0.131433
	DD	0be86964br			; -0.262865
	DD	03ed10aber			; 0.408285
	DD	03ed4a676r			; 0.415332
	DD	0bf497a35r			; -0.787021
	DD	0bde445aer			; -0.111461
	DD	0bf1b5588r			; -0.606774
	DD	0bed9c441r			; -0.425325
	DD	03e0d8379r			; 0.138197
	DD	0be64f921r			; -0.223607
	DD	03ed88efcr			; 0.422966
	DD	03f16d1d6r			; 0.589139
	DD	0bf4f8d8ar			; -0.810753
	DD	03e226018r			; 0.15857
	DD	0bf1041acr			; -0.563502
	DD	0beb3b959r			; -0.351023
	DD	03de99579r			; 0.114055
	DD	0beacb320r			; -0.337304
	DD	03ec19fbbr			; 0.378172
	DD	03f12c0ccr			; 0.573254
	DD	0bf4f8d89r			; -0.810753
	DD	03e226015r			; 0.15857
	DD	0bf1041abr			; -0.563502
	DD	0bedcd7dcr			; -0.431334
	DD	03b667124r			; 0.00351627
	DD	0be8176e5r			; -0.25286
	DD	03ed4caf9r			; 0.415611
	DD	03f0092b4r			; 0.502239
	DD	0bf4f8d89r			; -0.810753
	DD	03e226017r			; 0.15857
	DD	0bf1041abr			; -0.563502
	DD	0be051074r			; -0.129946
	DD	03d2cf0ebr			; 0.0422219
	DD	0bef6419cr			; -0.480969
	DD	03e95809er			; 0.291997
	DD	03f06e3aar			; 0.526911
	DD	0be926fbbr			; -0.286009
	DD	0bdbe51fbr			; -0.0929298
	DD	0bf74265ar			; -0.95371
	DD	0bda479fbr			; -0.0803108
	DD	0bde261ear			; -0.110538
	DD	0bef6419cr			; -0.480969
	DD	03e8d7b6cr			; 0.276332
	DD	03edbab84r			; 0.429043
	DD	0be926fbbr			; -0.286009
	DD	0bdbe51fbr			; -0.0929298
	DD	0bf74265ar			; -0.95371
	DD	0be631708r			; -0.221768
	DD	0bd939266r			; -0.0720566
	DD	0bee274cfr			; -0.442297
	DD	03ea5df61r			; 0.32397
	DD	03ee86e60r			; 0.453967
	DD	0be926fbbr			; -0.286009
	DD	0bdbe51fbr			; -0.0929298
	DD	0bf742659r			; -0.95371
	DD	0be631708r			; -0.221768
	DD	0bd939266r			; -0.0720566
	DD	0bee274cfr			; -0.442297
	DD	03ea5df61r			; 0.32397
	DD	03ee86e60r			; 0.453967
	DD	0bee4db09r			; -0.446984
	DD	0bea13813r			; -0.314881
	DD	0bf5658afr			; -0.837291
	DD	0be1e377ar			; -0.154509
	DD	0be59c441r			; -0.212663
	DD	0bed9c441r			; -0.425325
	DD	03e9c64e6r			; 0.305457
	DD	03eb866d8r			; 0.36016
	DD	0bee4db09r			; -0.446984
	DD	0bea13812r			; -0.314881
	DD	0bf5658aer			; -0.837291
	DD	0be96702dr			; -0.293825
	DD	0be2f581dr			; -0.171235
	DD	0bebbaa1ar			; -0.366532
	DD	03eb7105fr			; 0.357547
	DD	03ec70881r			; 0.388737
	DD	0bee4db09r			; -0.446984
	DD	0bea13813r			; -0.314881
	DD	0bf5658afr			; -0.837291
	DD	0be7fffffr			; -0.25
	DD	03da65bf1r			; 0.0812301
	DD	0bed9c440r			; -0.425325
	DD	03eab4d31r			; 0.334573
	DD	03f0d4c21r			; 0.551943
	DD	0bf0bf480r			; -0.5467
	DD	0bc02d74fr			; -0.0079859
	DD	0bf5658b0r			; -0.837291
	DD	0be631708r			; -0.221768
	DD	0bd939266r			; -0.0720566
	DD	0bee274cfr			; -0.442297
	DD	03ea5df61r			; 0.32397
	DD	03ee86e60r			; 0.453967
	DD	0bf0bf480r			; -0.5467
	DD	0bc02d74fr			; -0.0079859
	DD	0bf5658b1r			; -0.837291
	DD	0bead3d4cr			; -0.338358
	DD	0bd0bf9f1r			; -0.0341739
	DD	0bebbaa1ar			; -0.366532
	DD	03ebcbea8r			; 0.368642
	DD	03ef4da33r			; 0.478227
	DD	0bf0bf480r			; -0.5467
	DD	0bc02d74fr			; -0.0079859
	DD	0bf5658b0r			; -0.837291
	DD	0be96702dr			; -0.293825
	DD	0be2f581dr			; -0.171235
	DD	0bebbaa1ar			; -0.366532
	DD	03eb7105fr			; 0.357547
	DD	03ec70881r			; 0.388737
	DD	0bf149821r			; -0.580446
	DD	0beff1276r			; -0.498188
	DD	0bf24e512r			; -0.64412
	DD	0be5e26b0r			; -0.216944
	DD	0be98e1e6r			; -0.298598
	DD	0beacb321r			; -0.337304
	DD	03eae932cr			; 0.340967
	DD	03e97b227r			; 0.296281
	DD	0bf149822r			; -0.580446
	DD	0beff1276r			; -0.498188
	DD	0bf24e513r			; -0.64412
	DD	0beb19b96r			; -0.34689
	DD	0be8343c9r			; -0.256377
	DD	0be8176e5r			; -0.25286
	DD	03eccac2er			; 0.399751
	DD	03ea8419fr			; 0.328626
	DD	0bf149821r			; -0.580446
	DD	0beff1274r			; -0.498188
	DD	0bf24e512r			; -0.64412
	DD	0bead3d4cr			; -0.338358
	DD	0bd0bf9f1r			; -0.0341739
	DD	0bebbaa1ar			; -0.366532
	DD	03ebcbea8r			; 0.368642
	DD	03ef4da33r			; 0.478227
	DD	0bf35425br			; -0.708044
	DD	0be6b9426r			; -0.230057
	DD	0bf2aeaafr			; -0.667643
	DD	0be96702dr			; -0.293825
	DD	0be2f581dr			; -0.171235
	DD	0bebbaa1ar			; -0.366532
	DD	03eb7105fr			; 0.357547
	DD	03ec70881r			; 0.388737
	DD	0bf35425ar			; -0.708044
	DD	0be6b9424r			; -0.230057
	DD	0bf2aeaaer			; -0.667643
	DD	0becf1bc1r			; -0.404509
	DD	0be06964br			; -0.131433
	DD	0be86964br			; -0.262865
	DD	03ed10aber			; 0.408285
	DD	03ed4a676r			; 0.415332
	DD	0bf35425ar			; -0.708044
	DD	0be6b9424r			; -0.230057
	DD	0bf2aeaaer			; -0.667643
	DD	0beb3b959r			; -0.351023
	DD	03de99579r			; 0.114055
	DD	0beacb320r			; -0.337304
	DD	03ec19fbbr			; 0.378172
	DD	03f12c0ccr			; 0.573254
	DD	0bf432ddar			; -0.762418
	DD	03d7d6672r			; 0.0618653
	DD	0bf24e511r			; -0.64412
	DD	0bead3d4cr			; -0.338358
	DD	0bd0bf9f1r			; -0.0341739
	DD	0bebbaa1ar			; -0.366532
	DD	03ebcbea8r			; 0.368642
	DD	03ef4da33r			; 0.478227
	DD	0bf432ddar			; -0.762418
	DD	03d7d6673r			; 0.0618653
	DD	0bf24e511r			; -0.64412
	DD	0bedcd7dcr			; -0.431334
	DD	03b667124r			; 0.00351627
	DD	0be8176e5r			; -0.25286
	DD	03ed4caf9r			; 0.415611
	DD	03f0092b4r			; 0.502239
	DD	0bf432ddar			; -0.762418
	DD	03d7d6672r			; 0.0618653
	DD	0bf24e511r			; -0.64412
	DD	000000000r			; 0
	DD	03e0be97fr			; 0.136633
	DD	0bef6419cr			; -0.480969
	DD	03e800000r			; 0.25
	DD	03f168dfar			; 0.588104
	DD	0bdcc3e39r			; -0.0997281
	DD	03e0c8eebr			; 0.137264
	DD	0bf7c49d1r			; -0.985501
	DD	000000000r			; 0
	DD	000000000r			; 0
	DD	0bf000000r			; -0.5
	DD	03e800000r			; 0.25
	DD	03f000000r			; 0.5
	DD	0bdcc3e38r			; -0.099728
	DD	03e0c8eear			; 0.137264
	DD	0bf7c49d0r			; -0.985501
	DD	0be051074r			; -0.129946
	DD	03d2cf0ebr			; 0.0422219
	DD	0bef6419cr			; -0.480969
	DD	03e95809er			; 0.291997
	DD	03f06e3aar			; 0.526911
	DD	0bdcc3e3ar			; -0.0997281
	DD	03e0c8eebr			; 0.137264
	DD	0bf7c49d1r			; -0.985501
	DD	0be0c596br			; -0.13706
	DD	03e412ca1r			; 0.188647
	DD	0bee274cdr			; -0.442297
	DD	03e987c9cr			; 0.297826
	DD	03f1f8672r			; 0.623145
	DD	0beb2cb7br			; -0.349209
	DD	03e64bd84r			; 0.223379
	DD	0bf68f7ber			; -0.91003
	DD	0be051074r			; -0.129946
	DD	03d2cf0ebr			; 0.0422219
	DD	0bef6419cr			; -0.480969
	DD	03e95809er			; 0.291997
	DD	03f06e3aar			; 0.526911
	DD	0beb2cb7br			; -0.349209
	DD	03e64bd85r			; 0.223379
	DD	0bf68f7ber			; -0.91003
	DD	0be7fffffr			; -0.25
	DD	03da65bf1r			; 0.0812301
	DD	0bed9c440r			; -0.425325
	DD	03eab4d31r			; 0.334573
	DD	03f0d4c21r			; 0.551943
	DD	0beb2cb7br			; -0.349209
	DD	03e64bd85r			; 0.223379
	DD	0bf68f7bfr			; -0.91003
	DD	000000000r			; 0
	DD	03e869652r			; 0.262866
	DD	0bed9c440r			; -0.425325
	DD	03e800000r			; 0.25
	DD	03f2d1bfcr			; 0.676208
	DD	0bdd61643r			; -0.104535
	DD	03ecd62e8r			; 0.401145
	DD	0bf68f7bfr			; -0.91003
	DD	000000000r			; 0
	DD	03e0be97fr			; 0.136633
	DD	0bef6419cr			; -0.480969
	DD	03e800000r			; 0.25
	DD	03f168dfar			; 0.588104
	DD	0bdd61644r			; -0.104535
	DD	03ecd62e9r			; 0.401145
	DD	0bf68f7ber			; -0.91003
	DD	0be0c596br			; -0.13706
	DD	03e412ca1r			; 0.188647
	DD	0bee274cdr			; -0.442297
	DD	03e987c9cr			; 0.297826
	DD	03f1f8672r			; 0.623145
	DD	0bdd61643r			; -0.104535
	DD	03ecd62e9r			; 0.401145
	DD	0bf68f7ber			; -0.91003
	DD	0be81de7dr			; -0.253651
	DD	03e67f75br			; 0.22653
	DD	0bebbaa19r			; -0.366532
	DD	03eb1542er			; 0.346345
	DD	03f265099r			; 0.649667
	DD	0bf123a06r			; -0.571198
	DD	03e974cc3r			; 0.295508
	DD	0bf4409b2r			; -0.765773
	DD	0be7fffffr			; -0.25
	DD	03da65bf1r			; 0.0812301
	DD	0bed9c440r			; -0.425325
	DD	03eab4d31r			; 0.334573
	DD	03f0d4c21r			; 0.551943
	DD	0bf123a07r			; -0.571198
	DD	03e974cc4r			; 0.295508
	DD	0bf4409b3r			; -0.765773
	DD	0beb3b959r			; -0.351023
	DD	03de99579r			; 0.114055
	DD	0beacb320r			; -0.337304
	DD	03ec19fbbr			; 0.378172
	DD	03f12c0ccr			; 0.573254
	DD	0bf123a06r			; -0.571198
	DD	03e974cc3r			; 0.295508
	DD	0bf4409b2r			; -0.765773
	DD	0be0c596dr			; -0.13706
	DD	03e9f5a88r			; 0.311238
	DD	0bebbaa17r			; -0.366532
	DD	03e9d28c7r			; 0.306952
	DD	03f36c05fr			; 0.713873
	DD	0beb6b155r			; -0.356822
	DD	03efb748fr			; 0.491124
	DD	0bf4b6e79r			; -0.794654
	DD	0be0c596br			; -0.13706
	DD	03e412ca1r			; 0.188647
	DD	0bee274cdr			; -0.442297
	DD	03e987c9cr			; 0.297826
	DD	03f1f8672r			; 0.623145
	DD	0beb6b155r			; -0.356822
	DD	03efb7491r			; 0.491124
	DD	0bf4b6e79r			; -0.794654
	DD	0be81de7dr			; -0.253651
	DD	03e67f75br			; 0.22653
	DD	0bebbaa19r			; -0.366532
	DD	03eb1542er			; 0.346345
	DD	03f265099r			; 0.649667
	DD	0beb6b156r			; -0.356822
	DD	03efb7492r			; 0.491124
	DD	0bf4b6e7br			; -0.794655
	DD	000000000r			; 0
	DD	03ebcf91ar			; 0.369088
	DD	0beacb31fr			; -0.337304
	DD	03e800000r			; 0.25
	DD	03f43a9fdr			; 0.764313
	DD	0bdd61633r			; -0.104535
	DD	03f22726dr			; 0.634558
	DD	0bf4409afr			; -0.765773
	DD	000000000r			; 0
	DD	03e869652r			; 0.262866
	DD	0bed9c440r			; -0.425325
	DD	03e800000r			; 0.25
	DD	03f2d1bfcr			; 0.676208
	DD	0bdd61634r			; -0.104535
	DD	03f22726er			; 0.634559
	DD	0bf4409b0r			; -0.765773
	DD	0be0c596dr			; -0.13706
	DD	03e9f5a88r			; 0.311238
	DD	0bebbaa17r			; -0.366532
	DD	03e9d28c7r			; 0.306952
	DD	03f36c05fr			; 0.713873
	DD	0bdd61634r			; -0.104535
	DD	03f22726fr			; 0.634559
	DD	0bf4409b0r			; -0.765773
	DD	0beb3b959r			; -0.351023
	DD	03e805a1fr			; 0.250688
	DD	0be8176e4r			; -0.25286
	DD	03ecd2195r			; 0.400647
	DD	03f2acbcfr			; 0.667172
	DD	0bf3fc62fr			; -0.749118
	DD	03eb24fa7r			; 0.348264
	DD	0bf1041adr			; -0.563502
	DD	0beb3b959r			; -0.351023
	DD	03de99579r			; 0.114055
	DD	0beacb320r			; -0.337304
	DD	03ec19fbbr			; 0.378172
	DD	03f12c0ccr			; 0.573254
	DD	0bf3fc62fr			; -0.749118
	DD	03eb24fa7r			; 0.348264
	DD	0bf1041acr			; -0.563502
	DD	0bed9c441r			; -0.425325
	DD	03e0d8379r			; 0.138197
	DD	0be64f921r			; -0.223607
	DD	03ed88efcr			; 0.422966
	DD	03f16d1d6r			; 0.589139
	DD	0bf3fc630r			; -0.749118
	DD	03eb24fa7r			; 0.348264
	DD	0bf1041adr			; -0.563502
	DD	0be7fffffr			; -0.25
	DD	03eb02d4fr			; 0.344096
	DD	0be869648r			; -0.262865
	DD	03ebdf4d0r			; 0.371008
	DD	03f3dd92dr			; 0.741595
	DD	0bf123a06r			; -0.571198
	DD	03f0d8296r			; 0.552774
	DD	0bf1b5583r			; -0.606774
	DD	0be81de7dr			; -0.253651
	DD	03e67f75br			; 0.22653
	DD	0bebbaa19r			; -0.366532
	DD	03eb1542er			; 0.346345
	DD	03f265099r			; 0.649667
	DD	0bf123a07r			; -0.571198
	DD	03f0d8297r			; 0.552774
	DD	0bf1b5583r			; -0.606774
	DD	0beb3b959r			; -0.351023
	DD	03e805a1fr			; 0.250688
	DD	0be8176e4r			; -0.25286
	DD	03ecd2195r			; 0.400647
	DD	03f2acbcfr			; 0.667172
	DD	0bf123a06r			; -0.571198
	DD	03f0d8296r			; 0.552774
	DD	0bf1b5583r			; -0.606774
	DD	0be051077r			; -0.129946
	DD	03ed29738r			; 0.41131
	DD	0be8176e3r			; -0.25286
	DD	03ea6aec5r			; 0.325552
	DD	03f4eb791r			; 0.807489
	DD	0beb2cb7er			; -0.349209
	DD	03f36cc82r			; 0.714058
	DD	0bf1b5586r			; -0.606774
	DD	0be0c596dr			; -0.13706
	DD	03e9f5a88r			; 0.311238
	DD	0bebbaa17r			; -0.366532
	DD	03e9d28c7r			; 0.306952
	DD	03f36c05fr			; 0.713873
	DD	0beb2cb7er			; -0.349209
	DD	03f36cc82r			; 0.714058
	DD	0bf1b5586r			; -0.606774
	DD	0be7fffffr			; -0.25
	DD	03eb02d4fr			; 0.344096
	DD	0be869648r			; -0.262865
	DD	03ebdf4d0r			; 0.371008
	DD	03f3dd92dr			; 0.741595
	DD	0beb2cb7fr			; -0.349209
	DD	03f36cc83r			; 0.714058
	DD	0bf1b5586r			; -0.606774
	DD	000000000r			; 0
	DD	03ee4f931r			; 0.447214
	DD	0be64f91fr			; -0.223607
	DD	03e800000r			; 0.25
	DD	03f5a37f9r			; 0.852417
	DD	0bdcc3e36r			; -0.099728
	DD	03f51f04fr			; 0.820073
	DD	0bf1041aar			; -0.563502
	DD	000000000r			; 0
	DD	03ebcf91ar			; 0.369088
	DD	0beacb31fr			; -0.337304
	DD	03e800000r			; 0.25
	DD	03f43a9fdr			; 0.764313
	DD	0bdcc3e38r			; -0.099728
	DD	03f51f04fr			; 0.820073
	DD	0bf1041aar			; -0.563502
	DD	0be051077r			; -0.129946
	DD	03ed29738r			; 0.41131
	DD	0be8176e3r			; -0.25286
	DD	03ea6aec5r			; 0.325552
	DD	03f4eb791r			; 0.807489
	DD	0bdcc3e38r			; -0.099728
	DD	03f51f050r			; 0.820073
	DD	0bf1041abr			; -0.563502
	DD	000000000r			; 0
	DD	03e0be97fr			; 0.136633
	DD	0bef6419cr			; -0.480969
	DD	03e800000r			; 0.25
	DD	03f168dfar			; 0.588104
	DD	0be35016er			; -0.176763
	DD	03e792208r			; 0.243294
	DD	0bf742656r			; -0.95371
	DD	0be051074r			; -0.129946
	DD	03d2cf0ebr			; 0.0422219
	DD	0bef6419cr			; -0.480969
	DD	03e95809er			; 0.291997
	DD	03f06e3aar			; 0.526911
	DD	0be35016er			; -0.176763
	DD	03e792208r			; 0.243294
	DD	0bf742656r			; -0.95371
	DD	0be0c596br			; -0.13706
	DD	03e412ca1r			; 0.188647
	DD	0bee274cdr			; -0.442297
	DD	03e987c9cr			; 0.297826
	DD	03f1f8672r			; 0.623145
	DD	0be35016fr			; -0.176763
	DD	03e792208r			; 0.243294
	DD	0bf742658r			; -0.95371
	DD	0be0c596br			; -0.13706
	DD	03e412ca1r			; 0.188647
	DD	0bee274cdr			; -0.442297
	DD	03e987c9cr			; 0.297826
	DD	03f1f8672r			; 0.623145
	DD	0bee00c6cr			; -0.437595
	DD	03ea7d5car			; 0.327803
	DD	0bf5658b3r			; -0.837291
	DD	0be7fffffr			; -0.25
	DD	03da65bf1r			; 0.0812301
	DD	0bed9c440r			; -0.425325
	DD	03eab4d31r			; 0.334573
	DD	03f0d4c21r			; 0.551943
	DD	0bee00c6cr			; -0.437595
	DD	03ea7d5c9r			; 0.327803
	DD	0bf5658b2r			; -0.837291
	DD	0be81de7dr			; -0.253651
	DD	03e67f75br			; 0.22653
	DD	0bebbaa19r			; -0.366532
	DD	03eb1542er			; 0.346345
	DD	03f265099r			; 0.649667
	DD	0bee00c6cr			; -0.437595
	DD	03ea7d5c9r			; 0.327803
	DD	0bf5658b3r			; -0.837291
	DD	000000000r			; 0
	DD	03e869652r			; 0.262866
	DD	0bed9c440r			; -0.425325
	DD	03e800000r			; 0.25
	DD	03f2d1bfcr			; 0.676208
	DD	0be34c592r			; -0.176535
	DD	03f047934r			; 0.517474
	DD	0bf5658aer			; -0.837291
	DD	0be0c596br			; -0.13706
	DD	03e412ca1r			; 0.188647
	DD	0bee274cdr			; -0.442297
	DD	03e987c9cr			; 0.297826
	DD	03f1f8672r			; 0.623145
	DD	0be34c593r			; -0.176535
	DD	03f047934r			; 0.517474
	DD	0bf5658aer			; -0.837291
	DD	0be0c596dr			; -0.13706
	DD	03e9f5a88r			; 0.311238
	DD	0bebbaa17r			; -0.366532
	DD	03e9d28c7r			; 0.306952
	DD	03f36c05fr			; 0.713873
	DD	0be34c593r			; -0.176535
	DD	03f047934r			; 0.517474
	DD	0bf5658aer			; -0.837291
	DD	0be81de7dr			; -0.253651
	DD	03e67f75br			; 0.22653
	DD	0bebbaa19r			; -0.366532
	DD	03eb1542er			; 0.346345
	DD	03f265099r			; 0.649667
	DD	0bf273655r			; -0.653173
	DD	03ecbd247r			; 0.398089
	DD	0bf24e50dr			; -0.64412
	DD	0beb3b959r			; -0.351023
	DD	03de99579r			; 0.114055
	DD	0beacb320r			; -0.337304
	DD	03ec19fbbr			; 0.378172
	DD	03f12c0ccr			; 0.573254
	DD	0bf273655r			; -0.653173
	DD	03ecbd246r			; 0.398089
	DD	0bf24e50dr			; -0.64412
	DD	0beb3b959r			; -0.351023
	DD	03e805a1fr			; 0.250688
	DD	0be8176e4r			; -0.25286
	DD	03ecd2195r			; 0.400647
	DD	03f2acbcfr			; 0.667172
	DD	0bf273656r			; -0.653173
	DD	03ecbd249r			; 0.398089
	DD	0bf24e50er			; -0.64412
	DD	0be0c596dr			; -0.13706
	DD	03e9f5a88r			; 0.311238
	DD	0bebbaa17r			; -0.366532
	DD	03e9d28c7r			; 0.306952
	DD	03f36c05fr			; 0.713873
	DD	0bee00c70r			; -0.437595
	DD	03f1a303br			; 0.602298
	DD	0bf2aeaa8r			; -0.667643
	DD	0be81de7dr			; -0.253651
	DD	03e67f75br			; 0.22653
	DD	0bebbaa19r			; -0.366532
	DD	03eb1542er			; 0.346345
	DD	03f265099r			; 0.649667
	DD	0bee00c72r			; -0.437595
	DD	03f1a303cr			; 0.602298
	DD	0bf2aeaa9r			; -0.667643
	DD	0be7fffffr			; -0.25
	DD	03eb02d4fr			; 0.344096
	DD	0be869648r			; -0.262865
	DD	03ebdf4d0r			; 0.371008
	DD	03f3dd92dr			; 0.741595
	DD	0bee00c70r			; -0.437595
	DD	03f1a303br			; 0.602298
	DD	0bf2aeaa8r			; -0.667643
	DD	000000000r			; 0
	DD	03ebcf91ar			; 0.369088
	DD	0beacb31fr			; -0.337304
	DD	03e800000r			; 0.25
	DD	03f43a9fdr			; 0.764313
	DD	0be350164r			; -0.176763
	DD	03f3e8539r			; 0.74422
	DD	0bf24e50er			; -0.64412
	DD	0be0c596dr			; -0.13706
	DD	03e9f5a88r			; 0.311238
	DD	0bebbaa17r			; -0.366532
	DD	03e9d28c7r			; 0.306952
	DD	03f36c05fr			; 0.713873
	DD	0be350165r			; -0.176763
	DD	03f3e8539r			; 0.74422
	DD	0bf24e50fr			; -0.64412
	DD	0be051077r			; -0.129946
	DD	03ed29738r			; 0.41131
	DD	0be8176e3r			; -0.25286
	DD	03ea6aec5r			; 0.325552
	DD	03f4eb791r			; 0.807489
	DD	0be350166r			; -0.176763
	DD	03f3e853br			; 0.74422
	DD	0bf24e510r			; -0.64412
	DD	0bda479fdr			; -0.0803108
	DD	03ef59195r			; 0.479626
	DD	0bdee089er			; -0.116227
	DD	03eb14563r			; 0.346233
	DD	03f68a86ar			; 0.90882
	DD	0be253c69r			; -0.161363
	DD	03f67a7f7r			; 0.904907
	DD	0bec9a4afr			; -0.393835
	DD	000000000r			; 0
	DD	03ee4f931r			; 0.447214
	DD	0be64f91fr			; -0.223607
	DD	03e800000r			; 0.25
	DD	03f5a37f9r			; 0.852417
	DD	0be253c69r			; -0.161363
	DD	03f67a7f8r			; 0.904907
	DD	0bec9a4afr			; -0.393835
	DD	0be051077r			; -0.129946
	DD	03ed29738r			; 0.41131
	DD	0be8176e3r			; -0.25286
	DD	03ea6aec5r			; 0.325552
	DD	03f4eb791r			; 0.807489
	DD	0be253c6ar			; -0.161363
	DD	03f67a7f9r			; 0.904907
	DD	0bec9a4afr			; -0.393835
	DD	0be631705r			; -0.221768
	DD	03edb0c39r			; 0.427828
	DD	0be088d63r			; -0.133352
	DD	03ed3e24dr			; 0.413836
	DD	03f53ac26r			; 0.826846
	DD	0bed3df81r			; -0.413815
	DD	03f4d901er			; 0.80298
	DD	0bedb9c99r			; -0.428929
	DD	0be051077r			; -0.129946
	DD	03ed29738r			; 0.41131
	DD	0be8176e3r			; -0.25286
	DD	03ea6aec5r			; 0.325552
	DD	03f4eb791r			; 0.807489
	DD	0bed3df81r			; -0.413815
	DD	03f4d901dr			; 0.80298
	DD	0bedb9c99r			; -0.428929
	DD	0be7fffffr			; -0.25
	DD	03eb02d4fr			; 0.344096
	DD	0be869648r			; -0.262865
	DD	03ebdf4d0r			; 0.371008
	DD	03f3dd92dr			; 0.741595
	DD	0bed3df82r			; -0.413815
	DD	03f4d901er			; 0.80298
	DD	0bedb9c9ar			; -0.428929
	DD	0be1e3779r			; -0.154508
	DD	03ef37872r			; 0.475528
	DD	000000000r			; 0
	DD	03f000000r			; 0.5
	DD	03f666667r			; 0.9
	DD	0bea405e2r			; -0.320357
	DD	03f6e7e31r			; 0.931613
	DD	0be2fc890r			; -0.171664
	DD	0bda479fdr			; -0.0803108
	DD	03ef59195r			; 0.479626
	DD	0bdee089er			; -0.116227
	DD	03eb14563r			; 0.346233
	DD	03f68a86ar			; 0.90882
	DD	0bea405e3r			; -0.320357
	DD	03f6e7e32r			; 0.931613
	DD	0be2fc891r			; -0.171664
	DD	0be631705r			; -0.221768
	DD	03edb0c39r			; 0.427828
	DD	0be088d63r			; -0.133352
	DD	03ed3e24dr			; 0.413836
	DD	03f53ac26r			; 0.826846
	DD	0bea405e1r			; -0.320357
	DD	03f6e7e30r			; 0.931613
	DD	0be2fc88fr			; -0.171664
	DD	0bead3d48r			; -0.338358
	DD	03eafad5er			; 0.34312
	DD	0be088d63r			; -0.133352
	DD	03ee16868r			; 0.44025
	DD	03f3da11dr			; 0.74074
	DD	0bf22c407r			; -0.635804
	DD	03f24462fr			; 0.641696
	DD	0bedb9c95r			; -0.428929
	DD	0be7fffffr			; -0.25
	DD	03eb02d4fr			; 0.344096
	DD	0be869648r			; -0.262865
	DD	03ebdf4d0r			; 0.371008
	DD	03f3dd92dr			; 0.741595
	DD	0bf22c406r			; -0.635804
	DD	03f244630r			; 0.641696
	DD	0bedb9c94r			; -0.428929
	DD	0beb3b959r			; -0.351023
	DD	03e805a1fr			; 0.250688
	DD	0be8176e4r			; -0.25286
	DD	03ecd2195r			; 0.400647
	DD	03f2acbcfr			; 0.667172
	DD	0bf22c406r			; -0.635804
	DD	03f24462fr			; 0.641696
	DD	0bedb9c94r			; -0.428929
	DD	0be967029r			; -0.293824
	DD	03ecf0f76r			; 0.404415
	DD	0bc305010r			; -0.0107613
	DD	03efd0452r			; 0.494174
	DD	03f4cc628r			; 0.799899
	DD	0bf13cd3ar			; -0.57735
	DD	03f4b6e7cr			; 0.794655
	DD	0be401826r			; -0.187592
	DD	0be631705r			; -0.221768
	DD	03edb0c39r			; 0.427828
	DD	0be088d63r			; -0.133352
	DD	03ed3e24dr			; 0.413836
	DD	03f53ac26r			; 0.826846
	DD	0bf13cd39r			; -0.57735
	DD	03f4b6e7br			; 0.794655
	DD	0be401824r			; -0.187592
	DD	0bead3d48r			; -0.338358
	DD	03eafad5er			; 0.34312
	DD	0be088d63r			; -0.133352
	DD	03ee16868r			; 0.44025
	DD	03f3da11dr			; 0.74074
	DD	0bf13cd3ar			; -0.57735
	DD	03f4b6e7cr			; 0.794655
	DD	0be401826r			; -0.187592
	DD	0be5e26aer			; -0.216944
	DD	03eded6a5r			; 0.435231
	DD	03dee089fr			; 0.116227
	DD	03f140a06r			; 0.578278
	DD	03f560fe9r			; 0.83618
	DD	0beea4492r			; -0.457554
	DD	03f6314bar			; 0.887035
	DD	03d7cecd8r			; 0.0617493
	DD	0be1e3779r			; -0.154508
	DD	03ef37872r			; 0.475528
	DD	000000000r			; 0
	DD	03f000000r			; 0.5
	DD	03f666667r			; 0.9
	DD	0beea4492r			; -0.457554
	DD	03f6314bar			; 0.887035
	DD	03d7cecd7r			; 0.0617493
	DD	0be967029r			; -0.293824
	DD	03ecf0f76r			; 0.404415
	DD	0bc305010r			; -0.0107613
	DD	03efd0452r			; 0.494174
	DD	03f4cc628r			; 0.799899
	DD	0beea4492r			; -0.457554
	DD	03f6314bar			; 0.887035
	DD	03d7cecd9r			; 0.0617493
	DD	0bedcd7d6r			; -0.431334
	DD	03e65fbb1r			; 0.224593
	DD	0bdee089er			; -0.116227
	DD	03eea8d45r			; 0.458109
	DD	03f25f610r			; 0.648286
	DD	0bf4f8d87r			; -0.810753
	DD	03eddbf03r			; 0.433098
	DD	0bec9a49er			; -0.393834
	DD	0beb3b959r			; -0.351023
	DD	03e805a1fr			; 0.250688
	DD	0be8176e4r			; -0.25286
	DD	03ecd2195r			; 0.400647
	DD	03f2acbcfr			; 0.667172
	DD	0bf4f8d87r			; -0.810753
	DD	03eddbf03r			; 0.433098
	DD	0bec9a49fr			; -0.393834
	DD	0bed9c441r			; -0.425325
	DD	03e0d8379r			; 0.138197
	DD	0be64f921r			; -0.223607
	DD	03ed88efcr			; 0.422966
	DD	03f16d1d6r			; 0.589139
	DD	0bf4f8d87r			; -0.810753
	DD	03eddbf03r			; 0.433098
	DD	0bec9a49er			; -0.393834
	DD	0becf1bbar			; -0.404508
	DD	03e96791br			; 0.293893
	DD	000000000r			; 0
	DD	03f000000r			; 0.5
	DD	03f333334r			; 0.7
	DD	0bf497a2er			; -0.787021
	DD	03f17b22br			; 0.592562
	DD	0be2fc889r			; -0.171663
	DD	0bead3d48r			; -0.338358
	DD	03eafad5er			; 0.34312
	DD	0be088d63r			; -0.133352
	DD	03ee16868r			; 0.44025
	DD	03f3da11dr			; 0.74074
	DD	0bf497a2fr			; -0.787021
	DD	03f17b22br			; 0.592562
	DD	0be2fc888r			; -0.171663
	DD	0bedcd7d6r			; -0.431334
	DD	03e65fbb1r			; 0.224593
	DD	0bdee089er			; -0.116227
	DD	03eea8d45r			; 0.458109
	DD	03f25f610r			; 0.648286
	DD	0bf497a2fr			; -0.787021
	DD	03f17b22br			; 0.592562
	DD	0be2fc888r			; -0.171663
	DD	0beb19b92r			; -0.34689
	DD	03eae8001r			; 0.34082
	DD	03dee089er			; 0.116227
	DD	03f0d2c23r			; 0.551455
	DD	03f3d1d9fr			; 0.738733
	DD	0bf33c53cr			; -0.702228
	DD	03f3592a6r			; 0.709269
	DD	03d7cecber			; 0.0617492
	DD	0be967029r			; -0.293824
	DD	03ecf0f76r			; 0.404415
	DD	0bc305010r			; -0.0107613
	DD	03efd0452r			; 0.494174
	DD	03f4cc628r			; 0.799899
	DD	0bf33c53dr			; -0.702228
	DD	03f3592a7r			; 0.709269
	DD	03d7cecc0r			; 0.0617492
	DD	0becf1bbar			; -0.404508
	DD	03e96791br			; 0.293893
	DD	000000000r			; 0
	DD	03f000000r			; 0.5
	DD	03f333334r			; 0.7
	DD	0bf33c53cr			; -0.702228
	DD	03f3592a6r			; 0.709269
	DD	03d7cecbdr			; 0.0617492
	DD	0be869652r			; -0.262866
	DD	03eb93e4er			; 0.361803
	DD	03e64f923r			; 0.223607
	DD	03f1cb813r			; 0.612184
	DD	03f41eca5r			; 0.757517
	DD	0bf100dacr			; -0.562709
	DD	03f4645c3r			; 0.774502
	DD	03e93f462r			; 0.288974
	DD	0be5e26aer			; -0.216944
	DD	03eded6a5r			; 0.435231
	DD	03dee089fr			; 0.116227
	DD	03f140a06r			; 0.578278
	DD	03f560fe9r			; 0.83618
	DD	0bf100dabr			; -0.562709
	DD	03f4645c1r			; 0.774502
	DD	03e93f461r			; 0.288974
	DD	0beb19b92r			; -0.34689
	DD	03eae8001r			; 0.34082
	DD	03dee089er			; 0.116227
	DD	03f0d2c23r			; 0.551455
	DD	03f3d1d9fr			; 0.738733
	DD	0bf100dacr			; -0.562709
	DD	03f4645c1r			; 0.774502
	DD	03e93f462r			; 0.288974
	DD	0bda479fdr			; -0.0803108
	DD	03ef59195r			; 0.479626
	DD	0bdee089er			; -0.116227
	DD	03eb14563r			; 0.346233
	DD	03f68a86ar			; 0.90882
	DD	0be926fber			; -0.286009
	DD	03f650373r			; 0.894584
	DD	0beafd132r			; -0.343393
	DD	0be051077r			; -0.129946
	DD	03ed29738r			; 0.41131
	DD	0be8176e3r			; -0.25286
	DD	03ea6aec5r			; 0.325552
	DD	03f4eb791r			; 0.807489
	DD	0be926fbdr			; -0.286009
	DD	03f650373r			; 0.894584
	DD	0beafd132r			; -0.343393
	DD	0be631705r			; -0.221768
	DD	03edb0c39r			; 0.427828
	DD	0be088d63r			; -0.133352
	DD	03ed3e24dr			; 0.413836
	DD	03f53ac26r			; 0.826846
	DD	0be926fber			; -0.286009
	DD	03f650373r			; 0.894584
	DD	0beafd132r			; -0.343393
	DD	0be631705r			; -0.221768
	DD	03edb0c39r			; 0.427828
	DD	0be088d63r			; -0.133352
	DD	03ed3e24dr			; 0.413836
	DD	03f53ac26r			; 0.826846
	DD	0bf0bf47fr			; -0.546699
	DD	03f40a1b2r			; 0.752467
	DD	0bebc0f56r			; -0.367305
	DD	0be7fffffr			; -0.25
	DD	03eb02d4fr			; 0.344096
	DD	0be869648r			; -0.262865
	DD	03ebdf4d0r			; 0.371008
	DD	03f3dd92dr			; 0.741595
	DD	0bf0bf47fr			; -0.546699
	DD	03f40a1b2r			; 0.752467
	DD	0bebc0f56r			; -0.367305
	DD	0bead3d48r			; -0.338358
	DD	03eafad5er			; 0.34312
	DD	0be088d63r			; -0.133352
	DD	03ee16868r			; 0.44025
	DD	03f3da11dr			; 0.74074
	DD	0bf0bf47fr			; -0.546699
	DD	03f40a1b2r			; 0.752467
	DD	0bebc0f55r			; -0.367304
	DD	0be1e3779r			; -0.154508
	DD	03ef37872r			; 0.475528
	DD	000000000r			; 0
	DD	03f000000r			; 0.5
	DD	03f666667r			; 0.9
	DD	0bee4db05r			; -0.446983
	DD	03f63c456r			; 0.889715
	DD	0bdbe12e6r			; -0.0928095
	DD	0be631705r			; -0.221768
	DD	03edb0c39r			; 0.427828
	DD	0be088d63r			; -0.133352
	DD	03ed3e24dr			; 0.413836
	DD	03f53ac26r			; 0.826846
	DD	0bee4db06r			; -0.446984
	DD	03f63c457r			; 0.889715
	DD	0bdbe12e7r			; -0.0928095
	DD	0be967029r			; -0.293824
	DD	03ecf0f76r			; 0.404415
	DD	0bc305010r			; -0.0107613
	DD	03efd0452r			; 0.494174
	DD	03f4cc628r			; 0.799899
	DD	0bee4db04r			; -0.446983
	DD	03f63c455r			; 0.889715
	DD	0bdbe12e5r			; -0.0928095
	DD	0bead3d48r			; -0.338358
	DD	03eafad5er			; 0.34312
	DD	0be088d63r			; -0.133352
	DD	03ee16868r			; 0.44025
	DD	03f3da11dr			; 0.74074
	DD	0bf432dd8r			; -0.762418
	DD	03f0c6760r			; 0.548452
	DD	0beafd129r			; -0.343393
	DD	0beb3b959r			; -0.351023
	DD	03e805a1fr			; 0.250688
	DD	0be8176e4r			; -0.25286
	DD	03ecd2195r			; 0.400647
	DD	03f2acbcfr			; 0.667172
	DD	0bf432dd7r			; -0.762418
	DD	03f0c675er			; 0.548452
	DD	0beafd128r			; -0.343393
	DD	0bedcd7d6r			; -0.431334
	DD	03e65fbb1r			; 0.224593
	DD	0bdee089er			; -0.116227
	DD	03eea8d45r			; 0.458109
	DD	03f25f610r			; 0.648286
	DD	0bf432dd7r			; -0.762418
	DD	03f0c675fr			; 0.548452
	DD	0beafd128r			; -0.343393
	DD	0be967029r			; -0.293824
	DD	03ecf0f76r			; 0.404415
	DD	0bc305010r			; -0.0107613
	DD	03efd0452r			; 0.494174
	DD	03f4cc628r			; 0.799899
	DD	0bf354256r			; -0.708043
	DD	03f33360er			; 0.700044
	DD	0bdbe12e2r			; -0.0928095
	DD	0bead3d48r			; -0.338358
	DD	03eafad5er			; 0.34312
	DD	0be088d63r			; -0.133352
	DD	03ee16868r			; 0.44025
	DD	03f3da11dr			; 0.74074
	DD	0bf354255r			; -0.708043
	DD	03f33360dr			; 0.700043
	DD	0bdbe12e1r			; -0.0928094
	DD	0becf1bbar			; -0.404508
	DD	03e96791br			; 0.293893
	DD	000000000r			; 0
	DD	03f000000r			; 0.5
	DD	03f333334r			; 0.7
	DD	0bf354255r			; -0.708043
	DD	03f33360dr			; 0.700043
	DD	0bdbe12e1r			; -0.0928094
	DD	0be5e26aer			; -0.216944
	DD	03eded6a5r			; 0.435231
	DD	03dee089fr			; 0.116227
	DD	03f140a06r			; 0.578278
	DD	03f560fe9r			; 0.83618
	DD	0bf14981cr			; -0.580446
	DD	03f4c85b7r			; 0.798915
	DD	03e21505cr			; 0.157533
	DD	0be967029r			; -0.293824
	DD	03ecf0f76r			; 0.404415
	DD	0bc305010r			; -0.0107613
	DD	03efd0452r			; 0.494174
	DD	03f4cc628r			; 0.799899
	DD	0bf14981cr			; -0.580446
	DD	03f4c85b6r			; 0.798915
	DD	03e21505cr			; 0.157533
	DD	0beb19b92r			; -0.34689
	DD	03eae8001r			; 0.34082
	DD	03dee089er			; 0.116227
	DD	03f0d2c23r			; 0.551455
	DD	03f3d1d9fr			; 0.738733
	DD	0bf14981cr			; -0.580446
	DD	03f4c85b7r			; 0.798915
	DD	03e21505cr			; 0.157533
	DD	0bef64193r			; -0.480969
	DD	03d931d00r			; 0.0718327
	DD	0bdee089fr			; -0.116227
	DD	03eecadc5r			; 0.462263
	DD	03f0bbf5fr			; 0.545889
	DD	0bf691555r			; -0.910482
	DD	03e0131aar			; 0.126166
	DD	0bec9a4a0r			; -0.393834
	DD	0bed9c441r			; -0.425325
	DD	03e0d8379r			; 0.138197
	DD	0be64f921r			; -0.223607
	DD	03ed88efcr			; 0.422966
	DD	03f16d1d6r			; 0.589139
	DD	0bf691553r			; -0.910482
	DD	03e0131aar			; 0.126166
	DD	0bec9a49fr			; -0.393834
	DD	0bedcd7dcr			; -0.431334
	DD	03b667124r			; 0.00351627
	DD	0be8176e5r			; -0.25286
	DD	03ed4caf9r			; 0.415611
	DD	03f0092b4r			; 0.502239
	DD	0bf691554r			; -0.910482
	DD	03e0131aar			; 0.126166
	DD	0bec9a49er			; -0.393834
	DD	0bef36a02r			; -0.475418
	DD	0bda1315dr			; -0.0787074
	DD	0be088d66r			; -0.133352
	DD	03ee9b747r			; 0.456476
	DD	03ee63cfcr			; 0.449684
	DD	0bf643cfar			; -0.891555
	DD	0be14eaa5r			; -0.145426
	DD	0bedb9c9dr			; -0.428929
	DD	0bedcd7dcr			; -0.431334
	DD	03b667124r			; 0.00351627
	DD	0be8176e5r			; -0.25286
	DD	03ed4caf9r			; 0.415611
	DD	03f0092b4r			; 0.502239
	DD	0bf643cf9r			; -0.891555
	DD	0be14eaa5r			; -0.145426
	DD	0bedb9c9er			; -0.428929
	DD	0becf1bc1r			; -0.404509
	DD	0be06964br			; -0.131433
	DD	0be86964br			; -0.262865
	DD	03ed10aber			; 0.408285
	DD	03ed4a676r			; 0.415332
	DD	0bf643cf8r			; -0.891555
	DD	0be14eaa4r			; -0.145426
	DD	0bedb9c9cr			; -0.428929
	DD	0bf000000r			; -0.5
	DD	000000000r			; 0
	DD	000000000r			; 0
	DD	03f000000r			; 0.5
	DD	03f000000r			; 0.5
	DD	0bf7c29c7r			; -0.985012
	DD	0bc8991c0r			; -0.0167931
	DD	0be2fc89fr			; -0.171664
	DD	0bef64193r			; -0.480969
	DD	03d931d00r			; 0.0718327
	DD	0bdee089fr			; -0.116227
	DD	03eecadc5r			; 0.462263
	DD	03f0bbf5fr			; 0.545889
	DD	0bf7c29c7r			; -0.985012
	DD	0bc8991c0r			; -0.0167931
	DD	0be2fc89dr			; -0.171664
	DD	0bef36a02r			; -0.475418
	DD	0bda1315dr			; -0.0787074
	DD	0be088d66r			; -0.133352
	DD	03ee9b747r			; 0.456476
	DD	03ee63cfcr			; 0.449684
	DD	0bf7c29c6r			; -0.985012
	DD	0bc8991bfr			; -0.0167931
	DD	0be2fc89er			; -0.171664
	DD	0bedc9ce3r			; -0.430884
	DD	0be5cf24fr			; -0.215768
	DD	0be088d66r			; -0.133352
	DD	03ee78af5r			; 0.452232
	DD	03eb74812r			; 0.357972
	DD	0bf4e8806r			; -0.806763
	DD	0bed01264r			; -0.40639
	DD	0bedb9c9fr			; -0.428929
	DD	0becf1bc1r			; -0.404509
	DD	0be06964br			; -0.131433
	DD	0be86964br			; -0.262865
	DD	03ed10aber			; 0.408285
	DD	03ed4a676r			; 0.415332
	DD	0bf4e8807r			; -0.806763
	DD	0bed01264r			; -0.40639
	DD	0bedb9c9er			; -0.428929
	DD	0beb19b96r			; -0.34689
	DD	0be8343c9r			; -0.256377
	DD	0be8176e5r			; -0.25286
	DD	03eccac2er			; 0.399751
	DD	03ea8419fr			; 0.328626
	DD	0bf4e8806r			; -0.806763
	DD	0bed01264r			; -0.40639
	DD	0bedb9c9er			; -0.428929
	DD	0bef36a00r			; -0.475418
	DD	0be1e2e1cr			; -0.154473
	DD	0bc305012r			; -0.0107613
	DD	03efe27e4r			; 0.496398
	DD	03ecccfefr			; 0.400024
	DD	0bf6f25ebr			; -0.934172
	DD	0be9b6869r			; -0.303531
	DD	0be401839r			; -0.187592
	DD	0bef36a02r			; -0.475418
	DD	0bda1315dr			; -0.0787074
	DD	0be088d66r			; -0.133352
	DD	03ee9b747r			; 0.456476
	DD	03ee63cfcr			; 0.449684
	DD	0bf6f25ebr			; -0.934172
	DD	0be9b686ar			; -0.303531
	DD	0be401839r			; -0.187592
	DD	0bedc9ce3r			; -0.430884
	DD	0be5cf24fr			; -0.215768
	DD	0be088d66r			; -0.133352
	DD	03ee78af5r			; 0.452232
	DD	03eb74812r			; 0.357972
	DD	0bf6f25ecr			; -0.934172
	DD	0be9b686ar			; -0.303531
	DD	0be40183ar			; -0.187592
	DD	0bef64193r			; -0.480969
	DD	0bd931d00r			; -0.0718327
	DD	03dee089fr			; 0.116227
	DD	03f09a91dr			; 0.537737
	DD	03ee88141r			; 0.454111
	DD	0bf7c29c8r			; -0.985013
	DD	0be24ea8fr			; -0.161051
	DD	03d7ced4er			; 0.0617497
	DD	0bf000000r			; -0.5
	DD	000000000r			; 0
	DD	000000000r			; 0
	DD	03f000000r			; 0.5
	DD	03f000000r			; 0.5
	DD	0bf7c29c7r			; -0.985012
	DD	0be24ea8er			; -0.161051
	DD	03d7ced4br			; 0.0617497
	DD	0bef36a00r			; -0.475418
	DD	0be1e2e1cr			; -0.154473
	DD	0bc305012r			; -0.0107613
	DD	03efe27e4r			; 0.496398
	DD	03ecccfefr			; 0.400024
	DD	0bf7c29c6r			; -0.985012
	DD	0be24ea8dr			; -0.161051
	DD	03d7ced4ar			; 0.0617497
	DD	0beb19b92r			; -0.34689
	DD	0beae8001r			; -0.34082
	DD	0bdee089er			; -0.116227
	DD	03ee5a7bar			; 0.448545
	DD	03e85c4c1r			; 0.261267
	DD	0bf299577r			; -0.662437
	DD	0bf232204r			; -0.637238
	DD	0bec9a4a6r			; -0.393834
	DD	0beb19b96r			; -0.34689
	DD	0be8343c9r			; -0.256377
	DD	0be8176e5r			; -0.25286
	DD	03eccac2er			; 0.399751
	DD	03ea8419fr			; 0.328626
	DD	0bf299576r			; -0.662437
	DD	0bf232204r			; -0.637238
	DD	0bec9a4a6r			; -0.393834
	DD	0be869652r			; -0.262866
	DD	0beb93e4er			; -0.361803
	DD	0be64f923r			; -0.223607
	DD	03ec68fdar			; 0.387816
	DD	03e784d6dr			; 0.242483
	DD	0bf299576r			; -0.662437
	DD	0bf232204r			; -0.637238
	DD	0bec9a4a6r			; -0.393834
	DD	0becf1bbar			; -0.404508
	DD	0be96791br			; -0.293893
	DD	000000000r			; 0
	DD	03f000000r			; 0.5
	DD	03e999997r			; 0.3
	DD	0bf4e8803r			; -0.806763
	DD	0bf10bd5dr			; -0.565389
	DD	0be2fc885r			; -0.171663
	DD	0bedc9ce3r			; -0.430884
	DD	0be5cf24fr			; -0.215768
	DD	0be088d66r			; -0.133352
	DD	03ee78af5r			; 0.452232
	DD	03eb74812r			; 0.357972
	DD	0bf4e8803r			; -0.806763
	DD	0bf10bd5er			; -0.56539
	DD	0be2fc885r			; -0.171663
	DD	0beb19b92r			; -0.34689
	DD	0beae8001r			; -0.34082
	DD	0bdee089er			; -0.116227
	DD	03ee5a7bar			; 0.448545
	DD	03e85c4c1r			; 0.261267
	DD	0bf4e8804r			; -0.806763
	DD	0bf10bd5er			; -0.56539
	DD	0be2fc886r			; -0.171663
	DD	0bedcd7d6r			; -0.431334
	DD	0be65fbb1r			; -0.224593
	DD	03dee089er			; 0.116227
	DD	03f0ab95er			; 0.541891
	DD	03eb413dfr			; 0.351714
	DD	0bf643cf4r			; -0.891555
	DD	0bee5b9ccr			; -0.448683
	DD	03d7cecfbr			; 0.0617494
	DD	0bef36a00r			; -0.475418
	DD	0be1e2e1cr			; -0.154473
	DD	0bc305012r			; -0.0107613
	DD	03efe27e4r			; 0.496398
	DD	03ecccfefr			; 0.400024
	DD	0bf643cf4r			; -0.891555
	DD	0bee5b9ccr			; -0.448683
	DD	03d7cecfbr			; 0.0617494
	DD	0becf1bbar			; -0.404508
	DD	0be96791br			; -0.293893
	DD	000000000r			; 0
	DD	03f000000r			; 0.5
	DD	03e999997r			; 0.3
	DD	0bf643cf3r			; -0.891555
	DD	0bee5b9ccr			; -0.448683
	DD	03d7cecfbr			; 0.0617494
	DD	0bed9c441r			; -0.425325
	DD	0be0d8379r			; -0.138197
	DD	03e64f921r			; 0.223607
	DD	03f13b882r			; 0.577034
	DD	03ed25c53r			; 0.410861
	DD	0bf691553r			; -0.910482
	DD	0be97777fr			; -0.295834
	DD	03e93f453r			; 0.288973
	DD	0bef64193r			; -0.480969
	DD	0bd931d00r			; -0.0718327
	DD	03dee089fr			; 0.116227
	DD	03f09a91dr			; 0.537737
	DD	03ee88141r			; 0.454111
	DD	0bf691553r			; -0.910482
	DD	0be97777er			; -0.295834
	DD	03e93f452r			; 0.288973
	DD	0bedcd7d6r			; -0.431334
	DD	0be65fbb1r			; -0.224593
	DD	03dee089er			; 0.116227
	DD	03f0ab95er			; 0.541891
	DD	03eb413dfr			; 0.351714
	DD	0bf691554r			; -0.910482
	DD	0be97777fr			; -0.295834
	DD	03e93f453r			; 0.288973
	DD	0bef64193r			; -0.480969
	DD	03d931d00r			; 0.0718327
	DD	0bdee089fr			; -0.116227
	DD	03eecadc5r			; 0.462263
	DD	03f0bbf5fr			; 0.545889
	DD	0bf706e31r			; -0.939181
	DD	03b91372er			; 0.00443163
	DD	0beafd128r			; -0.343393
	DD	0bedcd7dcr			; -0.431334
	DD	03b667124r			; 0.00351627
	DD	0be8176e5r			; -0.25286
	DD	03ed4caf9r			; 0.415611
	DD	03f0092b4r			; 0.502239
	DD	0bf706e31r			; -0.939181
	DD	03b91372er			; 0.00443163
	DD	0beafd129r			; -0.343393
	DD	0bef36a02r			; -0.475418
	DD	0bda1315dr			; -0.0787074
	DD	0be088d66r			; -0.133352
	DD	03ee9b747r			; 0.456476
	DD	03ee63cfcr			; 0.449684
	DD	0bf706e33r			; -0.939182
	DD	03b91372fr			; 0.00443163
	DD	0beafd12ar			; -0.343393
	DD	0bef36a02r			; -0.475418
	DD	0bda1315dr			; -0.0787074
	DD	0be088d66r			; -0.133352
	DD	03ee9b747r			; 0.456476
	DD	03ee63cfcr			; 0.449684
	DD	0bf6273bar			; -0.884578
	DD	0be932850r			; -0.287417
	DD	0bebc0f59r			; -0.367305
	DD	0becf1bc1r			; -0.404509
	DD	0be06964br			; -0.131433
	DD	0be86964br			; -0.262865
	DD	03ed10aber			; 0.408285
	DD	03ed4a676r			; 0.415332
	DD	0bf6273bar			; -0.884578
	DD	0be93284fr			; -0.287417
	DD	0bebc0f58r			; -0.367305
	DD	0bedc9ce3r			; -0.430884
	DD	0be5cf24fr			; -0.215768
	DD	0be088d66r			; -0.133352
	DD	03ee78af5r			; 0.452232
	DD	03eb74812r			; 0.357972
	DD	0bf6273bbr			; -0.884578
	DD	0be932851r			; -0.287417
	DD	0bebc0f59r			; -0.367305
	DD	0bf000000r			; -0.5
	DD	000000000r			; 0
	DD	000000000r			; 0
	DD	03f000000r			; 0.5
	DD	03f000000r			; 0.5
	DD	0bf7bfab7r			; -0.984294
	DD	0be19c604r			; -0.150169
	DD	0bdbe12eer			; -0.0928095
	DD	0bef36a02r			; -0.475418
	DD	0bda1315dr			; -0.0787074
	DD	0be088d66r			; -0.133352
	DD	03ee9b747r			; 0.456476
	DD	03ee63cfcr			; 0.449684
	DD	0bf7bfab7r			; -0.984294
	DD	0be19c604r			; -0.150169
	DD	0bdbe12eer			; -0.0928095
	DD	0bef36a00r			; -0.475418
	DD	0be1e2e1cr			; -0.154473
	DD	0bc305012r			; -0.0107613
	DD	03efe27e4r			; 0.496398
	DD	03ecccfefr			; 0.400024
	DD	0bf7bfab9r			; -0.984294
	DD	0be19c604r			; -0.150169
	DD	0bdbe12eer			; -0.0928095
	DD	0bedc9ce3r			; -0.430884
	DD	0be5cf24fr			; -0.215768
	DD	0be088d66r			; -0.133352
	DD	03ee78af5r			; 0.452232
	DD	03eb74812r			; 0.357972
	DD	0bf41d874r			; -0.757209
	DD	0bf0e3d3cr			; -0.555622
	DD	0beafd12fr			; -0.343393
	DD	0beb19b96r			; -0.34689
	DD	0be8343c9r			; -0.256377
	DD	0be8176e5r			; -0.25286
	DD	03eccac2er			; 0.399751
	DD	03ea8419fr			; 0.328626
	DD	0bf41d875r			; -0.757209
	DD	0bf0e3d3dr			; -0.555622
	DD	0beafd130r			; -0.343393
	DD	0beb19b92r			; -0.34689
	DD	0beae8001r			; -0.34082
	DD	0bdee089er			; -0.116227
	DD	03ee5a7bar			; 0.448545
	DD	03e85c4c1r			; 0.261267
	DD	0bf41d875r			; -0.757209
	DD	0bf0e3d3dr			; -0.555622
	DD	0beafd12fr			; -0.343393
	DD	0bef36a00r			; -0.475418
	DD	0be1e2e1cr			; -0.154473
	DD	0bc305012r			; -0.0107613
	DD	03efe27e4r			; 0.496398
	DD	03ecccfefr			; 0.400024
	DD	0bf6273b7r			; -0.884578
	DD	0beea045cr			; -0.457065
	DD	0bdbe12ear			; -0.0928095
	DD	0bedc9ce3r			; -0.430884
	DD	0be5cf24fr			; -0.215768
	DD	0be088d66r			; -0.133352
	DD	03ee78af5r			; 0.452232
	DD	03eb74812r			; 0.357972
	DD	0bf6273b5r			; -0.884578
	DD	0beea045ar			; -0.457064
	DD	0bdbe12e7r			; -0.0928095
	DD	0becf1bbar			; -0.404508
	DD	0be96791br			; -0.293893
	DD	000000000r			; 0
	DD	03f000000r			; 0.5
	DD	03e999997r			; 0.3
	DD	0bf6273b7r			; -0.884578
	DD	0beea045cr			; -0.457065
	DD	0bdbe12e9r			; -0.0928095
	DD	0bef64193r			; -0.480969
	DD	0bd931d00r			; -0.0718327
	DD	03dee089fr			; 0.116227
	DD	03f09a91dr			; 0.537737
	DD	03ee88141r			; 0.454111
	DD	0bf706e2fr			; -0.939181
	DD	0be9c3dc1r			; -0.305159
	DD	03e215084r			; 0.157534
	DD	0bef36a00r			; -0.475418
	DD	0be1e2e1cr			; -0.154473
	DD	0bc305012r			; -0.0107613
	DD	03efe27e4r			; 0.496398
	DD	03ecccfefr			; 0.400024
	DD	0bf706e2er			; -0.939181
	DD	0be9c3dbfr			; -0.305159
	DD	03e215082r			; 0.157534
	DD	0bedcd7d6r			; -0.431334
	DD	0be65fbb1r			; -0.224593
	DD	03dee089er			; 0.116227
	DD	03f0ab95er			; 0.541891
	DD	03eb413dfr			; 0.351714
	DD	0bf706e2dr			; -0.939181
	DD	0be9c3dc0r			; -0.305159
	DD	03e215083r			; 0.157534
	DD	0be5e26aer			; -0.216944
	DD	0beded6a5r			; -0.435231
	DD	0bdee089fr			; -0.116227
	DD	03ed7ebf4r			; 0.421722
	DD	03e27c05ar			; 0.16382
	DD	0becd7d17r			; -0.401345
	DD	0bf53b1d3r			; -0.826932
	DD	0bec9a4aar			; -0.393834
	DD	0be869652r			; -0.262866
	DD	0beb93e4er			; -0.361803
	DD	0be64f923r			; -0.223607
	DD	03ec68fdar			; 0.387816
	DD	03e784d6dr			; 0.242483
	DD	0becd7d17r			; -0.401345
	DD	0bf53b1d2r			; -0.826932
	DD	0bec9a4aar			; -0.393834
	DD	0be0be9b0r			; -0.136634
	DD	0bed17a63r			; -0.409137
	DD	0be8176e5r			; -0.25286
	DD	03ea85e8cr			; 0.328846
	DD	03e479c15r			; 0.194931
	DD	0becd7d18r			; -0.401345
	DD	0bf53b1d3r			; -0.826932
	DD	0bec9a4abr			; -0.393834
	DD	0bd9392a0r			; -0.072057
	DD	0bef3f412r			; -0.476471
	DD	0be088d65r			; -0.133352
	DD	03ea85e8cr			; 0.328846
	DD	03dc8c841r			; 0.0980382
	DD	0be0c7d47r			; -0.137197
	DD	0bf649265r			; -0.892859
	DD	0bedb9c9ar			; -0.428929
	DD	0be0be9b0r			; -0.136634
	DD	0bed17a63r			; -0.409137
	DD	0be8176e5r			; -0.25286
	DD	03ea85e8cr			; 0.328846
	DD	03e479c15r			; 0.194931
	DD	0be0c7d47r			; -0.137197
	DD	0bf649265r			; -0.892859
	DD	0bedb9c9ar			; -0.428929
	DD	000000000r			; 0
	DD	0bed9c444r			; -0.425326
	DD	0be86964ar			; -0.262865
	DD	03e800000r			; 0.25
	DD	03e346fe3r			; 0.176208
	DD	0be0c7d47r			; -0.137197
	DD	0bf649264r			; -0.892859
	DD	0bedb9c9ar			; -0.428929
	DD	0be1e3779r			; -0.154508
	DD	0bef37872r			; -0.475528
	DD	000000000r			; 0
	DD	03f000000r			; 0.5
	DD	03dccccc2r			; 0.0999999
	DD	0be93aaf8r			; -0.288414
	DD	0bf712664r			; -0.941992
	DD	0be2fc898r			; -0.171664
	DD	0be5e26aer			; -0.216944
	DD	0beded6a5r			; -0.435231
	DD	0bdee089fr			; -0.116227
	DD	03ed7ebf4r			; 0.421722
	DD	03e27c05ar			; 0.16382
	DD	0be93aaf7r			; -0.288414
	DD	0bf712664r			; -0.941992
	DD	0be2fc898r			; -0.171664
	DD	0bd9392a0r			; -0.072057
	DD	0bef3f412r			; -0.476471
	DD	0be088d65r			; -0.133352
	DD	03ea85e8cr			; 0.328846
	DD	03dc8c841r			; 0.0980382
	DD	0be93aaf8r			; -0.288414
	DD	0bf712664r			; -0.941992
	DD	0be2fc898r			; -0.171664
	DD	03d9392a0r			; 0.072057
	DD	0bef3f412r			; -0.476471
	DD	0be088d65r			; -0.133352
	DD	03e2f42e9r			; 0.171154
	DD	03dc8c841r			; 0.0980382
	DD	03e0c7d47r			; 0.137197
	DD	0bf649265r			; -0.892859
	DD	0bedb9c9ar			; -0.428929
	DD	000000000r			; 0
	DD	0bed9c444r			; -0.425326
	DD	0be86964ar			; -0.262865
	DD	03e800000r			; 0.25
	DD	03e346fe3r			; 0.176208
	DD	03e0c7d47r			; 0.137197
	DD	0bf649264r			; -0.892859
	DD	0bedb9c9ar			; -0.428929
	DD	03e0be9b0r			; 0.136634
	DD	0bed17a63r			; -0.409137
	DD	0be8176e5r			; -0.25286
	DD	03e2f42e9r			; 0.171154
	DD	03e479c15r			; 0.194931
	DD	03e0c7d47r			; 0.137197
	DD	0bf649265r			; -0.892859
	DD	0bedb9c9ar			; -0.428929
	DD	000000000r			; 0
	DD	0befff0d2r			; -0.499884
	DD	0bc305011r			; -0.0107613
	DD	03e800000r			; 0.25
	DD	03be07fcfr			; 0.00685117
	DD	000000000r			; 0
	DD	0bf7b748ar			; -0.982247
	DD	0be401835r			; -0.187592
	DD	0bd9392a0r			; -0.072057
	DD	0bef3f412r			; -0.476471
	DD	0be088d65r			; -0.133352
	DD	03ea85e8cr			; 0.328846
	DD	03dc8c841r			; 0.0980382
	DD	000000000r			; 0
	DD	0bf7b7489r			; -0.982247
	DD	0be401835r			; -0.187592
	DD	03d9392a0r			; 0.072057
	DD	0bef3f412r			; -0.476471
	DD	0be088d65r			; -0.133352
	DD	03e2f42e9r			; 0.171154
	DD	03dc8c841r			; 0.0980382
	DD	000000000r			; 0
	DD	0bf7b7489r			; -0.982247
	DD	0be401835r			; -0.187592
	DD	0bda479fdr			; -0.0803108
	DD	0bef59195r			; -0.479626
	DD	03dee089er			; 0.116227
	DD	03f275d4fr			; 0.653768
	DD	03dbabcb2r			; 0.0911802
	DD	0be1ad899r			; -0.151217
	DD	0bf7c8fdbr			; -0.98657
	DD	03d7cecc1r			; 0.0617492
	DD	0be1e3779r			; -0.154508
	DD	0bef37872r			; -0.475528
	DD	000000000r			; 0
	DD	03f000000r			; 0.5
	DD	03dccccc2r			; 0.0999999
	DD	0be1ad899r			; -0.151217
	DD	0bf7c8fdbr			; -0.98657
	DD	03d7cecc3r			; 0.0617492
	DD	000000000r			; 0
	DD	0befff0d2r			; -0.499884
	DD	0bc305011r			; -0.0107613
	DD	03e800000r			; 0.25
	DD	03be07fcfr			; 0.00685117
	DD	0be1ad899r			; -0.151217
	DD	0bf7c8fdbr			; -0.98657
	DD	03d7cecc2r			; 0.0617492
	DD	03e5e26aer			; 0.216944
	DD	0beded6a5r			; -0.435231
	DD	0bdee089fr			; -0.116227
	DD	03da0502fr			; 0.0782779
	DD	03e27c05ar			; 0.16382
	DD	03ecd7d16r			; 0.401345
	DD	0bf53b1d3r			; -0.826932
	DD	0bec9a4aar			; -0.393834
	DD	03e0be9b0r			; 0.136634
	DD	0bed17a63r			; -0.409137
	DD	0be8176e5r			; -0.25286
	DD	03e2f42e9r			; 0.171154
	DD	03e479c15r			; 0.194931
	DD	03ecd7d17r			; 0.401345
	DD	0bf53b1d3r			; -0.826932
	DD	0bec9a4abr			; -0.393834
	DD	03e869652r			; 0.262866
	DD	0beb93e4er			; -0.361803
	DD	0be64f923r			; -0.223607
	DD	03de5c099r			; 0.112184
	DD	03e784d6dr			; 0.242483
	DD	03ecd7d17r			; 0.401345
	DD	0bf53b1d2r			; -0.826932
	DD	0bec9a4aar			; -0.393834
	DD	03e1e3779r			; 0.154508
	DD	0bef37872r			; -0.475528
	DD	000000000r			; 0
	DD	03f800000r			; 1
	DD	03dccccc2r			; 0.0999999
	DD	03e93aaf8r			; 0.288414
	DD	0bf712664r			; -0.941992
	DD	0be2fc898r			; -0.171664
	DD	03d9392a0r			; 0.072057
	DD	0bef3f412r			; -0.476471
	DD	0be088d65r			; -0.133352
	DD	03f95e85dr			; 1.17115
	DD	03dc8c841r			; 0.0980382
	DD	03e93aaf8r			; 0.288414
	DD	0bf712664r			; -0.941992
	DD	0be2fc898r			; -0.171664
	DD	03e5e26aer			; 0.216944
	DD	0beded6a5r			; -0.435231
	DD	0bdee089fr			; -0.116227
	DD	03f8a0503r			; 1.07828
	DD	03e27c05ar			; 0.16382
	DD	03e93aaf7r			; 0.288414
	DD	0bf712664r			; -0.941992
	DD	0be2fc898r			; -0.171664
	DD	03da479fdr			; 0.0803108
	DD	0bef59195r			; -0.479626
	DD	03dee089er			; 0.116227
	DD	03f58a2b1r			; 0.846232
	DD	03dbabcb2r			; 0.0911802
	DD	03e1ad899r			; 0.151217
	DD	0bf7c8fdbr			; -0.98657
	DD	03d7cecc1r			; 0.0617492
	DD	000000000r			; 0
	DD	0befff0d2r			; -0.499884
	DD	0bc305011r			; -0.0107613
	DD	03fa00000r			; 1.25
	DD	03be07fcfr			; 0.00685117
	DD	03e1ad899r			; 0.151217
	DD	0bf7c8fdbr			; -0.98657
	DD	03d7cecc2r			; 0.0617492
	DD	03e1e3779r			; 0.154508
	DD	0bef37872r			; -0.475528
	DD	000000000r			; 0
	DD	03f800000r			; 1
	DD	03dccccc2r			; 0.0999999
	DD	03e1ad899r			; 0.151217
	DD	0bf7c8fdbr			; -0.98657
	DD	03d7cecc3r			; 0.0617492
	DD	000000000r			; 0
	DD	0bee4f931r			; -0.447214
	DD	03e64f91fr			; 0.223607
	DD	03f400000r			; 0.75
	DD	03e17201er			; 0.147583
	DD	000000000r			; 0
	DD	0bf751408r			; -0.957337
	DD	03e93f46fr			; 0.288974
	DD	0bda479fdr			; -0.0803108
	DD	0bef59195r			; -0.479626
	DD	03dee089er			; 0.116227
	DD	03f275d4fr			; 0.653768
	DD	03dbabcb2r			; 0.0911802
	DD	000000000r			; 0
	DD	0bf751409r			; -0.957337
	DD	03e93f470r			; 0.288974
	DD	03da479fdr			; 0.0803108
	DD	0bef59195r			; -0.479626
	DD	03dee089er			; 0.116227
	DD	03f58a2b1r			; 0.846232
	DD	03dbabcb2r			; 0.0911802
	DD	000000000r			; 0
	DD	0bf751409r			; -0.957337
	DD	03e93f470r			; 0.288974
	DD	0be5e26aer			; -0.216944
	DD	0beded6a5r			; -0.435231
	DD	0bdee089fr			; -0.116227
	DD	03ed7ebf4r			; 0.421722
	DD	03e27c05ar			; 0.16382
	DD	0be96c07ar			; -0.294437
	DD	0bf644ffar			; -0.891845
	DD	0beafd130r			; -0.343393
	DD	0be0be9b0r			; -0.136634
	DD	0bed17a63r			; -0.409137
	DD	0be8176e5r			; -0.25286
	DD	03ea85e8cr			; 0.328846
	DD	03e479c15r			; 0.194931
	DD	0be96c07ar			; -0.294437
	DD	0bf644ffar			; -0.891845
	DD	0beafd130r			; -0.343393
	DD	0bd9392a0r			; -0.072057
	DD	0bef3f412r			; -0.476471
	DD	0be088d65r			; -0.133352
	DD	03ea85e8cr			; 0.328846
	DD	03dc8c841r			; 0.0980382
	DD	0be96c07ar			; -0.294437
	DD	0bf644ffar			; -0.891845
	DD	0beafd130r			; -0.343393
	DD	0bd9392a0r			; -0.072057
	DD	0bef3f412r			; -0.476471
	DD	0be088d65r			; -0.133352
	DD	03ea85e8cr			; 0.328846
	DD	03dc8c841r			; 0.0980382
	DD	080000000r			; -0
	DD	0bf6e1b14r			; -0.930101
	DD	0bebc0f5br			; -0.367305
	DD	000000000r			; 0
	DD	0bed9c444r			; -0.425326
	DD	0be86964ar			; -0.262865
	DD	03e800000r			; 0.25
	DD	03e346fe3r			; 0.176208
	DD	080000000r			; -0
	DD	0bf6e1b14r			; -0.930101
	DD	0bebc0f5br			; -0.367305
	DD	03d9392a0r			; 0.072057
	DD	0bef3f412r			; -0.476471
	DD	0be088d65r			; -0.133352
	DD	03e2f42e9r			; 0.171154
	DD	03dc8c841r			; 0.0980382
	DD	080000000r			; -0
	DD	0bf6e1b14r			; -0.930101
	DD	0bebc0f5br			; -0.367305
	DD	0be1e3779r			; -0.154508
	DD	0bef37872r			; -0.475528
	DD	000000000r			; 0
	DD	03f000000r			; 0.5
	DD	03dccccc2r			; 0.0999999
	DD	0be253758r			; -0.161344
	DD	0bf7b86bbr			; -0.982525
	DD	0bdbe1301r			; -0.0928097
	DD	0bd9392a0r			; -0.072057
	DD	0bef3f412r			; -0.476471
	DD	0be088d65r			; -0.133352
	DD	03ea85e8cr			; 0.328846
	DD	03dc8c841r			; 0.0980382
	DD	0be253758r			; -0.161344
	DD	0bf7b86bar			; -0.982525
	DD	0bdbe1300r			; -0.0928097
	DD	000000000r			; 0
	DD	0befff0d2r			; -0.499884
	DD	0bc305011r			; -0.0107613
	DD	03e800000r			; 0.25
	DD	03be07fcfr			; 0.00685117
	DD	0be253758r			; -0.161344
	DD	0bf7b86bar			; -0.982525
	DD	0bdbe1300r			; -0.0928097
	DD	03d9392a0r			; 0.072057
	DD	0bef3f412r			; -0.476471
	DD	0be088d65r			; -0.133352
	DD	03e2f42e9r			; 0.171154
	DD	03dc8c841r			; 0.0980382
	DD	03e96c07ar			; 0.294437
	DD	0bf644ffar			; -0.891845
	DD	0beafd130r			; -0.343393
	DD	03e0be9b0r			; 0.136634
	DD	0bed17a63r			; -0.409137
	DD	0be8176e5r			; -0.25286
	DD	03e2f42e9r			; 0.171154
	DD	03e479c15r			; 0.194931
	DD	03e96c07ar			; 0.294437
	DD	0bf644ffar			; -0.891845
	DD	0beafd130r			; -0.343393
	DD	03e5e26aer			; 0.216944
	DD	0beded6a5r			; -0.435231
	DD	0bdee089fr			; -0.116227
	DD	03da0502fr			; 0.0782779
	DD	03e27c05ar			; 0.16382
	DD	03e96c07ar			; 0.294437
	DD	0bf644ffar			; -0.891845
	DD	0beafd130r			; -0.343393
	DD	000000000r			; 0
	DD	0befff0d2r			; -0.499884
	DD	0bc305011r			; -0.0107613
	DD	03fa00000r			; 1.25
	DD	03be07fcfr			; 0.00685117
	DD	03e253758r			; 0.161344
	DD	0bf7b86bar			; -0.982525
	DD	0bdbe1300r			; -0.0928097
	DD	03d9392a0r			; 0.072057
	DD	0bef3f412r			; -0.476471
	DD	0be088d65r			; -0.133352
	DD	03f95e85dr			; 1.17115
	DD	03dc8c841r			; 0.0980382
	DD	03e253758r			; 0.161344
	DD	0bf7b86bar			; -0.982525
	DD	0bdbe1300r			; -0.0928097
	DD	03e1e3779r			; 0.154508
	DD	0bef37872r			; -0.475528
	DD	000000000r			; 0
	DD	03f800000r			; 1
	DD	03dccccc2r			; 0.0999999
	DD	03e253758r			; 0.161344
	DD	0bf7b86bbr			; -0.982525
	DD	0bdbe1301r			; -0.0928097
	DD	0bda479fdr			; -0.0803108
	DD	0bef59195r			; -0.479626
	DD	03dee089er			; 0.116227
	DD	03f275d4fr			; 0.653768
	DD	03dbabcb2r			; 0.0911802
	DD	000000000r			; 0
	DD	0bf7ccdb3r			; -0.987514
	DD	03e21505br			; 0.157533
	DD	000000000r			; 0
	DD	0befff0d2r			; -0.499884
	DD	0bc305011r			; -0.0107613
	DD	03fa00000r			; 1.25
	DD	03be07fcfr			; 0.00685117
	DD	000000000r			; 0
	DD	0bf7ccdb3r			; -0.987514
	DD	03e21505br			; 0.157533
	DD	03da479fdr			; 0.0803108
	DD	0bef59195r			; -0.479626
	DD	03dee089er			; 0.116227
	DD	03f58a2b1r			; 0.846232
	DD	03dbabcb2r			; 0.0911802
	DD	000000000r			; 0
	DD	0bf7ccdb3r			; -0.987514
	DD	03e21505br			; 0.157533
	DD	03eb19b92r			; 0.34689
	DD	0beae8001r			; -0.34082
	DD	0bdee089er			; -0.116227
	DD	03d52c230r			; 0.0514547
	DD	03e85c4c1r			; 0.261267
	DD	03f299576r			; 0.662437
	DD	0bf232202r			; -0.637238
	DD	0bec9a4a5r			; -0.393834
	DD	03e869652r			; 0.262866
	DD	0beb93e4er			; -0.361803
	DD	0be64f923r			; -0.223607
	DD	03de5c099r			; 0.112184
	DD	03e784d6dr			; 0.242483
	DD	03f299576r			; 0.662437
	DD	0bf232203r			; -0.637238
	DD	0bec9a4a6r			; -0.393834
	DD	03eb19b96r			; 0.34689
	DD	0be8343c9r			; -0.256377
	DD	0be8176e5r			; -0.25286
	DD	03dcd4f48r			; 0.100249
	DD	03ea8419fr			; 0.328626
	DD	03f299575r			; 0.662437
	DD	0bf232203r			; -0.637238
	DD	0bec9a4a5r			; -0.393834
	DD	03edc9ce3r			; 0.430884
	DD	0be5cf24fr			; -0.215768
	DD	0be088d66r			; -0.133352
	DD	03d43a85br			; 0.047768
	DD	03eb74812r			; 0.357972
	DD	03f4e8806r			; 0.806763
	DD	0bed01264r			; -0.40639
	DD	0bedb9c9fr			; -0.428929
	DD	03eb19b96r			; 0.34689
	DD	0be8343c9r			; -0.256377
	DD	0be8176e5r			; -0.25286
	DD	03dcd4f48r			; 0.100249
	DD	03ea8419fr			; 0.328626
	DD	03f4e8806r			; 0.806763
	DD	0bed01264r			; -0.40639
	DD	0bedb9c9er			; -0.428929
	DD	03ecf1bc1r			; 0.404509
	DD	0be06964br			; -0.131433
	DD	0be86964br			; -0.262865
	DD	03dbbd50ar			; 0.0917149
	DD	03ed4a676r			; 0.415332
	DD	03f4e8807r			; 0.806763
	DD	0bed01264r			; -0.40639
	DD	0bedb9c9er			; -0.428929
	DD	03ecf1bbar			; 0.404508
	DD	0be96791br			; -0.293893
	DD	000000000r			; 0
	DD	03f800000r			; 1
	DD	03e999997r			; 0.3
	DD	03f4e8803r			; 0.806763
	DD	0bf10bd5er			; -0.56539
	DD	0be2fc885r			; -0.171663
	DD	03eb19b92r			; 0.34689
	DD	0beae8001r			; -0.34082
	DD	0bdee089er			; -0.116227
	DD	03f869612r			; 1.05145
	DD	03e85c4c1r			; 0.261267
	DD	03f4e8802r			; 0.806763
	DD	0bf10bd5er			; -0.56539
	DD	0be2fc884r			; -0.171663
	DD	03edc9ce3r			; 0.430884
	DD	0be5cf24fr			; -0.215768
	DD	0be088d66r			; -0.133352
	DD	03f861d43r			; 1.04777
	DD	03eb74812r			; 0.357972
	DD	03f4e8803r			; 0.806763
	DD	0bf10bd5er			; -0.56539
	DD	0be2fc885r			; -0.171663
	DD	03ef36a02r			; 0.475418
	DD	0bda1315dr			; -0.0787074
	DD	0be088d66r			; -0.133352
	DD	03d3245c9r			; 0.0435236
	DD	03ee63cfcr			; 0.449684
	DD	03f643cfar			; 0.891555
	DD	0be14eaa5r			; -0.145426
	DD	0bedb9c9dr			; -0.428929
	DD	03ecf1bc1r			; 0.404509
	DD	0be06964br			; -0.131433
	DD	0be86964br			; -0.262865
	DD	03dbbd50ar			; 0.0917149
	DD	03ed4a676r			; 0.415332
	DD	03f643cf8r			; 0.891555
	DD	0be14eaa4r			; -0.145426
	DD	0bedb9c9cr			; -0.428929
	DD	03edcd7dcr			; 0.431334
	DD	03b667124r			; 0.00351627
	DD	0be8176e5r			; -0.25286
	DD	03dacd41dr			; 0.0843889
	DD	03f0092b4r			; 0.502239
	DD	03f643cf9r			; 0.891555
	DD	0be14eaa5r			; -0.145426
	DD	0bedb9c9er			; -0.428929
	DD	03ef36a00r			; 0.475418
	DD	0be1e2e1cr			; -0.154473
	DD	0bc305012r			; -0.0107613
	DD	03b6c0e43r			; 0.00360192
	DD	03ecccfefr			; 0.400024
	DD	03f6f25ebr			; 0.934172
	DD	0be9b6869r			; -0.303531
	DD	0be401839r			; -0.187592
	DD	03edc9ce3r			; 0.430884
	DD	0be5cf24fr			; -0.215768
	DD	0be088d66r			; -0.133352
	DD	03d43a85br			; 0.047768
	DD	03eb74812r			; 0.357972
	DD	03f6f25ecr			; 0.934172
	DD	0be9b686ar			; -0.303531
	DD	0be40183ar			; -0.187592
	DD	03ef36a02r			; 0.475418
	DD	0bda1315dr			; -0.0787074
	DD	0be088d66r			; -0.133352
	DD	03d3245c9r			; 0.0435236
	DD	03ee63cfcr			; 0.449684
	DD	03f6f25ebr			; 0.934172
	DD	0be9b686ar			; -0.303531
	DD	0be401839r			; -0.187592
	DD	03edcd7d6r			; 0.431334
	DD	0be65fbb1r			; -0.224593
	DD	03dee089er			; 0.116227
	DD	03f7546a3r			; 0.958109
	DD	03eb413dfr			; 0.351714
	DD	03f643cf4r			; 0.891555
	DD	0bee5b9ccr			; -0.448683
	DD	03d7cecfbr			; 0.0617494
	DD	03ecf1bbar			; 0.404508
	DD	0be96791br			; -0.293893
	DD	000000000r			; 0
	DD	03f800000r			; 1
	DD	03e999997r			; 0.3
	DD	03f643cf3r			; 0.891555
	DD	0bee5b9ccr			; -0.448683
	DD	03d7cecfbr			; 0.0617494
	DD	03ef36a00r			; 0.475418
	DD	0be1e2e1cr			; -0.154473
	DD	0bc305012r			; -0.0107613
	DD	03f807607r			; 1.0036
	DD	03ecccfefr			; 0.400024
	DD	03f643cf4r			; 0.891555
	DD	0bee5b9ccr			; -0.448683
	DD	03d7cecfbr			; 0.0617494
	DD	03ef64193r			; 0.480969
	DD	03d931d00r			; 0.0718327
	DD	0bdee089fr			; -0.116227
	DD	03d1a91d8r			; 0.0377367
	DD	03f0bbf5fr			; 0.545889
	DD	03f691555r			; 0.910482
	DD	03e0131aar			; 0.126166
	DD	0bec9a49fr			; -0.393834
	DD	03edcd7dcr			; 0.431334
	DD	03b667124r			; 0.00351627
	DD	0be8176e5r			; -0.25286
	DD	03dacd41dr			; 0.0843889
	DD	03f0092b4r			; 0.502239
	DD	03f691554r			; 0.910482
	DD	03e0131aar			; 0.126166
	DD	0bec9a49dr			; -0.393834
	DD	03ed9c441r			; 0.425325
	DD	03e0d8379r			; 0.138197
	DD	0be64f921r			; -0.223607
	DD	03d9dc411r			; 0.0770341
	DD	03f16d1d6r			; 0.589139
	DD	03f691553r			; 0.910482
	DD	03e0131aar			; 0.126166
	DD	0bec9a49er			; -0.393834
	DD	03f000000r			; 0.5
	DD	000000000r			; 0
	DD	000000000r			; 0
	DD	03f800000r			; 1
	DD	03f000000r			; 0.5
	DD	03f7c29c7r			; 0.985012
	DD	0bc8991c0r			; -0.0167931
	DD	0be2fc89fr			; -0.171664
	DD	03ef36a02r			; 0.475418
	DD	0bda1315dr			; -0.0787074
	DD	0be088d66r			; -0.133352
	DD	03f85922er			; 1.04352
	DD	03ee63cfcr			; 0.449684
	DD	03f7c29c6r			; 0.985012
	DD	0bc8991bfr			; -0.0167931
	DD	0be2fc89er			; -0.171664
	DD	03ef64193r			; 0.480969
	DD	03d931d00r			; 0.0718327
	DD	0bdee089fr			; -0.116227
	DD	03f84d48fr			; 1.03774
	DD	03f0bbf5fr			; 0.545889
	DD	03f7c29c7r			; 0.985012
	DD	0bc8991c0r			; -0.0167931
	DD	0be2fc89dr			; -0.171664
	DD	03ef64193r			; 0.480969
	DD	0bd931d00r			; -0.0718327
	DD	03dee089fr			; 0.116227
	DD	03f7656e3r			; 0.962263
	DD	03ee88141r			; 0.454111
	DD	03f7c29c7r			; 0.985012
	DD	0be24ea8fr			; -0.161051
	DD	03d7ced4er			; 0.0617497
	DD	03ef36a00r			; 0.475418
	DD	0be1e2e1cr			; -0.154473
	DD	0bc305012r			; -0.0107613
	DD	03f807607r			; 1.0036
	DD	03ecccfefr			; 0.400024
	DD	03f7c29c8r			; 0.985013
	DD	0be24ea8fr			; -0.161051
	DD	03d7ced4dr			; 0.0617497
	DD	03f000000r			; 0.5
	DD	000000000r			; 0
	DD	000000000r			; 0
	DD	03f800000r			; 1
	DD	03f000000r			; 0.5
	DD	03f7c29c7r			; 0.985012
	DD	0be24ea8fr			; -0.161051
	DD	03d7ced4dr			; 0.0617497
	DD	03ed9c441r			; 0.425325
	DD	0be0d8379r			; -0.138197
	DD	03e64f921r			; 0.223607
	DD	03f6c477er			; 0.922966
	DD	03ed25c53r			; 0.410861
	DD	03f691553r			; 0.910482
	DD	0be977780r			; -0.295834
	DD	03e93f454r			; 0.288973
	DD	03edcd7d6r			; 0.431334
	DD	0be65fbb1r			; -0.224593
	DD	03dee089er			; 0.116227
	DD	03f7546a3r			; 0.958109
	DD	03eb413dfr			; 0.351714
	DD	03f691554r			; 0.910482
	DD	0be977780r			; -0.295834
	DD	03e93f454r			; 0.288973
	DD	03ef64193r			; 0.480969
	DD	0bd931d00r			; -0.0718327
	DD	03dee089fr			; 0.116227
	DD	03f7656e3r			; 0.962263
	DD	03ee88141r			; 0.454111
	DD	03f691553r			; 0.910482
	DD	0be97777fr			; -0.295834
	DD	03e93f453r			; 0.288973
	DD	03eb19b92r			; 0.34689
	DD	0beae8001r			; -0.34082
	DD	0bdee089er			; -0.116227
	DD	03d52c230r			; 0.0514547
	DD	03e85c4c1r			; 0.261267
	DD	03f41d874r			; 0.757209
	DD	0bf0e3d3er			; -0.555622
	DD	0beafd130r			; -0.343393
	DD	03eb19b96r			; 0.34689
	DD	0be8343c9r			; -0.256377
	DD	0be8176e5r			; -0.25286
	DD	03dcd4f48r			; 0.100249
	DD	03ea8419fr			; 0.328626
	DD	03f41d874r			; 0.757209
	DD	0bf0e3d3er			; -0.555622
	DD	0beafd131r			; -0.343393
	DD	03edc9ce3r			; 0.430884
	DD	0be5cf24fr			; -0.215768
	DD	0be088d66r			; -0.133352
	DD	03d43a85br			; 0.047768
	DD	03eb74812r			; 0.357972
	DD	03f41d873r			; 0.757209
	DD	0bf0e3d3er			; -0.555622
	DD	0beafd130r			; -0.343393
	DD	03edc9ce3r			; 0.430884
	DD	0be5cf24fr			; -0.215768
	DD	0be088d66r			; -0.133352
	DD	03d43a85br			; 0.047768
	DD	03eb74812r			; 0.357972
	DD	03f6273bbr			; 0.884578
	DD	0be932851r			; -0.287417
	DD	0bebc0f59r			; -0.367305
	DD	03ecf1bc1r			; 0.404509
	DD	0be06964br			; -0.131433
	DD	0be86964br			; -0.262865
	DD	03dbbd50ar			; 0.0917149
	DD	03ed4a676r			; 0.415332
	DD	03f6273bar			; 0.884578
	DD	0be93284fr			; -0.287417
	DD	0bebc0f58r			; -0.367305
	DD	03ef36a02r			; 0.475418
	DD	0bda1315dr			; -0.0787074
	DD	0be088d66r			; -0.133352
	DD	03d3245c9r			; 0.0435236
	DD	03ee63cfcr			; 0.449684
	DD	03f6273bar			; 0.884578
	DD	0be932850r			; -0.287417
	DD	0bebc0f59r			; -0.367305
	DD	03ecf1bbar			; 0.404508
	DD	0be96791br			; -0.293893
	DD	000000000r			; 0
	DD	03f800000r			; 1
	DD	03e999997r			; 0.3
	DD	03f6273b7r			; 0.884578
	DD	0beea045cr			; -0.457065
	DD	0bdbe12e9r			; -0.0928095
	DD	03edc9ce3r			; 0.430884
	DD	0be5cf24fr			; -0.215768
	DD	0be088d66r			; -0.133352
	DD	03f861d43r			; 1.04777
	DD	03eb74812r			; 0.357972
	DD	03f6273b5r			; 0.884578
	DD	0beea045ar			; -0.457064
	DD	0bdbe12e7r			; -0.0928095
	DD	03ef36a00r			; 0.475418
	DD	0be1e2e1cr			; -0.154473
	DD	0bc305012r			; -0.0107613
	DD	03f807607r			; 1.0036
	DD	03ecccfefr			; 0.400024
	DD	03f6273b7r			; 0.884578
	DD	0beea045cr			; -0.457065
	DD	0bdbe12ear			; -0.0928095
	DD	03ef36a02r			; 0.475418
	DD	0bda1315dr			; -0.0787074
	DD	0be088d66r			; -0.133352
	DD	03d3245c9r			; 0.0435236
	DD	03ee63cfcr			; 0.449684
	DD	03f706e33r			; 0.939182
	DD	03b91372fr			; 0.00443163
	DD	0beafd12ar			; -0.343393
	DD	03edcd7dcr			; 0.431334
	DD	03b667124r			; 0.00351627
	DD	0be8176e5r			; -0.25286
	DD	03dacd41dr			; 0.0843889
	DD	03f0092b4r			; 0.502239
	DD	03f706e31r			; 0.939181
	DD	03b91372er			; 0.00443163
	DD	0beafd12ar			; -0.343393
	DD	03ef64193r			; 0.480969
	DD	03d931d00r			; 0.0718327
	DD	0bdee089fr			; -0.116227
	DD	03d1a91d8r			; 0.0377367
	DD	03f0bbf5fr			; 0.545889
	DD	03f706e31r			; 0.939181
	DD	03b91372er			; 0.00443163
	DD	0beafd129r			; -0.343393
	DD	03ef36a00r			; 0.475418
	DD	0be1e2e1cr			; -0.154473
	DD	0bc305012r			; -0.0107613
	DD	03f807607r			; 1.0036
	DD	03ecccfefr			; 0.400024
	DD	03f7bfab9r			; 0.984294
	DD	0be19c604r			; -0.150169
	DD	0bdbe12eer			; -0.0928095
	DD	03ef36a02r			; 0.475418
	DD	0bda1315dr			; -0.0787074
	DD	0be088d66r			; -0.133352
	DD	03f85922er			; 1.04352
	DD	03ee63cfcr			; 0.449684
	DD	03f7bfab7r			; 0.984294
	DD	0be19c604r			; -0.150169
	DD	0bdbe12eer			; -0.0928095
	DD	03f000000r			; 0.5
	DD	000000000r			; 0
	DD	000000000r			; 0
	DD	03f800000r			; 1
	DD	03f000000r			; 0.5
	DD	03f7bfab7r			; 0.984294
	DD	0be19c604r			; -0.150169
	DD	0bdbe12eer			; -0.0928095
	DD	03edcd7d6r			; 0.431334
	DD	0be65fbb1r			; -0.224593
	DD	03dee089er			; 0.116227
	DD	03f7546a3r			; 0.958109
	DD	03eb413dfr			; 0.351714
	DD	03f706e2dr			; 0.939181
	DD	0be9c3dc0r			; -0.305159
	DD	03e215083r			; 0.157534
	DD	03ef36a00r			; 0.475418
	DD	0be1e2e1cr			; -0.154473
	DD	0bc305012r			; -0.0107613
	DD	03f807607r			; 1.0036
	DD	03ecccfefr			; 0.400024
	DD	03f706e2er			; 0.939181
	DD	0be9c3dbfr			; -0.305159
	DD	03e215082r			; 0.157534
	DD	03ef64193r			; 0.480969
	DD	0bd931d00r			; -0.0718327
	DD	03dee089fr			; 0.116227
	DD	03f7656e3r			; 0.962263
	DD	03ee88141r			; 0.454111
	DD	03f706e2fr			; 0.939181
	DD	0be9c3dc1r			; -0.305159
	DD	03e215084r			; 0.157534
	DD	03edcd7d6r			; 0.431334
	DD	03e65fbb1r			; 0.224593
	DD	0bdee089er			; -0.116227
	DD	03d2b95d6r			; 0.0418909
	DD	03f25f610r			; 0.648286
	DD	03f4f8d87r			; 0.810753
	DD	03eddbf02r			; 0.433098
	DD	0bec9a49er			; -0.393834
	DD	03ed9c441r			; 0.425325
	DD	03e0d8379r			; 0.138197
	DD	0be64f921r			; -0.223607
	DD	03d9dc411r			; 0.0770341
	DD	03f16d1d6r			; 0.589139
	DD	03f4f8d87r			; 0.810753
	DD	03eddbf02r			; 0.433098
	DD	0bec9a49er			; -0.393834
	DD	03eb3b959r			; 0.351023
	DD	03e805a1fr			; 0.250688
	DD	0be8176e4r			; -0.25286
	DD	03dcb79adr			; 0.0993532
	DD	03f2acbcfr			; 0.667172
	DD	03f4f8d87r			; 0.810753
	DD	03eddbf02r			; 0.433098
	DD	0bec9a49fr			; -0.393834
	DD	03ead3d48r			; 0.338358
	DD	03eafad5er			; 0.34312
	DD	0be088d63r			; -0.133352
	DD	03d74bcc3r			; 0.0597503
	DD	03f3da11dr			; 0.74074
	DD	03f22c407r			; 0.635804
	DD	03f24462fr			; 0.641696
	DD	0bedb9c93r			; -0.428929
	DD	03eb3b959r			; 0.351023
	DD	03e805a1fr			; 0.250688
	DD	0be8176e4r			; -0.25286
	DD	03dcb79adr			; 0.0993532
	DD	03f2acbcfr			; 0.667172
	DD	03f22c406r			; 0.635804
	DD	03f24462fr			; 0.641696
	DD	0bedb9c93r			; -0.428929
	DD	03e7fffffr			; 0.25
	DD	03eb02d4fr			; 0.344096
	DD	0be869648r			; -0.262865
	DD	03e041660r			; 0.128992
	DD	03f3dd92dr			; 0.741595
	DD	03f22c406r			; 0.635804
	DD	03f244630r			; 0.641696
	DD	0bedb9c93r			; -0.428929
	DD	03ecf1bbar			; 0.404508
	DD	03e96791br			; 0.293893
	DD	000000000r			; 0
	DD	03f800000r			; 1
	DD	03f333334r			; 0.7
	DD	03f497a2er			; 0.787021
	DD	03f17b22br			; 0.592562
	DD	0be2fc889r			; -0.171663
	DD	03edcd7d6r			; 0.431334
	DD	03e65fbb1r			; 0.224593
	DD	0bdee089er			; -0.116227
	DD	03f855cafr			; 1.04189
	DD	03f25f610r			; 0.648286
	DD	03f497a2fr			; 0.787021
	DD	03f17b22br			; 0.592562
	DD	0be2fc888r			; -0.171663
	DD	03ead3d48r			; 0.338358
	DD	03eafad5er			; 0.34312
	DD	0be088d63r			; -0.133352
	DD	03f87a5e6r			; 1.05975
	DD	03f3da11dr			; 0.74074
	DD	03f497a2fr			; 0.787021
	DD	03f17b22br			; 0.592562
	DD	0be2fc888r			; -0.171663
	DD	03e631705r			; 0.221768
	DD	03edb0c39r			; 0.427828
	DD	0be088d63r			; -0.133352
	DD	03db076car			; 0.0861641
	DD	03f53ac26r			; 0.826846
	DD	03ed3df81r			; 0.413815
	DD	03f4d901er			; 0.80298
	DD	0bedb9c99r			; -0.428929
	DD	03e7fffffr			; 0.25
	DD	03eb02d4fr			; 0.344096
	DD	0be869648r			; -0.262865
	DD	03e041660r			; 0.128992
	DD	03f3dd92dr			; 0.741595
	DD	03ed3df82r			; 0.413815
	DD	03f4d901er			; 0.80298
	DD	0bedb9c9ar			; -0.428929
	DD	03e051077r			; 0.129946
	DD	03ed29738r			; 0.41131
	DD	0be8176e3r			; -0.25286
	DD	03e32a274r			; 0.174448
	DD	03f4eb791r			; 0.807489
	DD	03ed3df81r			; 0.413815
	DD	03f4d901dr			; 0.80298
	DD	0bedb9c99r			; -0.428929
	DD	03e967029r			; 0.293824
	DD	03ecf0f76r			; 0.404415
	DD	0bc305010r			; -0.0107613
	DD	03bbeeb69r			; 0.0058264
	DD	03f4cc628r			; 0.799899
	DD	03f13cd3ar			; 0.57735
	DD	03f4b6e7cr			; 0.794655
	DD	0be401826r			; -0.187592
	DD	03ead3d48r			; 0.338358
	DD	03eafad5er			; 0.34312
	DD	0be088d63r			; -0.133352
	DD	03d74bcc3r			; 0.0597503
	DD	03f3da11dr			; 0.74074
	DD	03f13cd3ar			; 0.57735
	DD	03f4b6e7cr			; 0.794655
	DD	0be401826r			; -0.187592
	DD	03e631705r			; 0.221768
	DD	03edb0c39r			; 0.427828
	DD	0be088d63r			; -0.133352
	DD	03db076car			; 0.0861641
	DD	03f53ac26r			; 0.826846
	DD	03f13cd39r			; 0.57735
	DD	03f4b6e7br			; 0.794655
	DD	0be401824r			; -0.187592
	DD	03eb19b92r			; 0.34689
	DD	03eae8001r			; 0.34082
	DD	03dee089er			; 0.116227
	DD	03f72d3ddr			; 0.948545
	DD	03f3d1d9fr			; 0.738733
	DD	03f33c53cr			; 0.702228
	DD	03f3592a7r			; 0.709269
	DD	03d7cecbfr			; 0.0617492
	DD	03ecf1bbar			; 0.404508
	DD	03e96791br			; 0.293893
	DD	000000000r			; 0
	DD	03f800000r			; 1
	DD	03f333334r			; 0.7
	DD	03f33c53cr			; 0.702228
	DD	03f3592a7r			; 0.709269
	DD	03d7cecbfr			; 0.0617492
	DD	03e967029r			; 0.293824
	DD	03ecf0f76r			; 0.404415
	DD	0bc305010r			; -0.0107613
	DD	03f80beebr			; 1.00583
	DD	03f4cc628r			; 0.799899
	DD	03f33c53cr			; 0.702228
	DD	03f3592a6r			; 0.709269
	DD	03d7cecbfr			; 0.0617492
	DD	03da479fdr			; 0.0803108
	DD	03ef59195r			; 0.479626
	DD	0bdee089er			; -0.116227
	DD	03e1d753ar			; 0.153767
	DD	03f68a86ar			; 0.90882
	DD	03e253c69r			; 0.161363
	DD	03f67a7f7r			; 0.904907
	DD	0bec9a4afr			; -0.393835
	DD	03e051077r			; 0.129946
	DD	03ed29738r			; 0.41131
	DD	0be8176e3r			; -0.25286
	DD	03e32a274r			; 0.174448
	DD	03f4eb791r			; 0.807489
	DD	03e253c6ar			; 0.161363
	DD	03f67a7f9r			; 0.904907
	DD	0bec9a4afr			; -0.393835
	DD	000000000r			; 0
	DD	03ee4f931r			; 0.447214
	DD	0be64f91fr			; -0.223607
	DD	03e800000r			; 0.25
	DD	03f5a37f9r			; 0.852417
	DD	03e253c69r			; 0.161363
	DD	03f67a7f8r			; 0.904907
	DD	0bec9a4afr			; -0.393835
	DD	03e1e3779r			; 0.154508
	DD	03ef37872r			; 0.475528
	DD	000000000r			; 0
	DD	03f800000r			; 1
	DD	03f666667r			; 0.9
	DD	03ea405e2r			; 0.320357
	DD	03f6e7e31r			; 0.931613
	DD	0be2fc890r			; -0.171664
	DD	03e631705r			; 0.221768
	DD	03edb0c39r			; 0.427828
	DD	0be088d63r			; -0.133352
	DD	03f8b076dr			; 1.08616
	DD	03f53ac26r			; 0.826846
	DD	03ea405e1r			; 0.320357
	DD	03f6e7e30r			; 0.931613
	DD	0be2fc88fr			; -0.171664
	DD	03da479fdr			; 0.0803108
	DD	03ef59195r			; 0.479626
	DD	0bdee089er			; -0.116227
	DD	03f93aea7r			; 1.15377
	DD	03f68a86ar			; 0.90882
	DD	03ea405e3r			; 0.320357
	DD	03f6e7e32r			; 0.931613
	DD	0be2fc891r			; -0.171664
	DD	03e5e26aer			; 0.216944
	DD	03eded6a5r			; 0.435231
	DD	03dee089fr			; 0.116227
	DD	03f6bf5far			; 0.921722
	DD	03f560fe9r			; 0.83618
	DD	03eea4490r			; 0.457554
	DD	03f6314b9r			; 0.887035
	DD	03d7cecd6r			; 0.0617493
	DD	03e967029r			; 0.293824
	DD	03ecf0f76r			; 0.404415
	DD	0bc305010r			; -0.0107613
	DD	03f80beebr			; 1.00583
	DD	03f4cc628r			; 0.799899
	DD	03eea4491r			; 0.457554
	DD	03f6314bbr			; 0.887035
	DD	03d7cecd7r			; 0.0617493
	DD	03e1e3779r			; 0.154508
	DD	03ef37872r			; 0.475528
	DD	000000000r			; 0
	DD	03f800000r			; 1
	DD	03f666667r			; 0.9
	DD	03eea4490r			; 0.457554
	DD	03f6314bar			; 0.887035
	DD	03d7cecd5r			; 0.0617493
	DD	03e869652r			; 0.262866
	DD	03eb93e4er			; 0.361803
	DD	03e64f923r			; 0.223607
	DD	03f6347edr			; 0.887816
	DD	03f41eca5r			; 0.757517
	DD	03f100dabr			; 0.562709
	DD	03f4645c3r			; 0.774502
	DD	03e93f461r			; 0.288974
	DD	03eb19b92r			; 0.34689
	DD	03eae8001r			; 0.34082
	DD	03dee089er			; 0.116227
	DD	03f72d3ddr			; 0.948545
	DD	03f3d1d9fr			; 0.738733
	DD	03f100daar			; 0.562708
	DD	03f4645c1r			; 0.774502
	DD	03e93f461r			; 0.288974
	DD	03e5e26aer			; 0.216944
	DD	03eded6a5r			; 0.435231
	DD	03dee089fr			; 0.116227
	DD	03f6bf5far			; 0.921722
	DD	03f560fe9r			; 0.83618
	DD	03f100da9r			; 0.562708
	DD	03f4645c1r			; 0.774502
	DD	03e93f460r			; 0.288974
	DD	03edcd7d6r			; 0.431334
	DD	03e65fbb1r			; 0.224593
	DD	0bdee089er			; -0.116227
	DD	03d2b95d6r			; 0.0418909
	DD	03f25f610r			; 0.648286
	DD	03f432dd7r			; 0.762418
	DD	03f0c675fr			; 0.548452
	DD	0beafd128r			; -0.343393
	DD	03eb3b959r			; 0.351023
	DD	03e805a1fr			; 0.250688
	DD	0be8176e4r			; -0.25286
	DD	03dcb79adr			; 0.0993532
	DD	03f2acbcfr			; 0.667172
	DD	03f432dd7r			; 0.762418
	DD	03f0c675er			; 0.548452
	DD	0beafd128r			; -0.343393
	DD	03ead3d48r			; 0.338358
	DD	03eafad5er			; 0.34312
	DD	0be088d63r			; -0.133352
	DD	03d74bcc3r			; 0.0597503
	DD	03f3da11dr			; 0.74074
	DD	03f432dd8r			; 0.762418
	DD	03f0c6760r			; 0.548452
	DD	0beafd129r			; -0.343393
	DD	03ead3d48r			; 0.338358
	DD	03eafad5er			; 0.34312
	DD	0be088d63r			; -0.133352
	DD	03d74bcc3r			; 0.0597503
	DD	03f3da11dr			; 0.74074
	DD	03f0bf47fr			; 0.546699
	DD	03f40a1b2r			; 0.752467
	DD	0bebc0f55r			; -0.367304
	DD	03e7fffffr			; 0.25
	DD	03eb02d4fr			; 0.344096
	DD	0be869648r			; -0.262865
	DD	03e041660r			; 0.128992
	DD	03f3dd92dr			; 0.741595
	DD	03f0bf47fr			; 0.546699
	DD	03f40a1b2r			; 0.752467
	DD	0bebc0f56r			; -0.367305
	DD	03e631705r			; 0.221768
	DD	03edb0c39r			; 0.427828
	DD	0be088d63r			; -0.133352
	DD	03db076car			; 0.0861641
	DD	03f53ac26r			; 0.826846
	DD	03f0bf47fr			; 0.546699
	DD	03f40a1b2r			; 0.752467
	DD	0bebc0f56r			; -0.367305
	DD	03ecf1bbar			; 0.404508
	DD	03e96791br			; 0.293893
	DD	000000000r			; 0
	DD	03f800000r			; 1
	DD	03f333334r			; 0.7
	DD	03f354255r			; 0.708043
	DD	03f33360dr			; 0.700043
	DD	0bdbe12e1r			; -0.0928094
	DD	03ead3d48r			; 0.338358
	DD	03eafad5er			; 0.34312
	DD	0be088d63r			; -0.133352
	DD	03f87a5e6r			; 1.05975
	DD	03f3da11dr			; 0.74074
	DD	03f354255r			; 0.708043
	DD	03f33360dr			; 0.700043
	DD	0bdbe12e1r			; -0.0928094
	DD	03e967029r			; 0.293824
	DD	03ecf0f76r			; 0.404415
	DD	0bc305010r			; -0.0107613
	DD	03f80beebr			; 1.00583
	DD	03f4cc628r			; 0.799899
	DD	03f354256r			; 0.708043
	DD	03f33360er			; 0.700044
	DD	0bdbe12e2r			; -0.0928095
	DD	03e631705r			; 0.221768
	DD	03edb0c39r			; 0.427828
	DD	0be088d63r			; -0.133352
	DD	03db076car			; 0.0861641
	DD	03f53ac26r			; 0.826846
	DD	03e926fbfr			; 0.286009
	DD	03f650373r			; 0.894584
	DD	0beafd132r			; -0.343393
	DD	03e051077r			; 0.129946
	DD	03ed29738r			; 0.41131
	DD	0be8176e3r			; -0.25286
	DD	03e32a274r			; 0.174448
	DD	03f4eb791r			; 0.807489
	DD	03e926fber			; 0.286009
	DD	03f650373r			; 0.894584
	DD	0beafd132r			; -0.343393
	DD	03da479fdr			; 0.0803108
	DD	03ef59195r			; 0.479626
	DD	0bdee089er			; -0.116227
	DD	03e1d753ar			; 0.153767
	DD	03f68a86ar			; 0.90882
	DD	03e926fbfr			; 0.286009
	DD	03f650373r			; 0.894584
	DD	0beafd132r			; -0.343393
	DD	03e967029r			; 0.293824
	DD	03ecf0f76r			; 0.404415
	DD	0bc305010r			; -0.0107613
	DD	03f80beebr			; 1.00583
	DD	03f4cc628r			; 0.799899
	DD	03ee4db04r			; 0.446983
	DD	03f63c455r			; 0.889715
	DD	0bdbe12e7r			; -0.0928095
	DD	03e631705r			; 0.221768
	DD	03edb0c39r			; 0.427828
	DD	0be088d63r			; -0.133352
	DD	03f8b076dr			; 1.08616
	DD	03f53ac26r			; 0.826846
	DD	03ee4db06r			; 0.446984
	DD	03f63c457r			; 0.889715
	DD	0bdbe12e7r			; -0.0928095
	DD	03e1e3779r			; 0.154508
	DD	03ef37872r			; 0.475528
	DD	000000000r			; 0
	DD	03f800000r			; 1
	DD	03f666667r			; 0.9
	DD	03ee4db05r			; 0.446983
	DD	03f63c456r			; 0.889715
	DD	0bdbe12e7r			; -0.0928095
	DD	03eb19b92r			; 0.34689
	DD	03eae8001r			; 0.34082
	DD	03dee089er			; 0.116227
	DD	03f72d3ddr			; 0.948545
	DD	03f3d1d9fr			; 0.738733
	DD	03f14981dr			; 0.580446
	DD	03f4c85b7r			; 0.798915
	DD	03e21505cr			; 0.157533
	DD	03e967029r			; 0.293824
	DD	03ecf0f76r			; 0.404415
	DD	0bc305010r			; -0.0107613
	DD	03f80beebr			; 1.00583
	DD	03f4cc628r			; 0.799899
	DD	03f14981dr			; 0.580446
	DD	03f4c85b6r			; 0.798915
	DD	03e21505cr			; 0.157533
	DD	03e5e26aer			; 0.216944
	DD	03eded6a5r			; 0.435231
	DD	03dee089fr			; 0.116227
	DD	03f6bf5far			; 0.921722
	DD	03f560fe9r			; 0.83618
	DD	03f14981dr			; 0.580446
	DD	03f4c85b7r			; 0.798915
	DD	03e21505cr			; 0.157533
	DD	03da479fdr			; 0.0803108
	DD	03ef59195r			; 0.479626
	DD	0bdee089er			; -0.116227
	DD	03e1d753ar			; 0.153767
	DD	03f68a86ar			; 0.90882
	DD	000000000r			; 0
	DD	03f751409r			; 0.957337
	DD	0be93f470r			; -0.288974
	DD	000000000r			; 0
	DD	03ee4f931r			; 0.447214
	DD	0be64f91fr			; -0.223607
	DD	03e800000r			; 0.25
	DD	03f5a37f9r			; 0.852417
	DD	000000000r			; 0
	DD	03f751408r			; 0.957337
	DD	0be93f46fr			; -0.288974
	DD	0bda479fdr			; -0.0803108
	DD	03ef59195r			; 0.479626
	DD	0bdee089er			; -0.116227
	DD	03eb14563r			; 0.346233
	DD	03f68a86ar			; 0.90882
	DD	000000000r			; 0
	DD	03f751409r			; 0.957337
	DD	0be93f470r			; -0.288974
	DD	000000000r			; 0
	DD	03efff0d2r			; 0.499884
	DD	03c305011r			; 0.0107613
	DD	03f400000r			; 0.75
	DD	03f7e3f00r			; 0.993149
	DD	0be1ad899r			; -0.151217
	DD	03f7c8fdbr			; 0.98657
	DD	0bd7cecc2r			; -0.0617492
	DD	0bda479fdr			; -0.0803108
	DD	03ef59195r			; 0.479626
	DD	0bdee089er			; -0.116227
	DD	03eb14563r			; 0.346233
	DD	03f68a86ar			; 0.90882
	DD	0be1ad899r			; -0.151217
	DD	03f7c8fdbr			; 0.98657
	DD	0bd7cecc1r			; -0.0617492
	DD	0be1e3779r			; -0.154508
	DD	03ef37872r			; 0.475528
	DD	000000000r			; 0
	DD	03f000000r			; 0.5
	DD	03f666667r			; 0.9
	DD	0be1ad899r			; -0.151217
	DD	03f7c8fdbr			; 0.98657
	DD	0bd7cecc3r			; -0.0617492
	DD	03e1e3779r			; 0.154508
	DD	03ef37872r			; 0.475528
	DD	000000000r			; 0
	DD	03f800000r			; 1
	DD	03f666667r			; 0.9
	DD	03e1ad899r			; 0.151217
	DD	03f7c8fdbr			; 0.98657
	DD	0bd7cecc3r			; -0.0617492
	DD	03da479fdr			; 0.0803108
	DD	03ef59195r			; 0.479626
	DD	0bdee089er			; -0.116227
	DD	03f93aea7r			; 1.15377
	DD	03f68a86ar			; 0.90882
	DD	03e1ad899r			; 0.151217
	DD	03f7c8fdbr			; 0.98657
	DD	0bd7cecc1r			; -0.0617492
	DD	000000000r			; 0
	DD	03efff0d2r			; 0.499884
	DD	03c305011r			; 0.0107613
	DD	03f400000r			; 0.75
	DD	03f7e3f00r			; 0.993149
	DD	03e1ad899r			; 0.151217
	DD	03f7c8fdbr			; 0.98657
	DD	0bd7cecc2r			; -0.0617492
	DD	0bd9392a0r			; -0.072057
	DD	03ef3f412r			; 0.476471
	DD	03e088d64r			; 0.133352
	DD	03f2bd0bar			; 0.671154
	DD	03f66e6f7r			; 0.901962
	DD	0be93aaf8r			; -0.288414
	DD	03f712664r			; 0.941992
	DD	03e2fc897r			; 0.171664
	DD	0be1e3779r			; -0.154508
	DD	03ef37872r			; 0.475528
	DD	000000000r			; 0
	DD	03f000000r			; 0.5
	DD	03f666667r			; 0.9
	DD	0be93aaf7r			; -0.288414
	DD	03f712664r			; 0.941992
	DD	03e2fc897r			; 0.171664
	DD	0be5e26aer			; -0.216944
	DD	03eded6a5r			; 0.435231
	DD	03dee089fr			; 0.116227
	DD	03f140a06r			; 0.578278
	DD	03f560fe9r			; 0.83618
	DD	0be93aaf7r			; -0.288414
	DD	03f712664r			; 0.941992
	DD	03e2fc896r			; 0.171664
	DD	03d9392a0r			; 0.072057
	DD	03ef3f412r			; 0.476471
	DD	03e088d64r			; 0.133352
	DD	03f542f46r			; 0.828846
	DD	03f66e6f7r			; 0.901962
	DD	080000000r			; -0
	DD	03f7b748ar			; 0.982247
	DD	03e401836r			; 0.187592
	DD	000000000r			; 0
	DD	03efff0d2r			; 0.499884
	DD	03c305011r			; 0.0107613
	DD	03f400000r			; 0.75
	DD	03f7e3f00r			; 0.993149
	DD	080000000r			; -0
	DD	03f7b748ar			; 0.982247
	DD	03e401836r			; 0.187592
	DD	0bd9392a0r			; -0.072057
	DD	03ef3f412r			; 0.476471
	DD	03e088d64r			; 0.133352
	DD	03f2bd0bar			; 0.671154
	DD	03f66e6f7r			; 0.901962
	DD	080000000r			; -0
	DD	03f7b748ar			; 0.982247
	DD	03e401836r			; 0.187592
	DD	03e5e26aer			; 0.216944
	DD	03eded6a5r			; 0.435231
	DD	03dee089fr			; 0.116227
	DD	03f6bf5far			; 0.921722
	DD	03f560fe9r			; 0.83618
	DD	03e93aaf7r			; 0.288414
	DD	03f712664r			; 0.941992
	DD	03e2fc896r			; 0.171664
	DD	03e1e3779r			; 0.154508
	DD	03ef37872r			; 0.475528
	DD	000000000r			; 0
	DD	03f800000r			; 1
	DD	03f666667r			; 0.9
	DD	03e93aaf7r			; 0.288414
	DD	03f712664r			; 0.941992
	DD	03e2fc897r			; 0.171664
	DD	03d9392a0r			; 0.072057
	DD	03ef3f412r			; 0.476471
	DD	03e088d64r			; 0.133352
	DD	03f542f46r			; 0.828846
	DD	03f66e6f7r			; 0.901962
	DD	03e93aaf8r			; 0.288414
	DD	03f712664r			; 0.941992
	DD	03e2fc897r			; 0.171664
	DD	0be0be9b0r			; -0.136634
	DD	03ed17a63r			; 0.409137
	DD	03e8176e5r			; 0.25286
	DD	03f2bd0bar			; 0.671154
	DD	03f4e18far			; 0.805069
	DD	0becd7d17r			; -0.401345
	DD	03f53b1d3r			; 0.826932
	DD	03ec9a4abr			; 0.393834
	DD	0be5e26aer			; -0.216944
	DD	03eded6a5r			; 0.435231
	DD	03dee089fr			; 0.116227
	DD	03f140a06r			; 0.578278
	DD	03f560fe9r			; 0.83618
	DD	0becd7d16r			; -0.401345
	DD	03f53b1d3r			; 0.826932
	DD	03ec9a4aar			; 0.393834
	DD	0be869652r			; -0.262866
	DD	03eb93e4er			; 0.361803
	DD	03e64f923r			; 0.223607
	DD	03f1cb813r			; 0.612184
	DD	03f41eca5r			; 0.757517
	DD	0becd7d17r			; -0.401345
	DD	03f53b1d2r			; 0.826932
	DD	03ec9a4aar			; 0.393834
	DD	000000000r			; 0
	DD	03ed9c444r			; 0.425326
	DD	03e86964ar			; 0.262865
	DD	03f400000r			; 0.75
	DD	03f52e407r			; 0.823792
	DD	0be0c7d48r			; -0.137197
	DD	03f649266r			; 0.892859
	DD	03edb9c99r			; 0.428929
	DD	0bd9392a0r			; -0.072057
	DD	03ef3f412r			; 0.476471
	DD	03e088d64r			; 0.133352
	DD	03f2bd0bar			; 0.671154
	DD	03f66e6f7r			; 0.901962
	DD	0be0c7d47r			; -0.137197
	DD	03f649265r			; 0.892859
	DD	03edb9c97r			; 0.428929
	DD	0be0be9b0r			; -0.136634
	DD	03ed17a63r			; 0.409137
	DD	03e8176e5r			; 0.25286
	DD	03f2bd0bar			; 0.671154
	DD	03f4e18far			; 0.805069
	DD	0be0c7d48r			; -0.137197
	DD	03f649266r			; 0.892859
	DD	03edb9c97r			; 0.428929
	DD	03e0be9b0r			; 0.136634
	DD	03ed17a63r			; 0.409137
	DD	03e8176e5r			; 0.25286
	DD	03f542f46r			; 0.828846
	DD	03f4e18far			; 0.805069
	DD	03e0c7d48r			; 0.137197
	DD	03f649266r			; 0.892859
	DD	03edb9c97r			; 0.428929
	DD	03d9392a0r			; 0.072057
	DD	03ef3f412r			; 0.476471
	DD	03e088d64r			; 0.133352
	DD	03f542f46r			; 0.828846
	DD	03f66e6f7r			; 0.901962
	DD	03e0c7d47r			; 0.137197
	DD	03f649265r			; 0.892859
	DD	03edb9c97r			; 0.428929
	DD	000000000r			; 0
	DD	03ed9c444r			; 0.425326
	DD	03e86964ar			; 0.262865
	DD	03f400000r			; 0.75
	DD	03f52e407r			; 0.823792
	DD	03e0c7d48r			; 0.137197
	DD	03f649266r			; 0.892859
	DD	03edb9c99r			; 0.428929
	DD	03e869652r			; 0.262866
	DD	03eb93e4er			; 0.361803
	DD	03e64f923r			; 0.223607
	DD	03f6347edr			; 0.887816
	DD	03f41eca5r			; 0.757517
	DD	03ecd7d17r			; 0.401345
	DD	03f53b1d2r			; 0.826932
	DD	03ec9a4aar			; 0.393834
	DD	03e5e26aer			; 0.216944
	DD	03eded6a5r			; 0.435231
	DD	03dee089fr			; 0.116227
	DD	03f6bf5far			; 0.921722
	DD	03f560fe9r			; 0.83618
	DD	03ecd7d17r			; 0.401345
	DD	03f53b1d3r			; 0.826932
	DD	03ec9a4aar			; 0.393834
	DD	03e0be9b0r			; 0.136634
	DD	03ed17a63r			; 0.409137
	DD	03e8176e5r			; 0.25286
	DD	03f542f46r			; 0.828846
	DD	03f4e18far			; 0.805069
	DD	03ecd7d18r			; 0.401345
	DD	03f53b1d3r			; 0.826932
	DD	03ec9a4abr			; 0.393834
	DD	03da479fdr			; 0.0803108
	DD	03ef59195r			; 0.479626
	DD	0bdee089er			; -0.116227
	DD	03f93aea7r			; 1.15377
	DD	03f68a86ar			; 0.90882
	DD	000000000r			; 0
	DD	03f7ccdb3r			; 0.987514
	DD	0be21505br			; -0.157533
	DD	0bda479fdr			; -0.0803108
	DD	03ef59195r			; 0.479626
	DD	0bdee089er			; -0.116227
	DD	03eb14563r			; 0.346233
	DD	03f68a86ar			; 0.90882
	DD	000000000r			; 0
	DD	03f7ccdb3r			; 0.987514
	DD	0be21505br			; -0.157533
	DD	000000000r			; 0
	DD	03efff0d2r			; 0.499884
	DD	03c305011r			; 0.0107613
	DD	03f400000r			; 0.75
	DD	03f7e3f00r			; 0.993149
	DD	000000000r			; 0
	DD	03f7ccdb3r			; 0.987514
	DD	0be21505br			; -0.157533
	DD	000000000r			; 0
	DD	03efff0d2r			; 0.499884
	DD	03c305011r			; 0.0107613
	DD	03f400000r			; 0.75
	DD	03f7e3f00r			; 0.993149
	DD	0be253759r			; -0.161344
	DD	03f7b86bar			; 0.982525
	DD	03dbe1302r			; 0.0928097
	DD	0be1e3779r			; -0.154508
	DD	03ef37872r			; 0.475528
	DD	000000000r			; 0
	DD	03f000000r			; 0.5
	DD	03f666667r			; 0.9
	DD	0be253759r			; -0.161344
	DD	03f7b86bar			; 0.982525
	DD	03dbe1303r			; 0.0928097
	DD	0bd9392a0r			; -0.072057
	DD	03ef3f412r			; 0.476471
	DD	03e088d64r			; 0.133352
	DD	03f2bd0bar			; 0.671154
	DD	03f66e6f7r			; 0.901962
	DD	0be253759r			; -0.161344
	DD	03f7b86bbr			; 0.982525
	DD	03dbe1302r			; 0.0928097
	DD	03e1e3779r			; 0.154508
	DD	03ef37872r			; 0.475528
	DD	000000000r			; 0
	DD	03f800000r			; 1
	DD	03f666667r			; 0.9
	DD	03e253759r			; 0.161344
	DD	03f7b86bar			; 0.982525
	DD	03dbe1303r			; 0.0928097
	DD	000000000r			; 0
	DD	03efff0d2r			; 0.499884
	DD	03c305011r			; 0.0107613
	DD	03f400000r			; 0.75
	DD	03f7e3f00r			; 0.993149
	DD	03e253759r			; 0.161344
	DD	03f7b86bar			; 0.982525
	DD	03dbe1302r			; 0.0928097
	DD	03d9392a0r			; 0.072057
	DD	03ef3f412r			; 0.476471
	DD	03e088d64r			; 0.133352
	DD	03f542f46r			; 0.828846
	DD	03f66e6f7r			; 0.901962
	DD	03e253759r			; 0.161344
	DD	03f7b86bbr			; 0.982525
	DD	03dbe1302r			; 0.0928097
	DD	0bd9392a0r			; -0.072057
	DD	03ef3f412r			; 0.476471
	DD	03e088d64r			; 0.133352
	DD	03f2bd0bar			; 0.671154
	DD	03f66e6f7r			; 0.901962
	DD	0be96c077r			; -0.294437
	DD	03f644ffar			; 0.891845
	DD	03eafd12fr			; 0.343393
	DD	0be5e26aer			; -0.216944
	DD	03eded6a5r			; 0.435231
	DD	03dee089fr			; 0.116227
	DD	03f140a06r			; 0.578278
	DD	03f560fe9r			; 0.83618
	DD	0be96c078r			; -0.294437
	DD	03f644ffbr			; 0.891845
	DD	03eafd130r			; 0.343393
	DD	0be0be9b0r			; -0.136634
	DD	03ed17a63r			; 0.409137
	DD	03e8176e5r			; 0.25286
	DD	03f2bd0bar			; 0.671154
	DD	03f4e18far			; 0.805069
	DD	0be96c077r			; -0.294437
	DD	03f644ff9r			; 0.891845
	DD	03eafd12er			; 0.343393
	DD	03d9392a0r			; 0.072057
	DD	03ef3f412r			; 0.476471
	DD	03e088d64r			; 0.133352
	DD	03f542f46r			; 0.828846
	DD	03f66e6f7r			; 0.901962
	DD	000000000r			; 0
	DD	03f6e1b16r			; 0.930101
	DD	03ebc0f5br			; 0.367305
	DD	0bd9392a0r			; -0.072057
	DD	03ef3f412r			; 0.476471
	DD	03e088d64r			; 0.133352
	DD	03f2bd0bar			; 0.671154
	DD	03f66e6f7r			; 0.901962
	DD	000000000r			; 0
	DD	03f6e1b16r			; 0.930101
	DD	03ebc0f5br			; 0.367305
	DD	000000000r			; 0
	DD	03ed9c444r			; 0.425326
	DD	03e86964ar			; 0.262865
	DD	03f400000r			; 0.75
	DD	03f52e407r			; 0.823792
	DD	000000000r			; 0
	DD	03f6e1b14r			; 0.930101
	DD	03ebc0f5ar			; 0.367305
	DD	03e5e26aer			; 0.216944
	DD	03eded6a5r			; 0.435231
	DD	03dee089fr			; 0.116227
	DD	03f6bf5far			; 0.921722
	DD	03f560fe9r			; 0.83618
	DD	03e96c078r			; 0.294437
	DD	03f644ffbr			; 0.891845
	DD	03eafd130r			; 0.343393
	DD	03d9392a0r			; 0.072057
	DD	03ef3f412r			; 0.476471
	DD	03e088d64r			; 0.133352
	DD	03f542f46r			; 0.828846
	DD	03f66e6f7r			; 0.901962
	DD	03e96c077r			; 0.294437
	DD	03f644ffar			; 0.891845
	DD	03eafd12fr			; 0.343393
	DD	03e0be9b0r			; 0.136634
	DD	03ed17a63r			; 0.409137
	DD	03e8176e5r			; 0.25286
	DD	03f542f46r			; 0.828846
	DD	03f4e18far			; 0.805069
	DD	03e96c077r			; 0.294437
	DD	03f644ff9r			; 0.891845
	DD	03eafd12er			; 0.343393
	DD	0bedcd7d6r			; -0.431334
	DD	03e65fbb1r			; 0.224593
	DD	0bdee089er			; -0.116227
	DD	03eea8d45r			; 0.458109
	DD	03f25f610r			; 0.648286
	DD	0bf691554r			; -0.910482
	DD	03e977780r			; 0.295834
	DD	0be93f454r			; -0.288973
	DD	0bed9c441r			; -0.425325
	DD	03e0d8379r			; 0.138197
	DD	0be64f921r			; -0.223607
	DD	03ed88efcr			; 0.422966
	DD	03f16d1d6r			; 0.589139
	DD	0bf691553r			; -0.910482
	DD	03e977780r			; 0.295834
	DD	0be93f454r			; -0.288973
	DD	0bef64193r			; -0.480969
	DD	03d931d00r			; 0.0718327
	DD	0bdee089fr			; -0.116227
	DD	03eecadc5r			; 0.462263
	DD	03f0bbf5fr			; 0.545889
	DD	0bf691553r			; -0.910482
	DD	03e97777fr			; 0.295834
	DD	0be93f453r			; -0.288973
	DD	0bef36a00r			; -0.475418
	DD	03e1e2e1dr			; 0.154473
	DD	03c305013r			; 0.0107613
	DD	03f00ec0er			; 0.503602
	DD	03f199809r			; 0.599976
	DD	0bf7c29c6r			; -0.985012
	DD	03e24ea8cr			; 0.161051
	DD	0bd7ced4cr			; -0.0617497
	DD	0bef64193r			; -0.480969
	DD	03d931d00r			; 0.0718327
	DD	0bdee089fr			; -0.116227
	DD	03eecadc5r			; 0.462263
	DD	03f0bbf5fr			; 0.545889
	DD	0bf7c29c6r			; -0.985012
	DD	03e24ea8cr			; 0.161051
	DD	0bd7ced4dr			; -0.0617497
	DD	0bf000000r			; -0.5
	DD	000000000r			; 0
	DD	000000000r			; 0
	DD	03f000000r			; 0.5
	DD	03f000000r			; 0.5
	DD	0bf7c29c7r			; -0.985012
	DD	03e24ea8dr			; 0.161051
	DD	0bd7ced4dr			; -0.0617497
	DD	0becf1bbar			; -0.404508
	DD	03e96791br			; 0.293893
	DD	000000000r			; 0
	DD	03f000000r			; 0.5
	DD	03f333334r			; 0.7
	DD	0bf643cf3r			; -0.891555
	DD	03ee5b9cfr			; 0.448683
	DD	0bd7ced04r			; -0.0617495
	DD	0bedcd7d6r			; -0.431334
	DD	03e65fbb1r			; 0.224593
	DD	0bdee089er			; -0.116227
	DD	03eea8d45r			; 0.458109
	DD	03f25f610r			; 0.648286
	DD	0bf643cf4r			; -0.891555
	DD	03ee5b9d0r			; 0.448683
	DD	0bd7ced06r			; -0.0617495
	DD	0bef36a00r			; -0.475418
	DD	03e1e2e1dr			; 0.154473
	DD	03c305013r			; 0.0107613
	DD	03f00ec0er			; 0.503602
	DD	03f199809r			; 0.599976
	DD	0bf643cf2r			; -0.891555
	DD	03ee5b9cer			; 0.448683
	DD	0bd7ced04r			; -0.0617495
	DD	0bef36a02r			; -0.475418
	DD	03da1315dr			; 0.0787074
	DD	03e088d65r			; 0.133352
	DD	03f0b245cr			; 0.543524
	DD	03f0ce182r			; 0.550316
	DD	0bf7c29c7r			; -0.985012
	DD	03c8991c8r			; 0.0167931
	DD	03e2fc89fr			; 0.171664
	DD	0bf000000r			; -0.5
	DD	000000000r			; 0
	DD	000000000r			; 0
	DD	03f000000r			; 0.5
	DD	03f000000r			; 0.5
	DD	0bf7c29c7r			; -0.985012
	DD	03c8991c8r			; 0.0167931
	DD	03e2fc89fr			; 0.171664
	DD	0bef64193r			; -0.480969
	DD	0bd931d00r			; -0.0718327
	DD	03dee089fr			; 0.116227
	DD	03f09a91dr			; 0.537737
	DD	03ee88141r			; 0.454111
	DD	0bf7c29c7r			; -0.985012
	DD	03c8991c7r			; 0.0167931
	DD	03e2fc89dr			; 0.171664
	DD	0bedc9ce3r			; -0.430884
	DD	03e5cf24fr			; 0.215768
	DD	03e088d65r			; 0.133352
	DD	03f0c3a85r			; 0.547768
	DD	03f245bf7r			; 0.642028
	DD	0bf6f25edr			; -0.934172
	DD	03e9b686ar			; 0.303531
	DD	03e40183fr			; 0.187592
	DD	0bef36a00r			; -0.475418
	DD	03e1e2e1dr			; 0.154473
	DD	03c305013r			; 0.0107613
	DD	03f00ec0er			; 0.503602
	DD	03f199809r			; 0.599976
	DD	0bf6f25ecr			; -0.934172
	DD	03e9b686ar			; 0.303531
	DD	03e40183fr			; 0.187592
	DD	0bef36a02r			; -0.475418
	DD	03da1315dr			; 0.0787074
	DD	03e088d65r			; 0.133352
	DD	03f0b245cr			; 0.543524
	DD	03f0ce182r			; 0.550316
	DD	0bf6f25ecr			; -0.934172
	DD	03e9b686ar			; 0.303531
	DD	03e40183fr			; 0.187592
	DD	0beb19b92r			; -0.34689
	DD	03eae8001r			; 0.34082
	DD	03dee089er			; 0.116227
	DD	03f0d2c23r			; 0.551455
	DD	03f3d1d9fr			; 0.738733
	DD	0bf4e8804r			; -0.806763
	DD	03f10bd5er			; 0.56539
	DD	03e2fc887r			; 0.171663
	DD	0becf1bbar			; -0.404508
	DD	03e96791br			; 0.293893
	DD	000000000r			; 0
	DD	03f000000r			; 0.5
	DD	03f333334r			; 0.7
	DD	0bf4e8803r			; -0.806763
	DD	03f10bd5dr			; 0.565389
	DD	03e2fc885r			; 0.171663
	DD	0bedc9ce3r			; -0.430884
	DD	03e5cf24fr			; 0.215768
	DD	03e088d65r			; 0.133352
	DD	03f0c3a85r			; 0.547768
	DD	03f245bf7r			; 0.642028
	DD	0bf4e8803r			; -0.806763
	DD	03f10bd5er			; 0.56539
	DD	03e2fc885r			; 0.171663
	DD	0bedcd7dcr			; -0.431334
	DD	0bb667124r			; -0.00351627
	DD	03e8176e5r			; 0.25286
	DD	03f159a83r			; 0.584389
	DD	03efeda97r			; 0.497761
	DD	0bf691554r			; -0.910482
	DD	0be0131aar			; -0.126166
	DD	03ec9a49dr			; 0.393834
	DD	0bef64193r			; -0.480969
	DD	0bd931d00r			; -0.0718327
	DD	03dee089fr			; 0.116227
	DD	03f09a91dr			; 0.537737
	DD	03ee88141r			; 0.454111
	DD	0bf691555r			; -0.910482
	DD	0be0131aar			; -0.126166
	DD	03ec9a49fr			; 0.393834
	DD	0bed9c441r			; -0.425325
	DD	0be0d8379r			; -0.138197
	DD	03e64f921r			; 0.223607
	DD	03f13b882r			; 0.577034
	DD	03ed25c53r			; 0.410861
	DD	0bf691553r			; -0.910482
	DD	0be0131aar			; -0.126166
	DD	03ec9a49er			; 0.393834
	DD	0becf1bc1r			; -0.404509
	DD	03e06964br			; 0.131433
	DD	03e86964br			; 0.262865
	DD	03f177aa1r			; 0.591715
	DD	03f15acc5r			; 0.584668
	DD	0bf643cf8r			; -0.891555
	DD	03e14eaa4r			; 0.145426
	DD	03edb9c9cr			; 0.428929
	DD	0bef36a02r			; -0.475418
	DD	03da1315dr			; 0.0787074
	DD	03e088d65r			; 0.133352
	DD	03f0b245cr			; 0.543524
	DD	03f0ce182r			; 0.550316
	DD	0bf643cfar			; -0.891555
	DD	03e14eaa5r			; 0.145426
	DD	03edb9c9dr			; 0.428929
	DD	0bedcd7dcr			; -0.431334
	DD	0bb667124r			; -0.00351627
	DD	03e8176e5r			; 0.25286
	DD	03f159a83r			; 0.584389
	DD	03efeda97r			; 0.497761
	DD	0bf643cf9r			; -0.891555
	DD	03e14eaa5r			; 0.145426
	DD	03edb9c9er			; 0.428929
	DD	0beb19b96r			; -0.34689
	DD	03e8343c9r			; 0.256377
	DD	03e8176e5r			; 0.25286
	DD	03f19a9e9r			; 0.600249
	DD	03f2bdf31r			; 0.671374
	DD	0bf4e8807r			; -0.806763
	DD	03ed01264r			; 0.40639
	DD	03edb9c9br			; 0.428929
	DD	0bedc9ce3r			; -0.430884
	DD	03e5cf24fr			; 0.215768
	DD	03e088d65r			; 0.133352
	DD	03f0c3a85r			; 0.547768
	DD	03f245bf7r			; 0.642028
	DD	0bf4e8807r			; -0.806763
	DD	03ed01264r			; 0.40639
	DD	03edb9c9cr			; 0.428929
	DD	0becf1bc1r			; -0.404509
	DD	03e06964br			; 0.131433
	DD	03e86964br			; 0.262865
	DD	03f177aa1r			; 0.591715
	DD	03f15acc5r			; 0.584668
	DD	0bf4e8806r			; -0.806763
	DD	03ed01262r			; 0.40639
	DD	03edb9c9ar			; 0.428929
	DD	0be869652r			; -0.262866
	DD	03eb93e4er			; 0.361803
	DD	03e64f923r			; 0.223607
	DD	03f1cb813r			; 0.612184
	DD	03f41eca5r			; 0.757517
	DD	0bf299576r			; -0.662437
	DD	03f232203r			; 0.637238
	DD	03ec9a4a6r			; 0.393834
	DD	0beb19b92r			; -0.34689
	DD	03eae8001r			; 0.34082
	DD	03dee089er			; 0.116227
	DD	03f0d2c23r			; 0.551455
	DD	03f3d1d9fr			; 0.738733
	DD	0bf299576r			; -0.662437
	DD	03f232202r			; 0.637238
	DD	03ec9a4a5r			; 0.393834
	DD	0beb19b96r			; -0.34689
	DD	03e8343c9r			; 0.256377
	DD	03e8176e5r			; 0.25286
	DD	03f19a9e9r			; 0.600249
	DD	03f2bdf31r			; 0.671374
	DD	0bf299575r			; -0.662437
	DD	03f232203r			; 0.637238
	DD	03ec9a4a5r			; 0.393834
	DD	0bedcd7d6r			; -0.431334
	DD	03e65fbb1r			; 0.224593
	DD	0bdee089er			; -0.116227
	DD	03eea8d45r			; 0.458109
	DD	03f25f610r			; 0.648286
	DD	0bf706e2dr			; -0.939181
	DD	03e9c3dc0r			; 0.305159
	DD	0be215086r			; -0.157534
	DD	0bef64193r			; -0.480969
	DD	03d931d00r			; 0.0718327
	DD	0bdee089fr			; -0.116227
	DD	03eecadc5r			; 0.462263
	DD	03f0bbf5fr			; 0.545889
	DD	0bf706e2fr			; -0.939181
	DD	03e9c3dc1r			; 0.305159
	DD	0be215087r			; -0.157534
	DD	0bef36a00r			; -0.475418
	DD	03e1e2e1dr			; 0.154473
	DD	03c305013r			; 0.0107613
	DD	03f00ec0er			; 0.503602
	DD	03f199809r			; 0.599976
	DD	0bf706e2er			; -0.939181
	DD	03e9c3dbfr			; 0.305159
	DD	0be215086r			; -0.157534
	DD	0bef36a00r			; -0.475418
	DD	03e1e2e1dr			; 0.154473
	DD	03c305013r			; 0.0107613
	DD	03f00ec0er			; 0.503602
	DD	03f199809r			; 0.599976
	DD	0bf7bfab9r			; -0.984294
	DD	03e19c604r			; 0.150169
	DD	03dbe12f0r			; 0.0928096
	DD	0bf000000r			; -0.5
	DD	000000000r			; 0
	DD	000000000r			; 0
	DD	03f000000r			; 0.5
	DD	03f000000r			; 0.5
	DD	0bf7bfab7r			; -0.984294
	DD	03e19c604r			; 0.150169
	DD	03dbe12efr			; 0.0928096
	DD	0bef36a02r			; -0.475418
	DD	03da1315dr			; 0.0787074
	DD	03e088d65r			; 0.133352
	DD	03f0b245cr			; 0.543524
	DD	03f0ce182r			; 0.550316
	DD	0bf7bfab9r			; -0.984294
	DD	03e19c605r			; 0.150169
	DD	03dbe12f1r			; 0.0928096
	DD	0becf1bbar			; -0.404508
	DD	03e96791br			; 0.293893
	DD	000000000r			; 0
	DD	03f000000r			; 0.5
	DD	03f333334r			; 0.7
	DD	0bf6273b7r			; -0.884578
	DD	03eea045cr			; 0.457065
	DD	03dbe12efr			; 0.0928096
	DD	0bef36a00r			; -0.475418
	DD	03e1e2e1dr			; 0.154473
	DD	03c305013r			; 0.0107613
	DD	03f00ec0er			; 0.503602
	DD	03f199809r			; 0.599976
	DD	0bf6273b6r			; -0.884578
	DD	03eea045br			; 0.457064
	DD	03dbe12eer			; 0.0928095
	DD	0bedc9ce3r			; -0.430884
	DD	03e5cf24fr			; 0.215768
	DD	03e088d65r			; 0.133352
	DD	03f0c3a85r			; 0.547768
	DD	03f245bf7r			; 0.642028
	DD	0bf6273b5r			; -0.884578
	DD	03eea045ar			; 0.457064
	DD	03dbe12edr			; 0.0928095
	DD	0bef36a02r			; -0.475418
	DD	03da1315dr			; 0.0787074
	DD	03e088d65r			; 0.133352
	DD	03f0b245cr			; 0.543524
	DD	03f0ce182r			; 0.550316
	DD	0bf706e32r			; -0.939181
	DD	0bb9136dar			; -0.00443159
	DD	03eafd12br			; 0.343393
	DD	0bef64193r			; -0.480969
	DD	0bd931d00r			; -0.0718327
	DD	03dee089fr			; 0.116227
	DD	03f09a91dr			; 0.537737
	DD	03ee88141r			; 0.454111
	DD	0bf706e31r			; -0.939181
	DD	0bb9136d9r			; -0.00443159
	DD	03eafd129r			; 0.343393
	DD	0bedcd7dcr			; -0.431334
	DD	0bb667124r			; -0.00351627
	DD	03e8176e5r			; 0.25286
	DD	03f159a83r			; 0.584389
	DD	03efeda97r			; 0.497761
	DD	0bf706e31r			; -0.939181
	DD	0bb9136d9r			; -0.00443159
	DD	03eafd12ar			; 0.343393
	DD	0bedc9ce3r			; -0.430884
	DD	03e5cf24fr			; 0.215768
	DD	03e088d65r			; 0.133352
	DD	03f0c3a85r			; 0.547768
	DD	03f245bf7r			; 0.642028
	DD	0bf6273bbr			; -0.884578
	DD	03e932851r			; 0.287417
	DD	03ebc0f58r			; 0.367305
	DD	0bef36a02r			; -0.475418
	DD	03da1315dr			; 0.0787074
	DD	03e088d65r			; 0.133352
	DD	03f0b245cr			; 0.543524
	DD	03f0ce182r			; 0.550316
	DD	0bf6273b9r			; -0.884578
	DD	03e93284fr			; 0.287417
	DD	03ebc0f57r			; 0.367305
	DD	0becf1bc1r			; -0.404509
	DD	03e06964br			; 0.131433
	DD	03e86964br			; 0.262865
	DD	03f177aa1r			; 0.591715
	DD	03f15acc5r			; 0.584668
	DD	0bf6273b9r			; -0.884578
	DD	03e93284fr			; 0.287417
	DD	03ebc0f57r			; 0.367305
	DD	0beb19b92r			; -0.34689
	DD	03eae8001r			; 0.34082
	DD	03dee089er			; 0.116227
	DD	03f0d2c23r			; 0.551455
	DD	03f3d1d9fr			; 0.738733
	DD	0bf41d876r			; -0.757209
	DD	03f0e3d3cr			; 0.555622
	DD	03eafd130r			; 0.343393
	DD	0bedc9ce3r			; -0.430884
	DD	03e5cf24fr			; 0.215768
	DD	03e088d65r			; 0.133352
	DD	03f0c3a85r			; 0.547768
	DD	03f245bf7r			; 0.642028
	DD	0bf41d875r			; -0.757209
	DD	03f0e3d3cr			; 0.555622
	DD	03eafd130r			; 0.343393
	DD	0beb19b96r			; -0.34689
	DD	03e8343c9r			; 0.256377
	DD	03e8176e5r			; 0.25286
	DD	03f19a9e9r			; 0.600249
	DD	03f2bdf31r			; 0.671374
	DD	0bf41d875r			; -0.757209
	DD	03f0e3d3br			; 0.555622
	DD	03eafd12fr			; 0.343393
	DD	0beb19b92r			; -0.34689
	DD	0beae8001r			; -0.34082
	DD	0bdee089er			; -0.116227
	DD	03ee5a7bar			; 0.448545
	DD	03e85c4c1r			; 0.261267
	DD	0bf100daar			; -0.562708
	DD	0bf4645c1r			; -0.774502
	DD	0be93f461r			; -0.288974
	DD	0be869652r			; -0.262866
	DD	0beb93e4er			; -0.361803
	DD	0be64f923r			; -0.223607
	DD	03ec68fdar			; 0.387816
	DD	03e784d6dr			; 0.242483
	DD	0bf100dabr			; -0.562709
	DD	0bf4645c3r			; -0.774502
	DD	0be93f461r			; -0.288974
	DD	0be5e26aer			; -0.216944
	DD	0beded6a5r			; -0.435231
	DD	0bdee089fr			; -0.116227
	DD	03ed7ebf4r			; 0.421722
	DD	03e27c05ar			; 0.16382
	DD	0bf100da9r			; -0.562708
	DD	0bf4645c1r			; -0.774502
	DD	0be93f460r			; -0.288974
	DD	0be96702ar			; -0.293824
	DD	0becf0f76r			; -0.404415
	DD	03c305011r			; 0.0107613
	DD	03f017dd7r			; 0.505826
	DD	03e4ce764r			; 0.200101
	DD	0beea4490r			; -0.457554
	DD	0bf6314bbr			; -0.887035
	DD	0bd7cece5r			; -0.0617494
	DD	0be5e26aer			; -0.216944
	DD	0beded6a5r			; -0.435231
	DD	0bdee089fr			; -0.116227
	DD	03ed7ebf4r			; 0.421722
	DD	03e27c05ar			; 0.16382
	DD	0beea448er			; -0.457554
	DD	0bf6314b9r			; -0.887035
	DD	0bd7cece4r			; -0.0617494
	DD	0be1e3779r			; -0.154508
	DD	0bef37872r			; -0.475528
	DD	000000000r			; 0
	DD	03f000000r			; 0.5
	DD	03dccccc2r			; 0.0999999
	DD	0beea448fr			; -0.457554
	DD	0bf6314bar			; -0.887035
	DD	0bd7cece4r			; -0.0617494
	DD	0becf1bbar			; -0.404508
	DD	0be96791br			; -0.293893
	DD	000000000r			; 0
	DD	03f000000r			; 0.5
	DD	03e999997r			; 0.3
	DD	0bf33c53er			; -0.702228
	DD	0bf3592a3r			; -0.709269
	DD	0bd7cecd2r			; -0.0617493
	DD	0beb19b92r			; -0.34689
	DD	0beae8001r			; -0.34082
	DD	0bdee089er			; -0.116227
	DD	03ee5a7bar			; 0.448545
	DD	03e85c4c1r			; 0.261267
	DD	0bf33c53er			; -0.702228
	DD	0bf3592a4r			; -0.709269
	DD	0bd7cecd3r			; -0.0617493
	DD	0be96702ar			; -0.293824
	DD	0becf0f76r			; -0.404415
	DD	03c305011r			; 0.0107613
	DD	03f017dd7r			; 0.505826
	DD	03e4ce764r			; 0.200101
	DD	0bf33c53fr			; -0.702228
	DD	0bf3592a5r			; -0.709269
	DD	0bd7cecd3r			; -0.0617493
	DD	0be631705r			; -0.221768
	DD	0bedb0c39r			; -0.427828
	DD	03e088d63r			; 0.133352
	DD	03f160edar			; 0.586164
	DD	03e314f66r			; 0.173154
	DD	0bea405e1r			; -0.320357
	DD	0bf6e7e30r			; -0.931613
	DD	03e2fc88fr			; 0.171664
	DD	0be1e3779r			; -0.154508
	DD	0bef37872r			; -0.475528
	DD	000000000r			; 0
	DD	03f000000r			; 0.5
	DD	03dccccc2r			; 0.0999999
	DD	0bea405e2r			; -0.320357
	DD	0bf6e7e31r			; -0.931613
	DD	03e2fc890r			; 0.171664
	DD	0bda479fdr			; -0.0803108
	DD	0bef59195r			; -0.479626
	DD	03dee089er			; 0.116227
	DD	03f275d4fr			; 0.653768
	DD	03dbabcb2r			; 0.0911802
	DD	0bea405e3r			; -0.320357
	DD	0bf6e7e32r			; -0.931613
	DD	03e2fc891r			; 0.171664
	DD	0bead3d48r			; -0.338358
	DD	0beafad5er			; -0.34312
	DD	03e088d63r			; 0.133352
	DD	03f0f4bccr			; 0.55975
	DD	03e84bdc6r			; 0.25926
	DD	0bf13cd3ar			; -0.57735
	DD	0bf4b6e7cr			; -0.794655
	DD	03e401830r			; 0.187592
	DD	0be96702ar			; -0.293824
	DD	0becf0f76r			; -0.404415
	DD	03c305011r			; 0.0107613
	DD	03f017dd7r			; 0.505826
	DD	03e4ce764r			; 0.200101
	DD	0bf13cd3ar			; -0.57735
	DD	0bf4b6e7cr			; -0.794655
	DD	03e401830r			; 0.187592
	DD	0be631705r			; -0.221768
	DD	0bedb0c39r			; -0.427828
	DD	03e088d63r			; 0.133352
	DD	03f160edar			; 0.586164
	DD	03e314f66r			; 0.173154
	DD	0bf13cd3br			; -0.57735
	DD	0bf4b6e7br			; -0.794655
	DD	03e401830r			; 0.187592
	DD	0bedcd7d6r			; -0.431334
	DD	0be65fbb1r			; -0.224593
	DD	03dee089er			; 0.116227
	DD	03f0ab95er			; 0.541891
	DD	03eb413dfr			; 0.351714
	DD	0bf497a2fr			; -0.787021
	DD	0bf17b22br			; -0.592562
	DD	03e2fc888r			; 0.171663
	DD	0becf1bbar			; -0.404508
	DD	0be96791br			; -0.293893
	DD	000000000r			; 0
	DD	03f000000r			; 0.5
	DD	03e999997r			; 0.3
	DD	0bf497a2er			; -0.787021
	DD	0bf17b22br			; -0.592562
	DD	03e2fc889r			; 0.171663
	DD	0bead3d48r			; -0.338358
	DD	0beafad5er			; -0.34312
	DD	03e088d63r			; 0.133352
	DD	03f0f4bccr			; 0.55975
	DD	03e84bdc6r			; 0.25926
	DD	0bf497a2fr			; -0.787021
	DD	0bf17b22br			; -0.592562
	DD	03e2fc888r			; 0.171663
	DD	0be051077r			; -0.129946
	DD	0bed29738r			; -0.41131
	DD	03e8176e3r			; 0.25286
	DD	03f2ca89dr			; 0.674448
	DD	03e4521bfr			; 0.192512
	DD	0be253c6ar			; -0.161363
	DD	0bf67a7f9r			; -0.904907
	DD	03ec9a4afr			; 0.393835
	DD	0bda479fdr			; -0.0803108
	DD	0bef59195r			; -0.479626
	DD	03dee089er			; 0.116227
	DD	03f275d4fr			; 0.653768
	DD	03dbabcb2r			; 0.0911802
	DD	0be253c69r			; -0.161363
	DD	0bf67a7f7r			; -0.904907
	DD	03ec9a4afr			; 0.393835
	DD	000000000r			; 0
	DD	0bee4f931r			; -0.447214
	DD	03e64f91fr			; 0.223607
	DD	03f400000r			; 0.75
	DD	03e17201er			; 0.147583
	DD	0be253c69r			; -0.161363
	DD	0bf67a7f8r			; -0.904907
	DD	03ec9a4afr			; 0.393835
	DD	0be7fffffr			; -0.25
	DD	0beb02d4fr			; -0.344096
	DD	03e869648r			; 0.262865
	DD	03f210598r			; 0.628992
	DD	03e844da7r			; 0.258405
	DD	0bed3df82r			; -0.413815
	DD	0bf4d901er			; -0.80298
	DD	03edb9c9ar			; 0.428929
	DD	0be631705r			; -0.221768
	DD	0bedb0c39r			; -0.427828
	DD	03e088d63r			; 0.133352
	DD	03f160edar			; 0.586164
	DD	03e314f66r			; 0.173154
	DD	0bed3df81r			; -0.413815
	DD	0bf4d901er			; -0.80298
	DD	03edb9c99r			; 0.428929
	DD	0be051077r			; -0.129946
	DD	0bed29738r			; -0.41131
	DD	03e8176e3r			; 0.25286
	DD	03f2ca89dr			; 0.674448
	DD	03e4521bfr			; 0.192512
	DD	0bed3df81r			; -0.413815
	DD	0bf4d901dr			; -0.80298
	DD	03edb9c99r			; 0.428929
	DD	0beb3b959r			; -0.351023
	DD	0be805a1fr			; -0.250688
	DD	03e8176e4r			; 0.25286
	DD	03f196f36r			; 0.599353
	DD	03eaa6864r			; 0.332828
	DD	0bf22c406r			; -0.635804
	DD	0bf24462fr			; -0.641696
	DD	03edb9c93r			; 0.428929
	DD	0bead3d48r			; -0.338358
	DD	0beafad5er			; -0.34312
	DD	03e088d63r			; 0.133352
	DD	03f0f4bccr			; 0.55975
	DD	03e84bdc6r			; 0.25926
	DD	0bf22c407r			; -0.635804
	DD	0bf24462fr			; -0.641696
	DD	03edb9c93r			; 0.428929
	DD	0be7fffffr			; -0.25
	DD	0beb02d4fr			; -0.344096
	DD	03e869648r			; 0.262865
	DD	03f210598r			; 0.628992
	DD	03e844da7r			; 0.258405
	DD	0bf22c406r			; -0.635804
	DD	0bf244630r			; -0.641696
	DD	03edb9c93r			; 0.428929
	DD	0bed9c441r			; -0.425325
	DD	0be0d8379r			; -0.138197
	DD	03e64f921r			; 0.223607
	DD	03f13b882r			; 0.577034
	DD	03ed25c53r			; 0.410861
	DD	0bf4f8d87r			; -0.810753
	DD	0beddbf02r			; -0.433098
	DD	03ec9a49er			; 0.393834
	DD	0bedcd7d6r			; -0.431334
	DD	0be65fbb1r			; -0.224593
	DD	03dee089er			; 0.116227
	DD	03f0ab95er			; 0.541891
	DD	03eb413dfr			; 0.351714
	DD	0bf4f8d87r			; -0.810753
	DD	0beddbf02r			; -0.433098
	DD	03ec9a49er			; 0.393834
	DD	0beb3b959r			; -0.351023
	DD	0be805a1fr			; -0.250688
	DD	03e8176e4r			; 0.25286
	DD	03f196f36r			; 0.599353
	DD	03eaa6864r			; 0.332828
	DD	0bf4f8d87r			; -0.810753
	DD	0beddbf02r			; -0.433098
	DD	03ec9a49fr			; 0.393834
	DD	0beb19b92r			; -0.34689
	DD	0beae8001r			; -0.34082
	DD	0bdee089er			; -0.116227
	DD	03ee5a7bar			; 0.448545
	DD	03e85c4c1r			; 0.261267
	DD	0bf14981cr			; -0.580446
	DD	0bf4c85b7r			; -0.798915
	DD	0be215064r			; -0.157533
	DD	0be5e26aer			; -0.216944
	DD	0beded6a5r			; -0.435231
	DD	0bdee089fr			; -0.116227
	DD	03ed7ebf4r			; 0.421722
	DD	03e27c05ar			; 0.16382
	DD	0bf14981cr			; -0.580446
	DD	0bf4c85b7r			; -0.798915
	DD	0be215064r			; -0.157533
	DD	0be96702ar			; -0.293824
	DD	0becf0f76r			; -0.404415
	DD	03c305011r			; 0.0107613
	DD	03f017dd7r			; 0.505826
	DD	03e4ce764r			; 0.200101
	DD	0bf14981cr			; -0.580446
	DD	0bf4c85b6r			; -0.798915
	DD	0be215064r			; -0.157533
	DD	0be96702ar			; -0.293824
	DD	0becf0f76r			; -0.404415
	DD	03c305011r			; 0.0107613
	DD	03f017dd7r			; 0.505826
	DD	03e4ce764r			; 0.200101
	DD	0bee4db02r			; -0.446983
	DD	0bf63c456r			; -0.889715
	DD	03dbe12edr			; 0.0928095
	DD	0be1e3779r			; -0.154508
	DD	0bef37872r			; -0.475528
	DD	000000000r			; 0
	DD	03f000000r			; 0.5
	DD	03dccccc2r			; 0.0999999
	DD	0bee4db03r			; -0.446983
	DD	0bf63c457r			; -0.889715
	DD	03dbe12efr			; 0.0928096
	DD	0be631705r			; -0.221768
	DD	0bedb0c39r			; -0.427828
	DD	03e088d63r			; 0.133352
	DD	03f160edar			; 0.586164
	DD	03e314f66r			; 0.173154
	DD	0bee4db03r			; -0.446983
	DD	0bf63c457r			; -0.889715
	DD	03dbe12eer			; 0.0928095
	DD	0becf1bbar			; -0.404508
	DD	0be96791br			; -0.293893
	DD	000000000r			; 0
	DD	03f000000r			; 0.5
	DD	03e999997r			; 0.3
	DD	0bf354258r			; -0.708044
	DD	0bf33360br			; -0.700043
	DD	03dbe12efr			; 0.0928096
	DD	0be96702ar			; -0.293824
	DD	0becf0f76r			; -0.404415
	DD	03c305011r			; 0.0107613
	DD	03f017dd7r			; 0.505826
	DD	03e4ce764r			; 0.200101
	DD	0bf354258r			; -0.708044
	DD	0bf33360br			; -0.700043
	DD	03dbe12eer			; 0.0928095
	DD	0bead3d48r			; -0.338358
	DD	0beafad5er			; -0.34312
	DD	03e088d63r			; 0.133352
	DD	03f0f4bccr			; 0.55975
	DD	03e84bdc6r			; 0.25926
	DD	0bf354258r			; -0.708044
	DD	0bf33360br			; -0.700043
	DD	03dbe12eer			; 0.0928095
	DD	0be631705r			; -0.221768
	DD	0bedb0c39r			; -0.427828
	DD	03e088d63r			; 0.133352
	DD	03f160edar			; 0.586164
	DD	03e314f66r			; 0.173154
	DD	0be926fber			; -0.286009
	DD	0bf650373r			; -0.894584
	DD	03eafd132r			; 0.343393
	DD	0bda479fdr			; -0.0803108
	DD	0bef59195r			; -0.479626
	DD	03dee089er			; 0.116227
	DD	03f275d4fr			; 0.653768
	DD	03dbabcb2r			; 0.0911802
	DD	0be926fber			; -0.286009
	DD	0bf650373r			; -0.894584
	DD	03eafd132r			; 0.343393
	DD	0be051077r			; -0.129946
	DD	0bed29738r			; -0.41131
	DD	03e8176e3r			; 0.25286
	DD	03f2ca89dr			; 0.674448
	DD	03e4521bfr			; 0.192512
	DD	0be926fbdr			; -0.286009
	DD	0bf650373r			; -0.894584
	DD	03eafd132r			; 0.343393
	DD	0bead3d48r			; -0.338358
	DD	0beafad5er			; -0.34312
	DD	03e088d63r			; 0.133352
	DD	03f0f4bccr			; 0.55975
	DD	03e84bdc6r			; 0.25926
	DD	0bf0bf47fr			; -0.546699
	DD	0bf40a1b2r			; -0.752467
	DD	03ebc0f55r			; 0.367304
	DD	0be631705r			; -0.221768
	DD	0bedb0c39r			; -0.427828
	DD	03e088d63r			; 0.133352
	DD	03f160edar			; 0.586164
	DD	03e314f66r			; 0.173154
	DD	0bf0bf47fr			; -0.546699
	DD	0bf40a1b2r			; -0.752467
	DD	03ebc0f56r			; 0.367305
	DD	0be7fffffr			; -0.25
	DD	0beb02d4fr			; -0.344096
	DD	03e869648r			; 0.262865
	DD	03f210598r			; 0.628992
	DD	03e844da7r			; 0.258405
	DD	0bf0bf47fr			; -0.546699
	DD	0bf40a1b2r			; -0.752467
	DD	03ebc0f56r			; 0.367305
	DD	0bedcd7d6r			; -0.431334
	DD	0be65fbb1r			; -0.224593
	DD	03dee089er			; 0.116227
	DD	03f0ab95er			; 0.541891
	DD	03eb413dfr			; 0.351714
	DD	0bf432dd7r			; -0.762418
	DD	0bf0c675fr			; -0.548452
	DD	03eafd128r			; 0.343393
	DD	0bead3d48r			; -0.338358
	DD	0beafad5er			; -0.34312
	DD	03e088d63r			; 0.133352
	DD	03f0f4bccr			; 0.55975
	DD	03e84bdc6r			; 0.25926
	DD	0bf432dd8r			; -0.762418
	DD	0bf0c6760r			; -0.548452
	DD	03eafd129r			; 0.343393
	DD	0beb3b959r			; -0.351023
	DD	0be805a1fr			; -0.250688
	DD	03e8176e4r			; 0.25286
	DD	03f196f36r			; 0.599353
	DD	03eaa6864r			; 0.332828
	DD	0bf432dd7r			; -0.762418
	DD	0bf0c675er			; -0.548452
	DD	03eafd128r			; 0.343393
	DD	03e5e26aer			; 0.216944
	DD	0beded6a5r			; -0.435231
	DD	0bdee089fr			; -0.116227
	DD	03da0502fr			; 0.0782779
	DD	03e27c05ar			; 0.16382
	DD	03f100dabr			; 0.562709
	DD	0bf4645c1r			; -0.774502
	DD	0be93f461r			; -0.288974
	DD	03e869652r			; 0.262866
	DD	0beb93e4er			; -0.361803
	DD	0be64f923r			; -0.223607
	DD	03de5c099r			; 0.112184
	DD	03e784d6dr			; 0.242483
	DD	03f100dacr			; 0.562709
	DD	0bf4645c3r			; -0.774502
	DD	0be93f462r			; -0.288974
	DD	03eb19b92r			; 0.34689
	DD	0beae8001r			; -0.34082
	DD	0bdee089er			; -0.116227
	DD	03d52c230r			; 0.0514547
	DD	03e85c4c1r			; 0.261267
	DD	03f100dacr			; 0.562709
	DD	0bf4645c1r			; -0.774502
	DD	0be93f462r			; -0.288974
	DD	03e96702ar			; 0.293824
	DD	0becf0f76r			; -0.404415
	DD	03c305011r			; 0.0107613
	DD	03f7e8229r			; 0.994174
	DD	03e4ce764r			; 0.200101
	DD	03f33c53fr			; 0.702228
	DD	0bf3592a5r			; -0.709269
	DD	0bd7cecd3r			; -0.0617493
	DD	03eb19b92r			; 0.34689
	DD	0beae8001r			; -0.34082
	DD	0bdee089er			; -0.116227
	DD	03f869612r			; 1.05145
	DD	03e85c4c1r			; 0.261267
	DD	03f33c53er			; 0.702228
	DD	0bf3592a4r			; -0.709269
	DD	0bd7cecd3r			; -0.0617493
	DD	03ecf1bbar			; 0.404508
	DD	0be96791br			; -0.293893
	DD	000000000r			; 0
	DD	03f800000r			; 1
	DD	03e999997r			; 0.3
	DD	03f33c53er			; 0.702228
	DD	0bf3592a3r			; -0.709269
	DD	0bd7cecd2r			; -0.0617493
	DD	03e1e3779r			; 0.154508
	DD	0bef37872r			; -0.475528
	DD	000000000r			; 0
	DD	03f800000r			; 1
	DD	03dccccc2r			; 0.0999999
	DD	03eea448er			; 0.457554
	DD	0bf6314bar			; -0.887035
	DD	0bd7cece2r			; -0.0617493
	DD	03e5e26aer			; 0.216944
	DD	0beded6a5r			; -0.435231
	DD	0bdee089fr			; -0.116227
	DD	03f8a0503r			; 1.07828
	DD	03e27c05ar			; 0.16382
	DD	03eea448er			; 0.457554
	DD	0bf6314b9r			; -0.887035
	DD	0bd7cece2r			; -0.0617493
	DD	03e96702ar			; 0.293824
	DD	0becf0f76r			; -0.404415
	DD	03c305011r			; 0.0107613
	DD	03f7e8229r			; 0.994174
	DD	03e4ce764r			; 0.200101
	DD	03eea448fr			; 0.457554
	DD	0bf6314bbr			; -0.887035
	DD	0bd7cece4r			; -0.0617494
	DD	03ead3d48r			; 0.338358
	DD	0beafad5er			; -0.34312
	DD	03e088d63r			; 0.133352
	DD	03f70b434r			; 0.94025
	DD	03e84bdc6r			; 0.25926
	DD	03f497a2fr			; 0.787021
	DD	0bf17b22br			; -0.592562
	DD	03e2fc888r			; 0.171663
	DD	03ecf1bbar			; 0.404508
	DD	0be96791br			; -0.293893
	DD	000000000r			; 0
	DD	03f800000r			; 1
	DD	03e999997r			; 0.3
	DD	03f497a2er			; 0.787021
	DD	0bf17b22br			; -0.592562
	DD	03e2fc889r			; 0.171663
	DD	03edcd7d6r			; 0.431334
	DD	0be65fbb1r			; -0.224593
	DD	03dee089er			; 0.116227
	DD	03f7546a3r			; 0.958109
	DD	03eb413dfr			; 0.351714
	DD	03f497a2fr			; 0.787021
	DD	0bf17b22br			; -0.592562
	DD	03e2fc888r			; 0.171663
	DD	03e631705r			; 0.221768
	DD	0bedb0c39r			; -0.427828
	DD	03e088d63r			; 0.133352
	DD	03f69f127r			; 0.913836
	DD	03e314f66r			; 0.173154
	DD	03f13cd3br			; 0.57735
	DD	0bf4b6e7br			; -0.794655
	DD	03e401830r			; 0.187592
	DD	03e96702ar			; 0.293824
	DD	0becf0f76r			; -0.404415
	DD	03c305011r			; 0.0107613
	DD	03f7e8229r			; 0.994174
	DD	03e4ce764r			; 0.200101
	DD	03f13cd3ar			; 0.57735
	DD	0bf4b6e7cr			; -0.794655
	DD	03e401830r			; 0.187592
	DD	03ead3d48r			; 0.338358
	DD	0beafad5er			; -0.34312
	DD	03e088d63r			; 0.133352
	DD	03f70b434r			; 0.94025
	DD	03e84bdc6r			; 0.25926
	DD	03f13cd3ar			; 0.57735
	DD	0bf4b6e7cr			; -0.794655
	DD	03e401830r			; 0.187592
	DD	03da479fdr			; 0.0803108
	DD	0bef59195r			; -0.479626
	DD	03dee089er			; 0.116227
	DD	03f58a2b1r			; 0.846232
	DD	03dbabcb2r			; 0.0911802
	DD	03ea405e3r			; 0.320357
	DD	0bf6e7e32r			; -0.931613
	DD	03e2fc891r			; 0.171664
	DD	03e1e3779r			; 0.154508
	DD	0bef37872r			; -0.475528
	DD	000000000r			; 0
	DD	03f800000r			; 1
	DD	03dccccc2r			; 0.0999999
	DD	03ea405e2r			; 0.320357
	DD	0bf6e7e31r			; -0.931613
	DD	03e2fc890r			; 0.171664
	DD	03e631705r			; 0.221768
	DD	0bedb0c39r			; -0.427828
	DD	03e088d63r			; 0.133352
	DD	03f69f127r			; 0.913836
	DD	03e314f66r			; 0.173154
	DD	03ea405e1r			; 0.320357
	DD	0bf6e7e30r			; -0.931613
	DD	03e2fc88fr			; 0.171664
	DD	03eb3b959r			; 0.351023
	DD	0be805a1fr			; -0.250688
	DD	03e8176e4r			; 0.25286
	DD	03f6690car			; 0.900647
	DD	03eaa6864r			; 0.332828
	DD	03f4f8d87r			; 0.810753
	DD	0beddbf03r			; -0.433098
	DD	03ec9a49fr			; 0.393834
	DD	03edcd7d6r			; 0.431334
	DD	0be65fbb1r			; -0.224593
	DD	03dee089er			; 0.116227
	DD	03f7546a3r			; 0.958109
	DD	03eb413dfr			; 0.351714
	DD	03f4f8d87r			; 0.810753
	DD	0beddbf03r			; -0.433098
	DD	03ec9a49er			; 0.393834
	DD	03ed9c441r			; 0.425325
	DD	0be0d8379r			; -0.138197
	DD	03e64f921r			; 0.223607
	DD	03f6c477er			; 0.922966
	DD	03ed25c53r			; 0.410861
	DD	03f4f8d87r			; 0.810753
	DD	0beddbf03r			; -0.433098
	DD	03ec9a49er			; 0.393834
	DD	03e7fffffr			; 0.25
	DD	0beb02d4fr			; -0.344096
	DD	03e869648r			; 0.262865
	DD	03f5efa68r			; 0.871008
	DD	03e844da7r			; 0.258405
	DD	03f22c406r			; 0.635804
	DD	0bf244630r			; -0.641696
	DD	03edb9c94r			; 0.428929
	DD	03ead3d48r			; 0.338358
	DD	0beafad5er			; -0.34312
	DD	03e088d63r			; 0.133352
	DD	03f70b434r			; 0.94025
	DD	03e84bdc6r			; 0.25926
	DD	03f22c407r			; 0.635804
	DD	0bf24462fr			; -0.641696
	DD	03edb9c95r			; 0.428929
	DD	03eb3b959r			; 0.351023
	DD	0be805a1fr			; -0.250688
	DD	03e8176e4r			; 0.25286
	DD	03f6690car			; 0.900647
	DD	03eaa6864r			; 0.332828
	DD	03f22c406r			; 0.635804
	DD	0bf24462fr			; -0.641696
	DD	03edb9c94r			; 0.428929
	DD	03e051077r			; 0.129946
	DD	0bed29738r			; -0.41131
	DD	03e8176e3r			; 0.25286
	DD	03f535763r			; 0.825552
	DD	03e4521bfr			; 0.192512
	DD	03ed3df81r			; 0.413815
	DD	0bf4d901dr			; -0.80298
	DD	03edb9c99r			; 0.428929
	DD	03e631705r			; 0.221768
	DD	0bedb0c39r			; -0.427828
	DD	03e088d63r			; 0.133352
	DD	03f69f127r			; 0.913836
	DD	03e314f66r			; 0.173154
	DD	03ed3df81r			; 0.413815
	DD	0bf4d901er			; -0.80298
	DD	03edb9c99r			; 0.428929
	DD	03e7fffffr			; 0.25
	DD	0beb02d4fr			; -0.344096
	DD	03e869648r			; 0.262865
	DD	03f5efa68r			; 0.871008
	DD	03e844da7r			; 0.258405
	DD	03ed3df82r			; 0.413815
	DD	0bf4d901er			; -0.80298
	DD	03edb9c9ar			; 0.428929
	DD	000000000r			; 0
	DD	0bee4f931r			; -0.447214
	DD	03e64f91fr			; 0.223607
	DD	03f400000r			; 0.75
	DD	03e17201er			; 0.147583
	DD	03e253c69r			; 0.161363
	DD	0bf67a7f8r			; -0.904907
	DD	03ec9a4afr			; 0.393835
	DD	03da479fdr			; 0.0803108
	DD	0bef59195r			; -0.479626
	DD	03dee089er			; 0.116227
	DD	03f58a2b1r			; 0.846232
	DD	03dbabcb2r			; 0.0911802
	DD	03e253c69r			; 0.161363
	DD	0bf67a7f7r			; -0.904907
	DD	03ec9a4afr			; 0.393835
	DD	03e051077r			; 0.129946
	DD	0bed29738r			; -0.41131
	DD	03e8176e3r			; 0.25286
	DD	03f535763r			; 0.825552
	DD	03e4521bfr			; 0.192512
	DD	03e253c6ar			; 0.161363
	DD	0bf67a7f9r			; -0.904907
	DD	03ec9a4afr			; 0.393835
	DD	03e5e26aer			; 0.216944
	DD	0beded6a5r			; -0.435231
	DD	0bdee089fr			; -0.116227
	DD	03f8a0503r			; 1.07828
	DD	03e27c05ar			; 0.16382
	DD	03f14981cr			; 0.580446
	DD	0bf4c85b7r			; -0.798915
	DD	0be215064r			; -0.157533
	DD	03eb19b92r			; 0.34689
	DD	0beae8001r			; -0.34082
	DD	0bdee089er			; -0.116227
	DD	03f869612r			; 1.05145
	DD	03e85c4c1r			; 0.261267
	DD	03f14981cr			; 0.580446
	DD	0bf4c85b7r			; -0.798915
	DD	0be215064r			; -0.157533
	DD	03e96702ar			; 0.293824
	DD	0becf0f76r			; -0.404415
	DD	03c305011r			; 0.0107613
	DD	03f7e8229r			; 0.994174
	DD	03e4ce764r			; 0.200101
	DD	03f14981cr			; 0.580446
	DD	0bf4c85b6r			; -0.798915
	DD	0be215064r			; -0.157533
	DD	03e96702ar			; 0.293824
	DD	0becf0f76r			; -0.404415
	DD	03c305011r			; 0.0107613
	DD	03f7e8229r			; 0.994174
	DD	03e4ce764r			; 0.200101
	DD	03f354258r			; 0.708044
	DD	0bf33360br			; -0.700043
	DD	03dbe12eer			; 0.0928095
	DD	03ecf1bbar			; 0.404508
	DD	0be96791br			; -0.293893
	DD	000000000r			; 0
	DD	03f800000r			; 1
	DD	03e999997r			; 0.3
	DD	03f354258r			; 0.708044
	DD	0bf33360br			; -0.700043
	DD	03dbe12efr			; 0.0928096
	DD	03ead3d48r			; 0.338358
	DD	0beafad5er			; -0.34312
	DD	03e088d63r			; 0.133352
	DD	03f70b434r			; 0.94025
	DD	03e84bdc6r			; 0.25926
	DD	03f354258r			; 0.708044
	DD	0bf33360br			; -0.700043
	DD	03dbe12eer			; 0.0928095
	DD	03e1e3779r			; 0.154508
	DD	0bef37872r			; -0.475528
	DD	000000000r			; 0
	DD	03f800000r			; 1
	DD	03dccccc2r			; 0.0999999
	DD	03ee4db03r			; 0.446983
	DD	0bf63c457r			; -0.889715
	DD	03dbe12efr			; 0.0928096
	DD	03e96702ar			; 0.293824
	DD	0becf0f76r			; -0.404415
	DD	03c305011r			; 0.0107613
	DD	03f7e8229r			; 0.994174
	DD	03e4ce764r			; 0.200101
	DD	03ee4db02r			; 0.446983
	DD	0bf63c456r			; -0.889715
	DD	03dbe12edr			; 0.0928095
	DD	03e631705r			; 0.221768
	DD	0bedb0c39r			; -0.427828
	DD	03e088d63r			; 0.133352
	DD	03f69f127r			; 0.913836
	DD	03e314f66r			; 0.173154
	DD	03ee4db03r			; 0.446983
	DD	0bf63c457r			; -0.889715
	DD	03dbe12eer			; 0.0928095
	DD	03ead3d48r			; 0.338358
	DD	0beafad5er			; -0.34312
	DD	03e088d63r			; 0.133352
	DD	03f70b434r			; 0.94025
	DD	03e84bdc6r			; 0.25926
	DD	03f432dd8r			; 0.762418
	DD	0bf0c6760r			; -0.548452
	DD	03eafd129r			; 0.343393
	DD	03edcd7d6r			; 0.431334
	DD	0be65fbb1r			; -0.224593
	DD	03dee089er			; 0.116227
	DD	03f7546a3r			; 0.958109
	DD	03eb413dfr			; 0.351714
	DD	03f432dd7r			; 0.762418
	DD	0bf0c675fr			; -0.548452
	DD	03eafd128r			; 0.343393
	DD	03eb3b959r			; 0.351023
	DD	0be805a1fr			; -0.250688
	DD	03e8176e4r			; 0.25286
	DD	03f6690car			; 0.900647
	DD	03eaa6864r			; 0.332828
	DD	03f432dd7r			; 0.762418
	DD	0bf0c675er			; -0.548452
	DD	03eafd128r			; 0.343393
	DD	03e631705r			; 0.221768
	DD	0bedb0c39r			; -0.427828
	DD	03e088d63r			; 0.133352
	DD	03f69f127r			; 0.913836
	DD	03e314f66r			; 0.173154
	DD	03f0bf47fr			; 0.546699
	DD	0bf40a1b2r			; -0.752467
	DD	03ebc0f56r			; 0.367305
	DD	03ead3d48r			; 0.338358
	DD	0beafad5er			; -0.34312
	DD	03e088d63r			; 0.133352
	DD	03f70b434r			; 0.94025
	DD	03e84bdc6r			; 0.25926
	DD	03f0bf47fr			; 0.546699
	DD	0bf40a1b2r			; -0.752467
	DD	03ebc0f55r			; 0.367304
	DD	03e7fffffr			; 0.25
	DD	0beb02d4fr			; -0.344096
	DD	03e869648r			; 0.262865
	DD	03f5efa68r			; 0.871008
	DD	03e844da7r			; 0.258405
	DD	03f0bf47fr			; 0.546699
	DD	0bf40a1b2r			; -0.752467
	DD	03ebc0f56r			; 0.367305
	DD	03da479fdr			; 0.0803108
	DD	0bef59195r			; -0.479626
	DD	03dee089er			; 0.116227
	DD	03f58a2b1r			; 0.846232
	DD	03dbabcb2r			; 0.0911802
	DD	03e926fber			; 0.286009
	DD	0bf650373r			; -0.894584
	DD	03eafd132r			; 0.343393
	DD	03e631705r			; 0.221768
	DD	0bedb0c39r			; -0.427828
	DD	03e088d63r			; 0.133352
	DD	03f69f127r			; 0.913836
	DD	03e314f66r			; 0.173154
	DD	03e926fber			; 0.286009
	DD	0bf650373r			; -0.894584
	DD	03eafd132r			; 0.343393
	DD	03e051077r			; 0.129946
	DD	0bed29738r			; -0.41131
	DD	03e8176e3r			; 0.25286
	DD	03f535763r			; 0.825552
	DD	03e4521bfr			; 0.192512
	DD	03e926fbdr			; 0.286009
	DD	0bf650373r			; -0.894584
	DD	03eafd132r			; 0.343393
	DD	03ef64193r			; 0.480969
	DD	03d931d00r			; 0.0718327
	DD	0bdee089fr			; -0.116227
	DD	03d1a91d8r			; 0.0377367
	DD	03f0bbf5fr			; 0.545889
	DD	03f691553r			; 0.910482
	DD	03e97777er			; 0.295834
	DD	0be93f452r			; -0.288973
	DD	03ed9c441r			; 0.425325
	DD	03e0d8379r			; 0.138197
	DD	0be64f921r			; -0.223607
	DD	03d9dc411r			; 0.0770341
	DD	03f16d1d6r			; 0.589139
	DD	03f691553r			; 0.910482
	DD	03e97777fr			; 0.295834
	DD	0be93f453r			; -0.288973
	DD	03edcd7d6r			; 0.431334
	DD	03e65fbb1r			; 0.224593
	DD	0bdee089er			; -0.116227
	DD	03d2b95d6r			; 0.0418909
	DD	03f25f610r			; 0.648286
	DD	03f691554r			; 0.910482
	DD	03e97777fr			; 0.295834
	DD	0be93f453r			; -0.288973
	DD	03ef36a00r			; 0.475418
	DD	03e1e2e1dr			; 0.154473
	DD	03c305013r			; 0.0107613
	DD	03f7f13f2r			; 0.996398
	DD	03f199809r			; 0.599976
	DD	03f643cf2r			; 0.891555
	DD	03ee5b9cer			; 0.448683
	DD	0bd7ced04r			; -0.0617495
	DD	03edcd7d6r			; 0.431334
	DD	03e65fbb1r			; 0.224593
	DD	0bdee089er			; -0.116227
	DD	03f855cafr			; 1.04189
	DD	03f25f610r			; 0.648286
	DD	03f643cf4r			; 0.891555
	DD	03ee5b9d0r			; 0.448683
	DD	0bd7ced06r			; -0.0617495
	DD	03ecf1bbar			; 0.404508
	DD	03e96791br			; 0.293893
	DD	000000000r			; 0
	DD	03f800000r			; 1
	DD	03f333334r			; 0.7
	DD	03f643cf3r			; 0.891555
	DD	03ee5b9cfr			; 0.448683
	DD	0bd7ced04r			; -0.0617495
	DD	03f000000r			; 0.5
	DD	000000000r			; 0
	DD	000000000r			; 0
	DD	03f800000r			; 1
	DD	03f000000r			; 0.5
	DD	03f7c29c7r			; 0.985012
	DD	03e24ea8cr			; 0.161051
	DD	0bd7ced4dr			; -0.0617497
	DD	03ef64193r			; 0.480969
	DD	03d931d00r			; 0.0718327
	DD	0bdee089fr			; -0.116227
	DD	03f84d48fr			; 1.03774
	DD	03f0bbf5fr			; 0.545889
	DD	03f7c29c6r			; 0.985012
	DD	03e24ea8br			; 0.161051
	DD	0bd7ced4dr			; -0.0617497
	DD	03ef36a00r			; 0.475418
	DD	03e1e2e1dr			; 0.154473
	DD	03c305013r			; 0.0107613
	DD	03f7f13f2r			; 0.996398
	DD	03f199809r			; 0.599976
	DD	03f7c29c6r			; 0.985012
	DD	03e24ea8br			; 0.161051
	DD	0bd7ced4cr			; -0.0617497
	DD	03edc9ce3r			; 0.430884
	DD	03e5cf24fr			; 0.215768
	DD	03e088d65r			; 0.133352
	DD	03f73c57br			; 0.952232
	DD	03f245bf7r			; 0.642028
	DD	03f4e8803r			; 0.806763
	DD	03f10bd5er			; 0.56539
	DD	03e2fc885r			; 0.171663
	DD	03ecf1bbar			; 0.404508
	DD	03e96791br			; 0.293893
	DD	000000000r			; 0
	DD	03f800000r			; 1
	DD	03f333334r			; 0.7
	DD	03f4e8803r			; 0.806763
	DD	03f10bd5dr			; 0.565389
	DD	03e2fc885r			; 0.171663
	DD	03eb19b92r			; 0.34689
	DD	03eae8001r			; 0.34082
	DD	03dee089er			; 0.116227
	DD	03f72d3ddr			; 0.948545
	DD	03f3d1d9fr			; 0.738733
	DD	03f4e8804r			; 0.806763
	DD	03f10bd5er			; 0.56539
	DD	03e2fc887r			; 0.171663
	DD	03ef36a03r			; 0.475418
	DD	03da1315fr			; 0.0787074
	DD	03e088d65r			; 0.133352
	DD	03f74dba4r			; 0.956476
	DD	03f0ce183r			; 0.550316
	DD	03f6f25ebr			; 0.934172
	DD	03e9b6870r			; 0.303531
	DD	03e401836r			; 0.187592
	DD	03ef36a00r			; 0.475418
	DD	03e1e2e1dr			; 0.154473
	DD	03c305013r			; 0.0107613
	DD	03f7f13f2r			; 0.996398
	DD	03f199809r			; 0.599976
	DD	03f6f25ebr			; 0.934172
	DD	03e9b6870r			; 0.303531
	DD	03e401836r			; 0.187592
	DD	03edc9ce3r			; 0.430884
	DD	03e5cf24fr			; 0.215768
	DD	03e088d65r			; 0.133352
	DD	03f73c57br			; 0.952232
	DD	03f245bf7r			; 0.642028
	DD	03f6f25ecr			; 0.934172
	DD	03e9b6870r			; 0.303531
	DD	03e401836r			; 0.187592
	DD	03ef64193r			; 0.480969
	DD	0bd931d00r			; -0.0718327
	DD	03dee089fr			; 0.116227
	DD	03f7656e3r			; 0.962263
	DD	03ee88141r			; 0.454111
	DD	03f7c29c8r			; 0.985013
	DD	03c899164r			; 0.016793
	DD	03e2fc897r			; 0.171664
	DD	03f000000r			; 0.5
	DD	000000000r			; 0
	DD	000000000r			; 0
	DD	03f800000r			; 1
	DD	03f000000r			; 0.5
	DD	03f7c29c7r			; 0.985012
	DD	03c899163r			; 0.016793
	DD	03e2fc897r			; 0.171664
	DD	03ef36a03r			; 0.475418
	DD	03da1315fr			; 0.0787074
	DD	03e088d65r			; 0.133352
	DD	03f74dba4r			; 0.956476
	DD	03f0ce183r			; 0.550316
	DD	03f7c29c8r			; 0.985013
	DD	03c899164r			; 0.016793
	DD	03e2fc898r			; 0.171664
	DD	03eb19b96r			; 0.34689
	DD	03e8343c9r			; 0.256377
	DD	03e8176e5r			; 0.25286
	DD	03f665617r			; 0.899751
	DD	03f2bdf31r			; 0.671374
	DD	03f299576r			; 0.662437
	DD	03f232204r			; 0.637238
	DD	03ec9a4a6r			; 0.393834
	DD	03eb19b92r			; 0.34689
	DD	03eae8001r			; 0.34082
	DD	03dee089er			; 0.116227
	DD	03f72d3ddr			; 0.948545
	DD	03f3d1d9fr			; 0.738733
	DD	03f299577r			; 0.662437
	DD	03f232204r			; 0.637238
	DD	03ec9a4a6r			; 0.393834
	DD	03e869652r			; 0.262866
	DD	03eb93e4er			; 0.361803
	DD	03e64f923r			; 0.223607
	DD	03f6347edr			; 0.887816
	DD	03f41eca5r			; 0.757517
	DD	03f299576r			; 0.662437
	DD	03f232204r			; 0.637238
	DD	03ec9a4a6r			; 0.393834
	DD	03ecf1bc1r			; 0.404509
	DD	03e06964br			; 0.131433
	DD	03e86964br			; 0.262865
	DD	03f68855fr			; 0.908285
	DD	03f15acc5r			; 0.584668
	DD	03f4e8806r			; 0.806763
	DD	03ed01262r			; 0.40639
	DD	03edb9c9ar			; 0.428929
	DD	03edc9ce3r			; 0.430884
	DD	03e5cf24fr			; 0.215768
	DD	03e088d65r			; 0.133352
	DD	03f73c57br			; 0.952232
	DD	03f245bf7r			; 0.642028
	DD	03f4e8807r			; 0.806763
	DD	03ed01264r			; 0.40639
	DD	03edb9c9cr			; 0.428929
	DD	03eb19b96r			; 0.34689
	DD	03e8343c9r			; 0.256377
	DD	03e8176e5r			; 0.25286
	DD	03f665617r			; 0.899751
	DD	03f2bdf31r			; 0.671374
	DD	03f4e8807r			; 0.806763
	DD	03ed01264r			; 0.40639
	DD	03edb9c9br			; 0.428929
	DD	03edcd7dcr			; 0.431334
	DD	0bb667124r			; -0.00351627
	DD	03e8176e5r			; 0.25286
	DD	03f6a657cr			; 0.915611
	DD	03efeda97r			; 0.497761
	DD	03f643cf8r			; 0.891555
	DD	03e14eaa2r			; 0.145426
	DD	03edb9ca2r			; 0.428929
	DD	03ef36a03r			; 0.475418
	DD	03da1315fr			; 0.0787074
	DD	03e088d65r			; 0.133352
	DD	03f74dba4r			; 0.956476
	DD	03f0ce183r			; 0.550316
	DD	03f643cf7r			; 0.891555
	DD	03e14eaa2r			; 0.145426
	DD	03edb9ca2r			; 0.428929
	DD	03ecf1bc1r			; 0.404509
	DD	03e06964br			; 0.131433
	DD	03e86964br			; 0.262865
	DD	03f68855fr			; 0.908285
	DD	03f15acc5r			; 0.584668
	DD	03f643cf7r			; 0.891555
	DD	03e14eaa2r			; 0.145426
	DD	03edb9ca2r			; 0.428929
	DD	03ed9c441r			; 0.425325
	DD	0be0d8379r			; -0.138197
	DD	03e64f921r			; 0.223607
	DD	03f6c477er			; 0.922966
	DD	03ed25c53r			; 0.410861
	DD	03f691553r			; 0.910482
	DD	0be0131aar			; -0.126166
	DD	03ec9a49fr			; 0.393834
	DD	03ef64193r			; 0.480969
	DD	0bd931d00r			; -0.0718327
	DD	03dee089fr			; 0.116227
	DD	03f7656e3r			; 0.962263
	DD	03ee88141r			; 0.454111
	DD	03f691555r			; 0.910482
	DD	0be0131aar			; -0.126166
	DD	03ec9a4a0r			; 0.393834
	DD	03edcd7dcr			; 0.431334
	DD	0bb667124r			; -0.00351627
	DD	03e8176e5r			; 0.25286
	DD	03f6a657cr			; 0.915611
	DD	03efeda97r			; 0.497761
	DD	03f691554r			; 0.910482
	DD	0be0131aar			; -0.126166
	DD	03ec9a49er			; 0.393834
	DD	03ef64193r			; 0.480969
	DD	03d931d00r			; 0.0718327
	DD	0bdee089fr			; -0.116227
	DD	03f84d48fr			; 1.03774
	DD	03f0bbf5fr			; 0.545889
	DD	03f706e2fr			; 0.939181
	DD	03e9c3dc1r			; 0.305159
	DD	0be215087r			; -0.157534
	DD	03edcd7d6r			; 0.431334
	DD	03e65fbb1r			; 0.224593
	DD	0bdee089er			; -0.116227
	DD	03f855cafr			; 1.04189
	DD	03f25f610r			; 0.648286
	DD	03f706e2dr			; 0.939181
	DD	03e9c3dc0r			; 0.305159
	DD	0be215086r			; -0.157534
	DD	03ef36a00r			; 0.475418
	DD	03e1e2e1dr			; 0.154473
	DD	03c305013r			; 0.0107613
	DD	03f7f13f2r			; 0.996398
	DD	03f199809r			; 0.599976
	DD	03f706e2er			; 0.939181
	DD	03e9c3dbfr			; 0.305159
	DD	0be215086r			; -0.157534
	DD	03ef36a00r			; 0.475418
	DD	03e1e2e1dr			; 0.154473
	DD	03c305013r			; 0.0107613
	DD	03f7f13f2r			; 0.996398
	DD	03f199809r			; 0.599976
	DD	03f6273b6r			; 0.884578
	DD	03eea045br			; 0.457064
	DD	03dbe12eer			; 0.0928095
	DD	03ecf1bbar			; 0.404508
	DD	03e96791br			; 0.293893
	DD	000000000r			; 0
	DD	03f800000r			; 1
	DD	03f333334r			; 0.7
	DD	03f6273b7r			; 0.884578
	DD	03eea045cr			; 0.457065
	DD	03dbe12efr			; 0.0928096
	DD	03edc9ce3r			; 0.430884
	DD	03e5cf24fr			; 0.215768
	DD	03e088d65r			; 0.133352
	DD	03f73c57br			; 0.952232
	DD	03f245bf7r			; 0.642028
	DD	03f6273b5r			; 0.884578
	DD	03eea045ar			; 0.457064
	DD	03dbe12edr			; 0.0928095
	DD	03f000000r			; 0.5
	DD	000000000r			; 0
	DD	000000000r			; 0
	DD	03f800000r			; 1
	DD	03f000000r			; 0.5
	DD	03f7bfab9r			; 0.984294
	DD	03e19c603r			; 0.150169
	DD	03dbe12d0r			; 0.0928093
	DD	03ef36a00r			; 0.475418
	DD	03e1e2e1dr			; 0.154473
	DD	03c305013r			; 0.0107613
	DD	03f7f13f2r			; 0.996398
	DD	03f199809r			; 0.599976
	DD	03f7bfab9r			; 0.984294
	DD	03e19c603r			; 0.150169
	DD	03dbe12cfr			; 0.0928093
	DD	03ef36a03r			; 0.475418
	DD	03da1315fr			; 0.0787074
	DD	03e088d65r			; 0.133352
	DD	03f74dba4r			; 0.956476
	DD	03f0ce183r			; 0.550316
	DD	03f7bfab9r			; 0.984294
	DD	03e19c604r			; 0.150169
	DD	03dbe12d0r			; 0.0928093
	DD	03edc9ce3r			; 0.430884
	DD	03e5cf24fr			; 0.215768
	DD	03e088d65r			; 0.133352
	DD	03f73c57br			; 0.952232
	DD	03f245bf7r			; 0.642028
	DD	03f41d875r			; 0.757209
	DD	03f0e3d3cr			; 0.555622
	DD	03eafd130r			; 0.343393
	DD	03eb19b92r			; 0.34689
	DD	03eae8001r			; 0.34082
	DD	03dee089er			; 0.116227
	DD	03f72d3ddr			; 0.948545
	DD	03f3d1d9fr			; 0.738733
	DD	03f41d876r			; 0.757209
	DD	03f0e3d3cr			; 0.555622
	DD	03eafd130r			; 0.343393
	DD	03eb19b96r			; 0.34689
	DD	03e8343c9r			; 0.256377
	DD	03e8176e5r			; 0.25286
	DD	03f665617r			; 0.899751
	DD	03f2bdf31r			; 0.671374
	DD	03f41d875r			; 0.757209
	DD	03f0e3d3br			; 0.555622
	DD	03eafd12fr			; 0.343393
	DD	03ef36a03r			; 0.475418
	DD	03da1315fr			; 0.0787074
	DD	03e088d65r			; 0.133352
	DD	03f74dba4r			; 0.956476
	DD	03f0ce183r			; 0.550316
	DD	03f6273bar			; 0.884578
	DD	03e932857r			; 0.287417
	DD	03ebc0f5cr			; 0.367305
	DD	03edc9ce3r			; 0.430884
	DD	03e5cf24fr			; 0.215768
	DD	03e088d65r			; 0.133352
	DD	03f73c57br			; 0.952232
	DD	03f245bf7r			; 0.642028
	DD	03f6273b8r			; 0.884578
	DD	03e932856r			; 0.287417
	DD	03ebc0f5br			; 0.367305
	DD	03ecf1bc1r			; 0.404509
	DD	03e06964br			; 0.131433
	DD	03e86964br			; 0.262865
	DD	03f68855fr			; 0.908285
	DD	03f15acc5r			; 0.584668
	DD	03f6273b8r			; 0.884578
	DD	03e932856r			; 0.287417
	DD	03ebc0f5cr			; 0.367305
	DD	03ef64193r			; 0.480969
	DD	0bd931d00r			; -0.0718327
	DD	03dee089fr			; 0.116227
	DD	03f7656e3r			; 0.962263
	DD	03ee88141r			; 0.454111
	DD	03f706e31r			; 0.939181
	DD	0bb913872r			; -0.00443178
	DD	03eafd129r			; 0.343393
	DD	03ef36a03r			; 0.475418
	DD	03da1315fr			; 0.0787074
	DD	03e088d65r			; 0.133352
	DD	03f74dba4r			; 0.956476
	DD	03f0ce183r			; 0.550316
	DD	03f706e32r			; 0.939181
	DD	0bb913873r			; -0.00443178
	DD	03eafd12br			; 0.343393
	DD	03edcd7dcr			; 0.431334
	DD	0bb667124r			; -0.00351627
	DD	03e8176e5r			; 0.25286
	DD	03f6a657cr			; 0.915611
	DD	03efeda97r			; 0.497761
	DD	03f706e32r			; 0.939181
	DD	0bb913872r			; -0.00443178
	DD	03eafd12ar			; 0.343393
	DD	0bda479fbr			; -0.0803108
	DD	03de261ear			; 0.110538
	DD	03ef6419cr			; 0.480969
	DD	03f39424ar			; 0.723668
	DD	03f122a3fr			; 0.570957
	DD	000000000r			; 0
	DD	03e2dbd57r			; 0.169668
	DD	03f7c49d1r			; 0.985501
	DD	000000000r			; 0
	DD	000000000r			; 0
	DD	03f000000r			; 0.5
	DD	03f400000r			; 0.75
	DD	03f000000r			; 0.5
	DD	000000000r			; 0
	DD	03e2dbd56r			; 0.169668
	DD	03f7c49d2r			; 0.985501
	DD	03da479fbr			; 0.0803108
	DD	03de261ear			; 0.110538
	DD	03ef6419cr			; 0.480969
	DD	03f46bdb6r			; 0.776332
	DD	03f122a3fr			; 0.570957
	DD	000000000r			; 0
	DD	03e2dbd57r			; 0.169668
	DD	03f7c49d1r			; 0.985501
	DD	000000000r			; 0
	DD	03e6ec6c9r			; 0.23318
	DD	03ee274cer			; 0.442297
	DD	03f400000r			; 0.75
	DD	03f27890er			; 0.654435
	DD	03e1ad896r			; 0.151217
	DD	03ec59ecar			; 0.385977
	DD	03f68f7ber			; 0.91003
	DD	03da479fbr			; 0.0803108
	DD	03de261ear			; 0.110538
	DD	03ef6419cr			; 0.480969
	DD	03f46bdb6r			; 0.776332
	DD	03f122a3fr			; 0.570957
	DD	03e1ad897r			; 0.151217
	DD	03ec59ecbr			; 0.385977
	DD	03f68f7ber			; 0.91003
	DD	03e1e377ar			; 0.154509
	DD	03e59c441r			; 0.212663
	DD	03ed9c441r			; 0.425325
	DD	03f4e3273r			; 0.805457
	DD	03f23cc94r			; 0.63984
	DD	03e1ad897r			; 0.151217
	DD	03ec59eccr			; 0.385977
	DD	03f68f7bfr			; 0.91003
	DD	0be1e377ar			; -0.154509
	DD	03e59c441r			; 0.212663
	DD	03ed9c441r			; 0.425325
	DD	03f31cd8dr			; 0.694543
	DD	03f23cc94r			; 0.63984
	DD	0be1ad897r			; -0.151217
	DD	03ec59eccr			; 0.385977
	DD	03f68f7bfr			; 0.91003
	DD	0bda479fbr			; -0.0803108
	DD	03de261ear			; 0.110538
	DD	03ef6419cr			; 0.480969
	DD	03f39424ar			; 0.723668
	DD	03f122a3fr			; 0.570957
	DD	0be1ad897r			; -0.151217
	DD	03ec59ecbr			; 0.385977
	DD	03f68f7ber			; 0.91003
	DD	000000000r			; 0
	DD	03e6ec6c9r			; 0.23318
	DD	03ee274cer			; 0.442297
	DD	03f400000r			; 0.75
	DD	03f27890er			; 0.654435
	DD	0be1ad896r			; -0.151217
	DD	03ec59ecar			; 0.385977
	DD	03f68f7ber			; 0.91003
	DD	03d9392a1r			; 0.072057
	DD	03eaa2adbr			; 0.332358
	DD	03ebbaa1ar			; 0.366532
	DD	03f47e8b4r			; 0.780895
	DD	03f3b4027r			; 0.731448
	DD	03e93aaf7r			; 0.288414
	DD	03f1326e5r			; 0.574812
	DD	03f4409b3r			; 0.765773
	DD	03e1e377ar			; 0.154509
	DD	03e59c441r			; 0.212663
	DD	03ed9c441r			; 0.425325
	DD	03f4e3273r			; 0.805457
	DD	03f23cc94r			; 0.63984
	DD	03e93aaf8r			; 0.288414
	DD	03f1326e6r			; 0.574812
	DD	03f4409b4r			; 0.765773
	DD	03e5e26b0r			; 0.216944
	DD	03e98e1e6r			; 0.298598
	DD	03eacb321r			; 0.337304
	DD	03f574996r			; 0.840967
	DD	03f3426edr			; 0.703719
	DD	03e93aaf8r			; 0.288414
	DD	03f1326e6r			; 0.574812
	DD	03f4409b3r			; 0.765773
	DD	0bd9392a2r			; -0.072057
	DD	03eaa2adcr			; 0.332358
	DD	03ebbaa1ar			; 0.366532
	DD	03f38174cr			; 0.719105
	DD	03f3b4028r			; 0.731448
	DD	0340831ffr			; 1.26842e-07
	DD	03f1b6867r			; 0.607062
	DD	03f4b6e7ar			; 0.794654
	DD	000000000r			; 0
	DD	03e6ec6c9r			; 0.23318
	DD	03ee274cer			; 0.442297
	DD	03f400000r			; 0.75
	DD	03f27890er			; 0.654435
	DD	034083200r			; 1.26842e-07
	DD	03f1b6868r			; 0.607062
	DD	03f4b6e7dr			; 0.794655
	DD	03d9392a1r			; 0.072057
	DD	03eaa2adbr			; 0.332358
	DD	03ebbaa1ar			; 0.366532
	DD	03f47e8b4r			; 0.780895
	DD	03f3b4027r			; 0.731448
	DD	0340831ffr			; 1.26842e-07
	DD	03f1b6868r			; 0.607062
	DD	03f4b6e7cr			; 0.794655
	DD	0be5e26b0r			; -0.216944
	DD	03e98e1e6r			; 0.298598
	DD	03eacb321r			; 0.337304
	DD	03f28b66ar			; 0.659033
	DD	03f3426edr			; 0.703719
	DD	0be93aafbr			; -0.288414
	DD	03f1326e6r			; 0.574812
	DD	03f4409b3r			; 0.765773
	DD	0be1e377ar			; -0.154509
	DD	03e59c441r			; 0.212663
	DD	03ed9c441r			; 0.425325
	DD	03f31cd8dr			; 0.694543
	DD	03f23cc94r			; 0.63984
	DD	0be93aafcr			; -0.288414
	DD	03f1326e6r			; 0.574812
	DD	03f4409b4r			; 0.765773
	DD	0bd9392a2r			; -0.072057
	DD	03eaa2adcr			; 0.332358
	DD	03ebbaa1ar			; 0.366532
	DD	03f38174cr			; 0.719105
	DD	03f3b4028r			; 0.731448
	DD	0be93aafbr			; -0.288414
	DD	03f1326e5r			; 0.574812
	DD	03f4409b3r			; 0.765773
	DD	03e0be9b0r			; 0.136634
	DD	03ed17a63r			; 0.409137
	DD	03e8176e5r			; 0.25286
	DD	03f542f46r			; 0.828846
	DD	03f4e18far			; 0.805069
	DD	03ecd7d17r			; 0.401345
	DD	03f38d9b5r			; 0.722072
	DD	03f1041abr			; 0.563502
	DD	03e5e26b0r			; 0.216944
	DD	03e98e1e6r			; 0.298598
	DD	03eacb321r			; 0.337304
	DD	03f574996r			; 0.840967
	DD	03f3426edr			; 0.703719
	DD	03ecd7d14r			; 0.401345
	DD	03f38d9b2r			; 0.722072
	DD	03f1041aar			; 0.563502
	DD	03e869652r			; 0.262866
	DD	03eb93e4er			; 0.361803
	DD	03e64f923r			; 0.223607
	DD	03f6347edr			; 0.887816
	DD	03f41eca5r			; 0.757517
	DD	03ecd7d15r			; 0.401345
	DD	03f38d9b3r			; 0.722072
	DD	03f1041abr			; 0.563502
	DD	000000000r			; 0
	DD	03ed9c444r			; 0.425326
	DD	03e86964ar			; 0.262865
	DD	03f400000r			; 0.75
	DD	03f52e407r			; 0.823792
	DD	03e0c7d4ar			; 0.137197
	DD	03f486f14r			; 0.782945
	DD	03f1b5587r			; 0.606774
	DD	03d9392a1r			; 0.072057
	DD	03eaa2adbr			; 0.332358
	DD	03ebbaa1ar			; 0.366532
	DD	03f47e8b4r			; 0.780895
	DD	03f3b4027r			; 0.731448
	DD	03e0c7d4br			; 0.137197
	DD	03f486f13r			; 0.782945
	DD	03f1b5587r			; 0.606774
	DD	03e0be9b0r			; 0.136634
	DD	03ed17a63r			; 0.409137
	DD	03e8176e5r			; 0.25286
	DD	03f542f46r			; 0.828846
	DD	03f4e18far			; 0.805069
	DD	03e0c7d4ar			; 0.137197
	DD	03f486f13r			; 0.782945
	DD	03f1b5587r			; 0.606774
	DD	0be0be9b0r			; -0.136634
	DD	03ed17a63r			; 0.409137
	DD	03e8176e5r			; 0.25286
	DD	03f2bd0bar			; 0.671154
	DD	03f4e18far			; 0.805069
	DD	0be0c7d4ar			; -0.137197
	DD	03f486f15r			; 0.782945
	DD	03f1b5585r			; 0.606774
	DD	0bd9392a2r			; -0.072057
	DD	03eaa2adcr			; 0.332358
	DD	03ebbaa1ar			; 0.366532
	DD	03f38174cr			; 0.719105
	DD	03f3b4028r			; 0.731448
	DD	0be0c7d4br			; -0.137197
	DD	03f486f15r			; 0.782945
	DD	03f1b5585r			; 0.606774
	DD	000000000r			; 0
	DD	03ed9c444r			; 0.425326
	DD	03e86964ar			; 0.262865
	DD	03f400000r			; 0.75
	DD	03f52e407r			; 0.823792
	DD	0be0c7d49r			; -0.137197
	DD	03f486f14r			; 0.782945
	DD	03f1b5584r			; 0.606774
	DD	0be869652r			; -0.262866
	DD	03eb93e4er			; 0.361803
	DD	03e64f923r			; 0.223607
	DD	03f1cb813r			; 0.612184
	DD	03f41eca5r			; 0.757517
	DD	0becd7d15r			; -0.401345
	DD	03f38d9b3r			; 0.722072
	DD	03f1041abr			; 0.563502
	DD	0be5e26b0r			; -0.216944
	DD	03e98e1e6r			; 0.298598
	DD	03eacb321r			; 0.337304
	DD	03f28b66ar			; 0.659033
	DD	03f3426edr			; 0.703719
	DD	0becd7d14r			; -0.401345
	DD	03f38d9b2r			; 0.722072
	DD	03f1041aar			; 0.563502
	DD	0be0be9b0r			; -0.136634
	DD	03ed17a63r			; 0.409137
	DD	03e8176e5r			; 0.25286
	DD	03f2bd0bar			; 0.671154
	DD	03f4e18far			; 0.805069
	DD	0becd7d17r			; -0.401345
	DD	03f38d9b5r			; 0.722072
	DD	03f1041abr			; 0.563502
	DD	0bda479fbr			; -0.0803108
	DD	03de261ear			; 0.110538
	DD	03ef6419cr			; 0.480969
	DD	03f39424ar			; 0.723668
	DD	03f122a3fr			; 0.570957
	DD	080000000r			; -0
	DD	03e99f8f6r			; 0.300728
	DD	03f742658r			; 0.95371
	DD	03da479fbr			; 0.0803108
	DD	03de261ear			; 0.110538
	DD	03ef6419cr			; 0.480969
	DD	03f46bdb6r			; 0.776332
	DD	03f122a3fr			; 0.570957
	DD	080000000r			; -0
	DD	03e99f8f6r			; 0.300728
	DD	03f742658r			; 0.95371
	DD	000000000r			; 0
	DD	03e6ec6c9r			; 0.23318
	DD	03ee274cer			; 0.442297
	DD	03f400000r			; 0.75
	DD	03f27890er			; 0.654435
	DD	080000000r			; -0
	DD	03e99f8f7r			; 0.300728
	DD	03f742659r			; 0.95371
	DD	000000000r			; 0
	DD	03e6ec6c9r			; 0.23318
	DD	03ee274cer			; 0.442297
	DD	03f400000r			; 0.75
	DD	03f27890er			; 0.654435
	DD	03e253758r			; 0.161344
	DD	03f05bca7r			; 0.52241
	DD	03f5658b2r			; 0.837291
	DD	03e1e377ar			; 0.154509
	DD	03e59c441r			; 0.212663
	DD	03ed9c441r			; 0.425325
	DD	03f4e3273r			; 0.805457
	DD	03f23cc94r			; 0.63984
	DD	03e253759r			; 0.161344
	DD	03f05bca8r			; 0.52241
	DD	03f5658b3r			; 0.837291
	DD	03d9392a1r			; 0.072057
	DD	03eaa2adbr			; 0.332358
	DD	03ebbaa1ar			; 0.366532
	DD	03f47e8b4r			; 0.780895
	DD	03f3b4027r			; 0.731448
	DD	03e253758r			; 0.161344
	DD	03f05bca7r			; 0.52241
	DD	03f5658b2r			; 0.837291
	DD	0be1e377ar			; -0.154509
	DD	03e59c441r			; 0.212663
	DD	03ed9c441r			; 0.425325
	DD	03f31cd8dr			; 0.694543
	DD	03f23cc94r			; 0.63984
	DD	0be253758r			; -0.161344
	DD	03f05bca7r			; 0.52241
	DD	03f5658b4r			; 0.837291
	DD	000000000r			; 0
	DD	03e6ec6c9r			; 0.23318
	DD	03ee274cer			; 0.442297
	DD	03f400000r			; 0.75
	DD	03f27890er			; 0.654435
	DD	0be253757r			; -0.161344
	DD	03f05bca6r			; 0.52241
	DD	03f5658b3r			; 0.837291
	DD	0bd9392a2r			; -0.072057
	DD	03eaa2adcr			; 0.332358
	DD	03ebbaa1ar			; 0.366532
	DD	03f38174cr			; 0.719105
	DD	03f3b4028r			; 0.731448
	DD	0be253757r			; -0.161344
	DD	03f05bca6r			; 0.52241
	DD	03f5658b3r			; 0.837291
	DD	03d9392a1r			; 0.072057
	DD	03eaa2adbr			; 0.332358
	DD	03ebbaa1ar			; 0.366532
	DD	03f47e8b4r			; 0.780895
	DD	03f3b4027r			; 0.731448
	DD	03e96c077r			; 0.294437
	DD	03f34bb7ar			; 0.705986
	DD	03f24e510r			; 0.64412
	DD	03e5e26b0r			; 0.216944
	DD	03e98e1e6r			; 0.298598
	DD	03eacb321r			; 0.337304
	DD	03f574996r			; 0.840967
	DD	03f3426edr			; 0.703719
	DD	03e96c078r			; 0.294437
	DD	03f34bb7br			; 0.705986
	DD	03f24e511r			; 0.64412
	DD	03e0be9b0r			; 0.136634
	DD	03ed17a63r			; 0.409137
	DD	03e8176e5r			; 0.25286
	DD	03f542f46r			; 0.828846
	DD	03f4e18far			; 0.805069
	DD	03e96c077r			; 0.294437
	DD	03f34bb7br			; 0.705986
	DD	03f24e510r			; 0.64412
	DD	0bd9392a2r			; -0.072057
	DD	03eaa2adcr			; 0.332358
	DD	03ebbaa1ar			; 0.366532
	DD	03f38174cr			; 0.719105
	DD	03f3b4028r			; 0.731448
	DD	03430a61cr			; 1.64517e-07
	DD	03f3e9656r			; 0.744481
	DD	03f2aeaabr			; 0.667643
	DD	03d9392a1r			; 0.072057
	DD	03eaa2adbr			; 0.332358
	DD	03ebbaa1ar			; 0.366532
	DD	03f47e8b4r			; 0.780895
	DD	03f3b4027r			; 0.731448
	DD	03430a61cr			; 1.64517e-07
	DD	03f3e9656r			; 0.744481
	DD	03f2aeaaar			; 0.667643
	DD	000000000r			; 0
	DD	03ed9c444r			; 0.425326
	DD	03e86964ar			; 0.262865
	DD	03f400000r			; 0.75
	DD	03f52e407r			; 0.823792
	DD	03430a61cr			; 1.64517e-07
	DD	03f3e9656r			; 0.744481
	DD	03f2aeaaar			; 0.667643
	DD	0be5e26b0r			; -0.216944
	DD	03e98e1e6r			; 0.298598
	DD	03eacb321r			; 0.337304
	DD	03f28b66ar			; 0.659033
	DD	03f3426edr			; 0.703719
	DD	0be96c07dr			; -0.294437
	DD	03f34bb7br			; 0.705986
	DD	03f24e50er			; 0.64412
	DD	0bd9392a2r			; -0.072057
	DD	03eaa2adcr			; 0.332358
	DD	03ebbaa1ar			; 0.366532
	DD	03f38174cr			; 0.719105
	DD	03f3b4028r			; 0.731448
	DD	0be96c07er			; -0.294437
	DD	03f34bb7cr			; 0.705986
	DD	03f24e50fr			; 0.64412
	DD	0be0be9b0r			; -0.136634
	DD	03ed17a63r			; 0.409137
	DD	03e8176e5r			; 0.25286
	DD	03f2bd0bar			; 0.671154
	DD	03f4e18far			; 0.805069
	DD	0be96c07er			; -0.294437
	DD	03f34bb7dr			; 0.705986
	DD	03f24e50fr			; 0.64412
	DD	03da479fbr			; 0.0803108
	DD	03de261ear			; 0.110538
	DD	03ef6419cr			; 0.480969
	DD	03f46bdb6r			; 0.776332
	DD	03f122a3fr			; 0.570957
	DD	03e253c79r			; 0.161363
	DD	03d56c101r			; 0.0524302
	DD	03f7c49d1r			; 0.985501
	DD	000000000r			; 0
	DD	000000000r			; 0
	DD	03f000000r			; 0.5
	DD	03f400000r			; 0.75
	DD	03f000000r			; 0.5
	DD	03e253c7ar			; 0.161364
	DD	03d56c101r			; 0.0524302
	DD	03f7c49d1r			; 0.985501
	DD	03e051074r			; 0.129946
	DD	0bd2cf0ebr			; -0.0422219
	DD	03ef6419cr			; 0.480969
	DD	03f4ac04fr			; 0.791997
	DD	03ef238acr			; 0.473089
	DD	03e253c79r			; 0.161363
	DD	03d56c100r			; 0.0524302
	DD	03f7c49d0r			; 0.985501
	DD	03e631708r			; 0.221768
	DD	03d939266r			; 0.0720566
	DD	03ee274cfr			; 0.442297
	DD	03f52efb0r			; 0.82397
	DD	03f0bc8d1r			; 0.546033
	DD	03ed3df86r			; 0.413815
	DD	0bcc90dbfr			; -0.0245427
	DD	03f68f7ber			; 0.91003
	DD	03e051074r			; 0.129946
	DD	0bd2cf0ebr			; -0.0422219
	DD	03ef6419cr			; 0.480969
	DD	03f4ac04fr			; 0.791997
	DD	03ef238acr			; 0.473089
	DD	03ed3df86r			; 0.413815
	DD	0bcc90dbfr			; -0.0245427
	DD	03f68f7ber			; 0.91003
	DD	03e7fffffr			; 0.25
	DD	0bda65bf1r			; -0.0812301
	DD	03ed9c440r			; 0.425325
	DD	03f55a698r			; 0.834573
	DD	03ee567ber			; 0.448057
	DD	03ed3df85r			; 0.413815
	DD	0bcc90dber			; -0.0245427
	DD	03f68f7bdr			; 0.91003
	DD	03e1e377ar			; 0.154509
	DD	03e59c441r			; 0.212663
	DD	03ed9c441r			; 0.425325
	DD	03f4e3273r			; 0.805457
	DD	03f23cc94r			; 0.63984
	DD	03ea405e2r			; 0.320357
	DD	03e86b3a4r			; 0.263089
	DD	03f68f7bfr			; 0.91003
	DD	03da479fbr			; 0.0803108
	DD	03de261ear			; 0.110538
	DD	03ef6419cr			; 0.480969
	DD	03f46bdb6r			; 0.776332
	DD	03f122a3fr			; 0.570957
	DD	03ea405e2r			; 0.320357
	DD	03e86b3a3r			; 0.263089
	DD	03f68f7bfr			; 0.91003
	DD	03e631708r			; 0.221768
	DD	03d939266r			; 0.0720566
	DD	03ee274cfr			; 0.442297
	DD	03f52efb0r			; 0.82397
	DD	03f0bc8d1r			; 0.546033
	DD	03ea405e2r			; 0.320357
	DD	03e86b3a4r			; 0.263089
	DD	03f68f7ber			; 0.91003
	DD	03ead3d4br			; 0.338358
	DD	03d0bf9f0r			; 0.0341739
	DD	03ebbaa1ar			; 0.366532
	DD	03f5e5f54r			; 0.868642
	DD	03f0592e6r			; 0.521773
	DD	03f22c40ar			; 0.635804
	DD	0bdc5fb9ar			; -0.0966713
	DD	03f4409b1r			; 0.765773
	DD	03e7fffffr			; 0.25
	DD	0bda65bf1r			; -0.0812301
	DD	03ed9c440r			; 0.425325
	DD	03f55a698r			; 0.834573
	DD	03ee567ber			; 0.448057
	DD	03f22c40br			; 0.635804
	DD	0bdc5fb9br			; -0.0966713
	DD	03f4409b2r			; 0.765773
	DD	03eb3b959r			; 0.351023
	DD	0bde99579r			; -0.114055
	DD	03eacb320r			; 0.337304
	DD	03f60cfddr			; 0.878172
	DD	03eda7e68r			; 0.426746
	DD	03f22c40br			; 0.635804
	DD	0bdc5fb9ar			; -0.0966713
	DD	03f4409b2r			; 0.765773
	DD	03e96702er			; 0.293825
	DD	03e2f581er			; 0.171235
	DD	03ebbaa1ar			; 0.366532
	DD	03f5b8830r			; 0.857547
	DD	03f1c7bbfr			; 0.611263
	DD	03f13cd3fr			; 0.577351
	DD	03e40182fr			; 0.187592
	DD	03f4b6e78r			; 0.794654
	DD	03e631708r			; 0.221768
	DD	03d939266r			; 0.0720566
	DD	03ee274cfr			; 0.442297
	DD	03f52efb0r			; 0.82397
	DD	03f0bc8d1r			; 0.546033
	DD	03f13cd3fr			; 0.577351
	DD	03e401830r			; 0.187592
	DD	03f4b6e79r			; 0.794654
	DD	03ead3d4br			; 0.338358
	DD	03d0bf9f0r			; 0.0341739
	DD	03ebbaa1ar			; 0.366532
	DD	03f5e5f54r			; 0.868642
	DD	03f0592e6r			; 0.521773
	DD	03f13cd3er			; 0.57735
	DD	03e40182er			; 0.187592
	DD	03f4b6e77r			; 0.794654
	DD	03e5e26b0r			; 0.216944
	DD	03e98e1e6r			; 0.298598
	DD	03eacb321r			; 0.337304
	DD	03f574996r			; 0.840967
	DD	03f3426edr			; 0.703719
	DD	03eea4490r			; 0.457554
	DD	03ee762a6r			; 0.451925
	DD	03f4409b3r			; 0.765773
	DD	03e1e377ar			; 0.154509
	DD	03e59c441r			; 0.212663
	DD	03ed9c441r			; 0.425325
	DD	03f4e3273r			; 0.805457
	DD	03f23cc94r			; 0.63984
	DD	03eea4490r			; 0.457554
	DD	03ee762a6r			; 0.451925
	DD	03f4409b3r			; 0.765773
	DD	03e96702er			; 0.293825
	DD	03e2f581er			; 0.171235
	DD	03ebbaa1ar			; 0.366532
	DD	03f5b8830r			; 0.857547
	DD	03f1c7bbfr			; 0.611263
	DD	03eea4490r			; 0.457554
	DD	03ee762a6r			; 0.451925
	DD	03f4409b3r			; 0.765773
	DD	03edcd7dcr			; 0.431334
	DD	0bb667124r			; -0.00351627
	DD	03e8176e5r			; 0.25286
	DD	03f6a657cr			; 0.915611
	DD	03efeda97r			; 0.497761
	DD	03f4f8d89r			; 0.810753
	DD	0be226017r			; -0.15857
	DD	03f1041abr			; 0.563502
	DD	03eb3b959r			; 0.351023
	DD	0bde99579r			; -0.114055
	DD	03eacb320r			; 0.337304
	DD	03f60cfddr			; 0.878172
	DD	03eda7e68r			; 0.426746
	DD	03f4f8d89r			; 0.810753
	DD	0be226015r			; -0.15857
	DD	03f1041abr			; 0.563502
	DD	03ed9c441r			; 0.425325
	DD	0be0d8379r			; -0.138197
	DD	03e64f921r			; 0.223607
	DD	03f6c477er			; 0.922966
	DD	03ed25c53r			; 0.410861
	DD	03f4f8d8ar			; 0.810753
	DD	0be226018r			; -0.15857
	DD	03f1041acr			; 0.563502
	DD	03ecf1bc1r			; 0.404509
	DD	03e06964br			; 0.131433
	DD	03e86964br			; 0.262865
	DD	03f68855fr			; 0.908285
	DD	03f15acc5r			; 0.584668
	DD	03f497a32r			; 0.787021
	DD	03de445adr			; 0.111461
	DD	03f1b558ar			; 0.606774
	DD	03ead3d4br			; 0.338358
	DD	03d0bf9f0r			; 0.0341739
	DD	03ebbaa1ar			; 0.366532
	DD	03f5e5f54r			; 0.868642
	DD	03f0592e6r			; 0.521773
	DD	03f497a33r			; 0.787021
	DD	03de445aer			; 0.111461
	DD	03f1b558ar			; 0.606774
	DD	03edcd7dcr			; 0.431334
	DD	0bb667124r			; -0.00351627
	DD	03e8176e5r			; 0.25286
	DD	03f6a657cr			; 0.915611
	DD	03efeda97r			; 0.497761
	DD	03f497a33r			; 0.787021
	DD	03de445adr			; 0.111461
	DD	03f1b558ar			; 0.606774
	DD	03eb19b96r			; 0.34689
	DD	03e8343c9r			; 0.256377
	DD	03e8176e5r			; 0.25286
	DD	03f665617r			; 0.899751
	DD	03f2bdf31r			; 0.671374
	DD	03f33c543r			; 0.702229
	DD	03ebeae80r			; 0.372425
	DD	03f1b5586r			; 0.606774
	DD	03e96702er			; 0.293825
	DD	03e2f581er			; 0.171235
	DD	03ebbaa1ar			; 0.366532
	DD	03f5b8830r			; 0.857547
	DD	03f1c7bbfr			; 0.611263
	DD	03f33c543r			; 0.702229
	DD	03ebeae80r			; 0.372425
	DD	03f1b5587r			; 0.606774
	DD	03ecf1bc1r			; 0.404509
	DD	03e06964br			; 0.131433
	DD	03e86964br			; 0.262865
	DD	03f68855fr			; 0.908285
	DD	03f15acc5r			; 0.584668
	DD	03f33c543r			; 0.702229
	DD	03ebeae81r			; 0.372425
	DD	03f1b5586r			; 0.606774
	DD	03e869652r			; 0.262866
	DD	03eb93e4er			; 0.361803
	DD	03e64f923r			; 0.223607
	DD	03f6347edr			; 0.887816
	DD	03f41eca5r			; 0.757517
	DD	03f100dafr			; 0.562709
	DD	03f1ad668r			; 0.604834
	DD	03f1041abr			; 0.563502
	DD	03e5e26b0r			; 0.216944
	DD	03e98e1e6r			; 0.298598
	DD	03eacb321r			; 0.337304
	DD	03f574996r			; 0.840967
	DD	03f3426edr			; 0.703719
	DD	03f100dafr			; 0.562709
	DD	03f1ad668r			; 0.604834
	DD	03f1041abr			; 0.563502
	DD	03eb19b96r			; 0.34689
	DD	03e8343c9r			; 0.256377
	DD	03e8176e5r			; 0.25286
	DD	03f665617r			; 0.899751
	DD	03f2bdf31r			; 0.671374
	DD	03f100db0r			; 0.562709
	DD	03f1ad668r			; 0.604834
	DD	03f1041abr			; 0.563502
	DD	03da479fbr			; 0.0803108
	DD	03de261ear			; 0.110538
	DD	03ef6419cr			; 0.480969
	DD	03f46bdb6r			; 0.776332
	DD	03f122a3fr			; 0.570957
	DD	03e926fbbr			; 0.286009
	DD	03dbe51fbr			; 0.0929298
	DD	03f74265ar			; 0.95371
	DD	03e051074r			; 0.129946
	DD	0bd2cf0ebr			; -0.0422219
	DD	03ef6419cr			; 0.480969
	DD	03f4ac04fr			; 0.791997
	DD	03ef238acr			; 0.473089
	DD	03e926fbbr			; 0.286009
	DD	03dbe51fbr			; 0.0929298
	DD	03f74265ar			; 0.95371
	DD	03e631708r			; 0.221768
	DD	03d939266r			; 0.0720566
	DD	03ee274cfr			; 0.442297
	DD	03f52efb0r			; 0.82397
	DD	03f0bc8d1r			; 0.546033
	DD	03e926fbbr			; 0.286009
	DD	03dbe51fbr			; 0.0929298
	DD	03f742659r			; 0.95371
	DD	03e631708r			; 0.221768
	DD	03d939266r			; 0.0720566
	DD	03ee274cfr			; 0.442297
	DD	03f52efb0r			; 0.82397
	DD	03f0bc8d1r			; 0.546033
	DD	03f0bf482r			; 0.5467
	DD	03c02d773r			; 0.00798594
	DD	03f5658b1r			; 0.837291
	DD	03e7fffffr			; 0.25
	DD	0bda65bf1r			; -0.0812301
	DD	03ed9c440r			; 0.425325
	DD	03f55a698r			; 0.834573
	DD	03ee567ber			; 0.448057
	DD	03f0bf481r			; 0.5467
	DD	03c02d773r			; 0.00798594
	DD	03f5658afr			; 0.837291
	DD	03ead3d4br			; 0.338358
	DD	03d0bf9f0r			; 0.0341739
	DD	03ebbaa1ar			; 0.366532
	DD	03f5e5f54r			; 0.868642
	DD	03f0592e6r			; 0.521773
	DD	03f0bf481r			; 0.5467
	DD	03c02d772r			; 0.00798594
	DD	03f5658aer			; 0.837291
	DD	03e1e377ar			; 0.154509
	DD	03e59c441r			; 0.212663
	DD	03ed9c441r			; 0.425325
	DD	03f4e3273r			; 0.805457
	DD	03f23cc94r			; 0.63984
	DD	03ee4db02r			; 0.446983
	DD	03ea1380fr			; 0.314881
	DD	03f5658afr			; 0.837291
	DD	03e631708r			; 0.221768
	DD	03d939266r			; 0.0720566
	DD	03ee274cfr			; 0.442297
	DD	03f52efb0r			; 0.82397
	DD	03f0bc8d1r			; 0.546033
	DD	03ee4db03r			; 0.446983
	DD	03ea13810r			; 0.314881
	DD	03f5658b0r			; 0.837291
	DD	03e96702er			; 0.293825
	DD	03e2f581er			; 0.171235
	DD	03ebbaa1ar			; 0.366532
	DD	03f5b8830r			; 0.857547
	DD	03f1c7bbfr			; 0.611263
	DD	03ee4db03r			; 0.446983
	DD	03ea13810r			; 0.314881
	DD	03f5658b1r			; 0.837291
	DD	03ead3d4br			; 0.338358
	DD	03d0bf9f0r			; 0.0341739
	DD	03ebbaa1ar			; 0.366532
	DD	03f5e5f54r			; 0.868642
	DD	03f0592e6r			; 0.521773
	DD	03f432dd9r			; 0.762418
	DD	0bd7d664er			; -0.0618651
	DD	03f24e512r			; 0.64412
	DD	03eb3b959r			; 0.351023
	DD	0bde99579r			; -0.114055
	DD	03eacb320r			; 0.337304
	DD	03f60cfddr			; 0.878172
	DD	03eda7e68r			; 0.426746
	DD	03f432dd9r			; 0.762418
	DD	0bd7d664er			; -0.0618651
	DD	03f24e512r			; 0.64412
	DD	03edcd7dcr			; 0.431334
	DD	0bb667124r			; -0.00351627
	DD	03e8176e5r			; 0.25286
	DD	03f6a657cr			; 0.915611
	DD	03efeda97r			; 0.497761
	DD	03f432dd9r			; 0.762418
	DD	0bd7d664er			; -0.0618651
	DD	03f24e512r			; 0.64412
	DD	03e96702er			; 0.293825
	DD	03e2f581er			; 0.171235
	DD	03ebbaa1ar			; 0.366532
	DD	03f5b8830r			; 0.857547
	DD	03f1c7bbfr			; 0.611263
	DD	03f35425dr			; 0.708044
	DD	03e6b9412r			; 0.230057
	DD	03f2aeaaer			; 0.667643
	DD	03ead3d4br			; 0.338358
	DD	03d0bf9f0r			; 0.0341739
	DD	03ebbaa1ar			; 0.366532
	DD	03f5e5f54r			; 0.868642
	DD	03f0592e6r			; 0.521773
	DD	03f35425cr			; 0.708044
	DD	03e6b9411r			; 0.230057
	DD	03f2aeaaer			; 0.667643
	DD	03ecf1bc1r			; 0.404509
	DD	03e06964br			; 0.131433
	DD	03e86964br			; 0.262865
	DD	03f68855fr			; 0.908285
	DD	03f15acc5r			; 0.584668
	DD	03f35425cr			; 0.708044
	DD	03e6b9411r			; 0.230057
	DD	03f2aeaadr			; 0.667643
	DD	03e5e26b0r			; 0.216944
	DD	03e98e1e6r			; 0.298598
	DD	03eacb321r			; 0.337304
	DD	03f574996r			; 0.840967
	DD	03f3426edr			; 0.703719
	DD	03f149821r			; 0.580446
	DD	03eff127cr			; 0.498188
	DD	03f24e510r			; 0.64412
	DD	03e96702er			; 0.293825
	DD	03e2f581er			; 0.171235
	DD	03ebbaa1ar			; 0.366532
	DD	03f5b8830r			; 0.857547
	DD	03f1c7bbfr			; 0.611263
	DD	03f149821r			; 0.580446
	DD	03eff127dr			; 0.498188
	DD	03f24e511r			; 0.64412
	DD	03eb19b96r			; 0.34689
	DD	03e8343c9r			; 0.256377
	DD	03e8176e5r			; 0.25286
	DD	03f665617r			; 0.899751
	DD	03f2bdf31r			; 0.671374
	DD	03f149821r			; 0.580446
	DD	03eff127cr			; 0.498188
	DD	03f24e511r			; 0.64412
	DD	03e051074r			; 0.129946
	DD	0bd2cf0ebr			; -0.0422219
	DD	03ef6419cr			; 0.480969
	DD	03f4ac04fr			; 0.791997
	DD	03ef238acr			; 0.473089
	DD	03dcc3e3ar			; 0.0997281
	DD	0be0c8eebr			; -0.137264
	DD	03f7c49d1r			; 0.985501
	DD	000000000r			; 0
	DD	000000000r			; 0
	DD	03f000000r			; 0.5
	DD	03f400000r			; 0.75
	DD	03f000000r			; 0.5
	DD	03dcc3e38r			; 0.099728
	DD	0be0c8eear			; -0.137264
	DD	03f7c49d0r			; 0.985501
	DD	000000000r			; 0
	DD	0be0be97fr			; -0.136633
	DD	03ef6419cr			; 0.480969
	DD	03f400000r			; 0.75
	DD	03ed2e40dr			; 0.411896
	DD	03dcc3e39r			; 0.0997281
	DD	0be0c8eebr			; -0.137264
	DD	03f7c49d1r			; 0.985501
	DD	03e0c596br			; 0.13706
	DD	0be412ca1r			; -0.188647
	DD	03ee274cdr			; 0.442297
	DD	03f4c3e4er			; 0.797826
	DD	03ec0f31br			; 0.376855
	DD	03dd61643r			; 0.104535
	DD	0becd62e9r			; -0.401145
	DD	03f68f7ber			; 0.91003
	DD	000000000r			; 0
	DD	0be0be97fr			; -0.136633
	DD	03ef6419cr			; 0.480969
	DD	03f400000r			; 0.75
	DD	03ed2e40dr			; 0.411896
	DD	03dd61644r			; 0.104535
	DD	0becd62e9r			; -0.401145
	DD	03f68f7ber			; 0.91003
	DD	000000000r			; 0
	DD	0be869652r			; -0.262866
	DD	03ed9c440r			; 0.425325
	DD	03f400000r			; 0.75
	DD	03ea5c809r			; 0.323792
	DD	03dd61643r			; 0.104535
	DD	0becd62e8r			; -0.401145
	DD	03f68f7bfr			; 0.91003
	DD	03e7fffffr			; 0.25
	DD	0bda65bf1r			; -0.0812301
	DD	03ed9c440r			; 0.425325
	DD	03f55a698r			; 0.834573
	DD	03ee567ber			; 0.448057
	DD	03eb2cb7cr			; 0.349209
	DD	0be64bd85r			; -0.223379
	DD	03f68f7bfr			; 0.91003
	DD	03e051074r			; 0.129946
	DD	0bd2cf0ebr			; -0.0422219
	DD	03ef6419cr			; 0.480969
	DD	03f4ac04fr			; 0.791997
	DD	03ef238acr			; 0.473089
	DD	03eb2cb7cr			; 0.349209
	DD	0be64bd85r			; -0.223379
	DD	03f68f7ber			; 0.91003
	DD	03e0c596br			; 0.13706
	DD	0be412ca1r			; -0.188647
	DD	03ee274cdr			; 0.442297
	DD	03f4c3e4er			; 0.797826
	DD	03ec0f31br			; 0.376855
	DD	03eb2cb7br			; 0.349209
	DD	0be64bd82r			; -0.223379
	DD	03f68f7bdr			; 0.91003
	DD	03e0c596cr			; 0.13706
	DD	0be9f5a87r			; -0.311238
	DD	03ebbaa17r			; 0.366532
	DD	03f4e9464r			; 0.806952
	DD	03e927f43r			; 0.286127
	DD	03dd61649r			; 0.104535
	DD	0bf22726er			; -0.634559
	DD	03f4409afr			; 0.765773
	DD	000000000r			; 0
	DD	0be869652r			; -0.262866
	DD	03ed9c440r			; 0.425325
	DD	03f400000r			; 0.75
	DD	03ea5c809r			; 0.323792
	DD	03dd61648r			; 0.104535
	DD	0bf22726er			; -0.634559
	DD	03f4409aer			; 0.765773
	DD	000000000r			; 0
	DD	0bebcf91ar			; -0.369088
	DD	03eacb31fr			; 0.337304
	DD	03f400000r			; 0.75
	DD	03e71580ar			; 0.235687
	DD	03dd61649r			; 0.104535
	DD	0bf22726er			; -0.634559
	DD	03f4409afr			; 0.765773
	DD	03e81de7dr			; 0.253651
	DD	0be67f75br			; -0.22653
	DD	03ebbaa17r			; 0.366532
	DD	03f58aa17r			; 0.846345
	DD	03eb35ecdr			; 0.350333
	DD	03eb6b15fr			; 0.356822
	DD	0befb7493r			; -0.491124
	DD	03f4b6e78r			; 0.794654
	DD	03e0c596br			; 0.13706
	DD	0be412ca1r			; -0.188647
	DD	03ee274cdr			; 0.442297
	DD	03f4c3e4er			; 0.797826
	DD	03ec0f31br			; 0.376855
	DD	03eb6b15er			; 0.356822
	DD	0befb7493r			; -0.491124
	DD	03f4b6e76r			; 0.794654
	DD	03e0c596cr			; 0.13706
	DD	0be9f5a87r			; -0.311238
	DD	03ebbaa17r			; 0.366532
	DD	03f4e9464r			; 0.806952
	DD	03e927f43r			; 0.286127
	DD	03eb6b15fr			; 0.356822
	DD	0befb7494r			; -0.491124
	DD	03f4b6e78r			; 0.794654
	DD	03eb3b959r			; 0.351023
	DD	0bde99579r			; -0.114055
	DD	03eacb320r			; 0.337304
	DD	03f60cfddr			; 0.878172
	DD	03eda7e68r			; 0.426746
	DD	03f123a06r			; 0.571198
	DD	0be974ccer			; -0.295508
	DD	03f4409b2r			; 0.765773
	DD	03e7fffffr			; 0.25
	DD	0bda65bf1r			; -0.0812301
	DD	03ed9c440r			; 0.425325
	DD	03f55a698r			; 0.834573
	DD	03ee567ber			; 0.448057
	DD	03f123a06r			; 0.571198
	DD	0be974ccer			; -0.295508
	DD	03f4409b2r			; 0.765773
	DD	03e81de7dr			; 0.253651
	DD	0be67f75br			; -0.22653
	DD	03ebbaa17r			; 0.366532
	DD	03f58aa17r			; 0.846345
	DD	03eb35ecdr			; 0.350333
	DD	03f123a06r			; 0.571198
	DD	0be974ccer			; -0.295508
	DD	03f4409b2r			; 0.765773
	DD	03e051077r			; 0.129946
	DD	0bed29738r			; -0.41131
	DD	03e8176e3r			; 0.25286
	DD	03f535763r			; 0.825552
	DD	03e4521bfr			; 0.192512
	DD	03dcc3e37r			; 0.099728
	DD	0bf51f050r			; -0.820073
	DD	03f1041abr			; 0.563502
	DD	000000000r			; 0
	DD	0bebcf91ar			; -0.369088
	DD	03eacb31fr			; 0.337304
	DD	03f400000r			; 0.75
	DD	03e71580ar			; 0.235687
	DD	03dcc3e37r			; 0.099728
	DD	0bf51f04fr			; -0.820073
	DD	03f1041aar			; 0.563502
	DD	000000000r			; 0
	DD	0bee4f931r			; -0.447214
	DD	03e64f91fr			; 0.223607
	DD	03f400000r			; 0.75
	DD	03e17201er			; 0.147583
	DD	03dcc3e35r			; 0.099728
	DD	0bf51f04fr			; -0.820073
	DD	03f1041aar			; 0.563502
	DD	03e7fffffr			; 0.25
	DD	0beb02d4fr			; -0.344096
	DD	03e869648r			; 0.262865
	DD	03f5efa68r			; 0.871008
	DD	03e844da7r			; 0.258405
	DD	03eb2cb7br			; 0.349209
	DD	0bf36cc80r			; -0.714058
	DD	03f1b558ar			; 0.606774
	DD	03e0c596cr			; 0.13706
	DD	0be9f5a87r			; -0.311238
	DD	03ebbaa17r			; 0.366532
	DD	03f4e9464r			; 0.806952
	DD	03e927f43r			; 0.286127
	DD	03eb2cb7ar			; 0.349209
	DD	0bf36cc7fr			; -0.714058
	DD	03f1b558ar			; 0.606774
	DD	03e051077r			; 0.129946
	DD	0bed29738r			; -0.41131
	DD	03e8176e3r			; 0.25286
	DD	03f535763r			; 0.825552
	DD	03e4521bfr			; 0.192512
	DD	03eb2cb7br			; 0.349209
	DD	0bf36cc80r			; -0.714058
	DD	03f1b558ar			; 0.606774
	DD	03eb3b959r			; 0.351023
	DD	0be805a1fr			; -0.250688
	DD	03e8176e4r			; 0.25286
	DD	03f6690car			; 0.900647
	DD	03eaa6864r			; 0.332828
	DD	03f123a05r			; 0.571198
	DD	0bf0d8293r			; -0.552774
	DD	03f1b5587r			; 0.606774
	DD	03e81de7dr			; 0.253651
	DD	0be67f75br			; -0.22653
	DD	03ebbaa17r			; 0.366532
	DD	03f58aa17r			; 0.846345
	DD	03eb35ecdr			; 0.350333
	DD	03f123a05r			; 0.571198
	DD	0bf0d8294r			; -0.552774
	DD	03f1b5587r			; 0.606774
	DD	03e7fffffr			; 0.25
	DD	0beb02d4fr			; -0.344096
	DD	03e869648r			; 0.262865
	DD	03f5efa68r			; 0.871008
	DD	03e844da7r			; 0.258405
	DD	03f123a04r			; 0.571198
	DD	0bf0d8293r			; -0.552774
	DD	03f1b5586r			; 0.606774
	DD	03ed9c441r			; 0.425325
	DD	0be0d8379r			; -0.138197
	DD	03e64f921r			; 0.223607
	DD	03f6c477er			; 0.922966
	DD	03ed25c53r			; 0.410861
	DD	03f3fc632r			; 0.749118
	DD	0beb24fa8r			; -0.348264
	DD	03f1041adr			; 0.563502
	DD	03eb3b959r			; 0.351023
	DD	0bde99579r			; -0.114055
	DD	03eacb320r			; 0.337304
	DD	03f60cfddr			; 0.878172
	DD	03eda7e68r			; 0.426746
	DD	03f3fc630r			; 0.749118
	DD	0beb24fa8r			; -0.348264
	DD	03f1041acr			; 0.563502
	DD	03eb3b959r			; 0.351023
	DD	0be805a1fr			; -0.250688
	DD	03e8176e4r			; 0.25286
	DD	03f6690car			; 0.900647
	DD	03eaa6864r			; 0.332828
	DD	03f3fc630r			; 0.749118
	DD	0beb24fa8r			; -0.348264
	DD	03f1041adr			; 0.563502
	DD	03e051074r			; 0.129946
	DD	0bd2cf0ebr			; -0.0422219
	DD	03ef6419cr			; 0.480969
	DD	03f4ac04fr			; 0.791997
	DD	03ef238acr			; 0.473089
	DD	03e35016er			; 0.176763
	DD	0be792208r			; -0.243294
	DD	03f742656r			; 0.95371
	DD	000000000r			; 0
	DD	0be0be97fr			; -0.136633
	DD	03ef6419cr			; 0.480969
	DD	03f400000r			; 0.75
	DD	03ed2e40dr			; 0.411896
	DD	03e35016er			; 0.176763
	DD	0be792208r			; -0.243294
	DD	03f742656r			; 0.95371
	DD	03e0c596br			; 0.13706
	DD	0be412ca1r			; -0.188647
	DD	03ee274cdr			; 0.442297
	DD	03f4c3e4er			; 0.797826
	DD	03ec0f31br			; 0.376855
	DD	03e35016fr			; 0.176763
	DD	0be792208r			; -0.243294
	DD	03f742658r			; 0.95371
	DD	03e0c596br			; 0.13706
	DD	0be412ca1r			; -0.188647
	DD	03ee274cdr			; 0.442297
	DD	03f4c3e4er			; 0.797826
	DD	03ec0f31br			; 0.376855
	DD	03e34c594r			; 0.176535
	DD	0bf047935r			; -0.517474
	DD	03f5658acr			; 0.837291
	DD	000000000r			; 0
	DD	0be869652r			; -0.262866
	DD	03ed9c440r			; 0.425325
	DD	03f400000r			; 0.75
	DD	03ea5c809r			; 0.323792
	DD	03e34c596r			; 0.176535
	DD	0bf047936r			; -0.517475
	DD	03f5658aer			; 0.837291
	DD	03e0c596cr			; 0.13706
	DD	0be9f5a87r			; -0.311238
	DD	03ebbaa17r			; 0.366532
	DD	03f4e9464r			; 0.806952
	DD	03e927f43r			; 0.286127
	DD	03e34c595r			; 0.176535
	DD	0bf047936r			; -0.517475
	DD	03f5658adr			; 0.837291
	DD	03e7fffffr			; 0.25
	DD	0bda65bf1r			; -0.0812301
	DD	03ed9c440r			; 0.425325
	DD	03f55a698r			; 0.834573
	DD	03ee567ber			; 0.448057
	DD	03ee00c73r			; 0.437595
	DD	0bea7d5d3r			; -0.327803
	DD	03f5658afr			; 0.837291
	DD	03e0c596br			; 0.13706
	DD	0be412ca1r			; -0.188647
	DD	03ee274cdr			; 0.442297
	DD	03f4c3e4er			; 0.797826
	DD	03ec0f31br			; 0.376855
	DD	03ee00c73r			; 0.437595
	DD	0bea7d5d4r			; -0.327803
	DD	03f5658b0r			; 0.837291
	DD	03e81de7dr			; 0.253651
	DD	0be67f75br			; -0.22653
	DD	03ebbaa17r			; 0.366532
	DD	03f58aa17r			; 0.846345
	DD	03eb35ecdr			; 0.350333
	DD	03ee00c73r			; 0.437595
	DD	0bea7d5d5r			; -0.327803
	DD	03f5658afr			; 0.837291
	DD	03e0c596cr			; 0.13706
	DD	0be9f5a87r			; -0.311238
	DD	03ebbaa17r			; 0.366532
	DD	03f4e9464r			; 0.806952
	DD	03e927f43r			; 0.286127
	DD	03e35016br			; 0.176763
	DD	0bf3e8538r			; -0.74422
	DD	03f24e512r			; 0.64412
	DD	000000000r			; 0
	DD	0bebcf91ar			; -0.369088
	DD	03eacb31fr			; 0.337304
	DD	03f400000r			; 0.75
	DD	03e71580ar			; 0.235687
	DD	03e35016br			; 0.176763
	DD	0bf3e8538r			; -0.74422
	DD	03f24e512r			; 0.64412
	DD	03e051077r			; 0.129946
	DD	0bed29738r			; -0.41131
	DD	03e8176e3r			; 0.25286
	DD	03f535763r			; 0.825552
	DD	03e4521bfr			; 0.192512
	DD	03e35016br			; 0.176763
	DD	0bf3e8538r			; -0.74422
	DD	03f24e513r			; 0.64412
	DD	03e81de7dr			; 0.253651
	DD	0be67f75br			; -0.22653
	DD	03ebbaa17r			; 0.366532
	DD	03f58aa17r			; 0.846345
	DD	03eb35ecdr			; 0.350333
	DD	03ee00c70r			; 0.437595
	DD	0bf1a3038r			; -0.602298
	DD	03f2aeaacr			; 0.667643
	DD	03e0c596cr			; 0.13706
	DD	0be9f5a87r			; -0.311238
	DD	03ebbaa17r			; 0.366532
	DD	03f4e9464r			; 0.806952
	DD	03e927f43r			; 0.286127
	DD	03ee00c70r			; 0.437595
	DD	0bf1a3038r			; -0.602298
	DD	03f2aeaacr			; 0.667643
	DD	03e7fffffr			; 0.25
	DD	0beb02d4fr			; -0.344096
	DD	03e869648r			; 0.262865
	DD	03f5efa68r			; 0.871008
	DD	03e844da7r			; 0.258405
	DD	03ee00c6fr			; 0.437595
	DD	0bf1a3037r			; -0.602298
	DD	03f2aeaacr			; 0.667643
	DD	03eb3b959r			; 0.351023
	DD	0bde99579r			; -0.114055
	DD	03eacb320r			; 0.337304
	DD	03f60cfddr			; 0.878172
	DD	03eda7e68r			; 0.426746
	DD	03f273651r			; 0.653173
	DD	0becbd24br			; -0.398089
	DD	03f24e510r			; 0.64412
	DD	03e81de7dr			; 0.253651
	DD	0be67f75br			; -0.22653
	DD	03ebbaa17r			; 0.366532
	DD	03f58aa17r			; 0.846345
	DD	03eb35ecdr			; 0.350333
	DD	03f273652r			; 0.653173
	DD	0becbd24br			; -0.398089
	DD	03f24e512r			; 0.64412
	DD	03eb3b959r			; 0.351023
	DD	0be805a1fr			; -0.250688
	DD	03e8176e4r			; 0.25286
	DD	03f6690car			; 0.900647
	DD	03eaa6864r			; 0.332828
	DD	03f273652r			; 0.653173
	DD	0becbd24br			; -0.398089
	DD	03f24e511r			; 0.64412
	DD	000000000r			; 0
	DD	0be0be97fr			; -0.136633
	DD	03ef6419cr			; 0.480969
	DD	03f400000r			; 0.75
	DD	03ed2e40dr			; 0.411896
	DD	0bdcc3e39r			; -0.0997281
	DD	0be0c8eebr			; -0.137264
	DD	03f7c49d1r			; 0.985501
	DD	000000000r			; 0
	DD	000000000r			; 0
	DD	03f000000r			; 0.5
	DD	03f400000r			; 0.75
	DD	03f000000r			; 0.5
	DD	0bdcc3e38r			; -0.099728
	DD	0be0c8eear			; -0.137264
	DD	03f7c49d0r			; 0.985501
	DD	0be051074r			; -0.129946
	DD	0bd2cf0ebr			; -0.0422219
	DD	03ef6419cr			; 0.480969
	DD	03f353fb1r			; 0.708003
	DD	03ef238acr			; 0.473089
	DD	0bdcc3e3ar			; -0.0997281
	DD	0be0c8eebr			; -0.137264
	DD	03f7c49d1r			; 0.985501
	DD	0be0c596br			; -0.13706
	DD	0be412ca1r			; -0.188647
	DD	03ee274cdr			; 0.442297
	DD	03f33c1b2r			; 0.702174
	DD	03ec0f31br			; 0.376855
	DD	0beb2cb7br			; -0.349209
	DD	0be64bd84r			; -0.223379
	DD	03f68f7ber			; 0.91003
	DD	0be051074r			; -0.129946
	DD	0bd2cf0ebr			; -0.0422219
	DD	03ef6419cr			; 0.480969
	DD	03f353fb1r			; 0.708003
	DD	03ef238acr			; 0.473089
	DD	0beb2cb7br			; -0.349209
	DD	0be64bd85r			; -0.223379
	DD	03f68f7ber			; 0.91003
	DD	0be7fffffr			; -0.25
	DD	0bda65bf1r			; -0.0812301
	DD	03ed9c440r			; 0.425325
	DD	03f2a5968r			; 0.665427
	DD	03ee567ber			; 0.448057
	DD	0beb2cb7br			; -0.349209
	DD	0be64bd85r			; -0.223379
	DD	03f68f7bfr			; 0.91003
	DD	000000000r			; 0
	DD	0be869652r			; -0.262866
	DD	03ed9c440r			; 0.425325
	DD	03f400000r			; 0.75
	DD	03ea5c809r			; 0.323792
	DD	0bdd61643r			; -0.104535
	DD	0becd62e8r			; -0.401145
	DD	03f68f7bfr			; 0.91003
	DD	000000000r			; 0
	DD	0be0be97fr			; -0.136633
	DD	03ef6419cr			; 0.480969
	DD	03f400000r			; 0.75
	DD	03ed2e40dr			; 0.411896
	DD	0bdd61644r			; -0.104535
	DD	0becd62e9r			; -0.401145
	DD	03f68f7ber			; 0.91003
	DD	0be0c596br			; -0.13706
	DD	0be412ca1r			; -0.188647
	DD	03ee274cdr			; 0.442297
	DD	03f33c1b2r			; 0.702174
	DD	03ec0f31br			; 0.376855
	DD	0bdd61643r			; -0.104535
	DD	0becd62e9r			; -0.401145
	DD	03f68f7ber			; 0.91003
	DD	0be81de7dr			; -0.253651
	DD	0be67f75br			; -0.22653
	DD	03ebbaa19r			; 0.366532
	DD	03f2755e9r			; 0.653655
	DD	03eb35ecfr			; 0.350333
	DD	0bf123a06r			; -0.571198
	DD	0be974cc3r			; -0.295508
	DD	03f4409b2r			; 0.765773
	DD	0be7fffffr			; -0.25
	DD	0bda65bf1r			; -0.0812301
	DD	03ed9c440r			; 0.425325
	DD	03f2a5968r			; 0.665427
	DD	03ee567ber			; 0.448057
	DD	0bf123a07r			; -0.571198
	DD	0be974cc4r			; -0.295508
	DD	03f4409b3r			; 0.765773
	DD	0beb3b959r			; -0.351023
	DD	0bde99579r			; -0.114055
	DD	03eacb320r			; 0.337304
	DD	03f1f3023r			; 0.621828
	DD	03eda7e68r			; 0.426746
	DD	0bf123a06r			; -0.571198
	DD	0be974cc3r			; -0.295508
	DD	03f4409b2r			; 0.765773
	DD	0be0c596dr			; -0.13706
	DD	0be9f5a88r			; -0.311238
	DD	03ebbaa17r			; 0.366532
	DD	03f316b9cr			; 0.693048
	DD	03e927f43r			; 0.286127
	DD	0beb6b155r			; -0.356822
	DD	0befb748fr			; -0.491124
	DD	03f4b6e79r			; 0.794654
	DD	0be0c596br			; -0.13706
	DD	0be412ca1r			; -0.188647
	DD	03ee274cdr			; 0.442297
	DD	03f33c1b2r			; 0.702174
	DD	03ec0f31br			; 0.376855
	DD	0beb6b155r			; -0.356822
	DD	0befb7491r			; -0.491124
	DD	03f4b6e79r			; 0.794654
	DD	0be81de7dr			; -0.253651
	DD	0be67f75br			; -0.22653
	DD	03ebbaa19r			; 0.366532
	DD	03f2755e9r			; 0.653655
	DD	03eb35ecfr			; 0.350333
	DD	0beb6b156r			; -0.356822
	DD	0befb7492r			; -0.491124
	DD	03f4b6e7br			; 0.794655
	DD	000000000r			; 0
	DD	0bebcf91ar			; -0.369088
	DD	03eacb31fr			; 0.337304
	DD	03f400000r			; 0.75
	DD	03e71580ar			; 0.235687
	DD	0bdd61633r			; -0.104535
	DD	0bf22726dr			; -0.634558
	DD	03f4409afr			; 0.765773
	DD	000000000r			; 0
	DD	0be869652r			; -0.262866
	DD	03ed9c440r			; 0.425325
	DD	03f400000r			; 0.75
	DD	03ea5c809r			; 0.323792
	DD	0bdd61634r			; -0.104535
	DD	0bf22726er			; -0.634559
	DD	03f4409b0r			; 0.765773
	DD	0be0c596dr			; -0.13706
	DD	0be9f5a88r			; -0.311238
	DD	03ebbaa17r			; 0.366532
	DD	03f316b9cr			; 0.693048
	DD	03e927f43r			; 0.286127
	DD	0bdd61634r			; -0.104535
	DD	0bf22726fr			; -0.634559
	DD	03f4409b0r			; 0.765773
	DD	0beb3b959r			; -0.351023
	DD	0be805a1fr			; -0.250688
	DD	03e8176e4r			; 0.25286
	DD	03f196f36r			; 0.599353
	DD	03eaa6864r			; 0.332828
	DD	0bf3fc62fr			; -0.749118
	DD	0beb24fa7r			; -0.348264
	DD	03f1041adr			; 0.563502
	DD	0beb3b959r			; -0.351023
	DD	0bde99579r			; -0.114055
	DD	03eacb320r			; 0.337304
	DD	03f1f3023r			; 0.621828
	DD	03eda7e68r			; 0.426746
	DD	0bf3fc62fr			; -0.749118
	DD	0beb24fa7r			; -0.348264
	DD	03f1041acr			; 0.563502
	DD	0bed9c441r			; -0.425325
	DD	0be0d8379r			; -0.138197
	DD	03e64f921r			; 0.223607
	DD	03f13b882r			; 0.577034
	DD	03ed25c53r			; 0.410861
	DD	0bf3fc630r			; -0.749118
	DD	0beb24fa7r			; -0.348264
	DD	03f1041adr			; 0.563502
	DD	0be7fffffr			; -0.25
	DD	0beb02d4fr			; -0.344096
	DD	03e869648r			; 0.262865
	DD	03f210598r			; 0.628992
	DD	03e844da7r			; 0.258405
	DD	0bf123a06r			; -0.571198
	DD	0bf0d8296r			; -0.552774
	DD	03f1b5583r			; 0.606774
	DD	0be81de7dr			; -0.253651
	DD	0be67f75br			; -0.22653
	DD	03ebbaa19r			; 0.366532
	DD	03f2755e9r			; 0.653655
	DD	03eb35ecfr			; 0.350333
	DD	0bf123a07r			; -0.571198
	DD	0bf0d8297r			; -0.552774
	DD	03f1b5583r			; 0.606774
	DD	0beb3b959r			; -0.351023
	DD	0be805a1fr			; -0.250688
	DD	03e8176e4r			; 0.25286
	DD	03f196f36r			; 0.599353
	DD	03eaa6864r			; 0.332828
	DD	0bf123a06r			; -0.571198
	DD	0bf0d8296r			; -0.552774
	DD	03f1b5583r			; 0.606774
	DD	0be051077r			; -0.129946
	DD	0bed29738r			; -0.41131
	DD	03e8176e3r			; 0.25286
	DD	03f2ca89dr			; 0.674448
	DD	03e4521bfr			; 0.192512
	DD	0beb2cb7er			; -0.349209
	DD	0bf36cc82r			; -0.714058
	DD	03f1b5586r			; 0.606774
	DD	0be0c596dr			; -0.13706
	DD	0be9f5a88r			; -0.311238
	DD	03ebbaa17r			; 0.366532
	DD	03f316b9cr			; 0.693048
	DD	03e927f43r			; 0.286127
	DD	0beb2cb7er			; -0.349209
	DD	0bf36cc82r			; -0.714058
	DD	03f1b5586r			; 0.606774
	DD	0be7fffffr			; -0.25
	DD	0beb02d4fr			; -0.344096
	DD	03e869648r			; 0.262865
	DD	03f210598r			; 0.628992
	DD	03e844da7r			; 0.258405
	DD	0beb2cb7fr			; -0.349209
	DD	0bf36cc83r			; -0.714058
	DD	03f1b5586r			; 0.606774
	DD	000000000r			; 0
	DD	0bee4f931r			; -0.447214
	DD	03e64f91fr			; 0.223607
	DD	03f400000r			; 0.75
	DD	03e17201er			; 0.147583
	DD	0bdcc3e36r			; -0.099728
	DD	0bf51f04fr			; -0.820073
	DD	03f1041aar			; 0.563502
	DD	000000000r			; 0
	DD	0bebcf91ar			; -0.369088
	DD	03eacb31fr			; 0.337304
	DD	03f400000r			; 0.75
	DD	03e71580ar			; 0.235687
	DD	0bdcc3e38r			; -0.099728
	DD	0bf51f04fr			; -0.820073
	DD	03f1041aar			; 0.563502
	DD	0be051077r			; -0.129946
	DD	0bed29738r			; -0.41131
	DD	03e8176e3r			; 0.25286
	DD	03f2ca89dr			; 0.674448
	DD	03e4521bfr			; 0.192512
	DD	0bdcc3e38r			; -0.099728
	DD	0bf51f050r			; -0.820073
	DD	03f1041abr			; 0.563502
	DD	000000000r			; 0
	DD	0be0be97fr			; -0.136633
	DD	03ef6419cr			; 0.480969
	DD	03f400000r			; 0.75
	DD	03ed2e40dr			; 0.411896
	DD	0be35016er			; -0.176763
	DD	0be792208r			; -0.243294
	DD	03f742656r			; 0.95371
	DD	0be051074r			; -0.129946
	DD	0bd2cf0ebr			; -0.0422219
	DD	03ef6419cr			; 0.480969
	DD	03f353fb1r			; 0.708003
	DD	03ef238acr			; 0.473089
	DD	0be35016er			; -0.176763
	DD	0be792208r			; -0.243294
	DD	03f742656r			; 0.95371
	DD	0be0c596br			; -0.13706
	DD	0be412ca1r			; -0.188647
	DD	03ee274cdr			; 0.442297
	DD	03f33c1b2r			; 0.702174
	DD	03ec0f31br			; 0.376855
	DD	0be35016fr			; -0.176763
	DD	0be792208r			; -0.243294
	DD	03f742658r			; 0.95371
	DD	0be0c596br			; -0.13706
	DD	0be412ca1r			; -0.188647
	DD	03ee274cdr			; 0.442297
	DD	03f33c1b2r			; 0.702174
	DD	03ec0f31br			; 0.376855
	DD	0bee00c6cr			; -0.437595
	DD	0bea7d5car			; -0.327803
	DD	03f5658b3r			; 0.837291
	DD	0be7fffffr			; -0.25
	DD	0bda65bf1r			; -0.0812301
	DD	03ed9c440r			; 0.425325
	DD	03f2a5968r			; 0.665427
	DD	03ee567ber			; 0.448057
	DD	0bee00c6cr			; -0.437595
	DD	0bea7d5c9r			; -0.327803
	DD	03f5658b2r			; 0.837291
	DD	0be81de7dr			; -0.253651
	DD	0be67f75br			; -0.22653
	DD	03ebbaa19r			; 0.366532
	DD	03f2755e9r			; 0.653655
	DD	03eb35ecfr			; 0.350333
	DD	0bee00c6cr			; -0.437595
	DD	0bea7d5c9r			; -0.327803
	DD	03f5658b3r			; 0.837291
	DD	000000000r			; 0
	DD	0be869652r			; -0.262866
	DD	03ed9c440r			; 0.425325
	DD	03f400000r			; 0.75
	DD	03ea5c809r			; 0.323792
	DD	0be34c592r			; -0.176535
	DD	0bf047934r			; -0.517474
	DD	03f5658aer			; 0.837291
	DD	0be0c596br			; -0.13706
	DD	0be412ca1r			; -0.188647
	DD	03ee274cdr			; 0.442297
	DD	03f33c1b2r			; 0.702174
	DD	03ec0f31br			; 0.376855
	DD	0be34c593r			; -0.176535
	DD	0bf047934r			; -0.517474
	DD	03f5658aer			; 0.837291
	DD	0be0c596dr			; -0.13706
	DD	0be9f5a88r			; -0.311238
	DD	03ebbaa17r			; 0.366532
	DD	03f316b9cr			; 0.693048
	DD	03e927f43r			; 0.286127
	DD	0be34c593r			; -0.176535
	DD	0bf047934r			; -0.517474
	DD	03f5658aer			; 0.837291
	DD	0be81de7dr			; -0.253651
	DD	0be67f75br			; -0.22653
	DD	03ebbaa19r			; 0.366532
	DD	03f2755e9r			; 0.653655
	DD	03eb35ecfr			; 0.350333
	DD	0bf273655r			; -0.653173
	DD	0becbd247r			; -0.398089
	DD	03f24e50dr			; 0.64412
	DD	0beb3b959r			; -0.351023
	DD	0bde99579r			; -0.114055
	DD	03eacb320r			; 0.337304
	DD	03f1f3023r			; 0.621828
	DD	03eda7e68r			; 0.426746
	DD	0bf273655r			; -0.653173
	DD	0becbd246r			; -0.398089
	DD	03f24e50dr			; 0.64412
	DD	0beb3b959r			; -0.351023
	DD	0be805a1fr			; -0.250688
	DD	03e8176e4r			; 0.25286
	DD	03f196f36r			; 0.599353
	DD	03eaa6864r			; 0.332828
	DD	0bf273656r			; -0.653173
	DD	0becbd249r			; -0.398089
	DD	03f24e50er			; 0.64412
	DD	0be0c596dr			; -0.13706
	DD	0be9f5a88r			; -0.311238
	DD	03ebbaa17r			; 0.366532
	DD	03f316b9cr			; 0.693048
	DD	03e927f43r			; 0.286127
	DD	0bee00c70r			; -0.437595
	DD	0bf1a303br			; -0.602298
	DD	03f2aeaa8r			; 0.667643
	DD	0be81de7dr			; -0.253651
	DD	0be67f75br			; -0.22653
	DD	03ebbaa19r			; 0.366532
	DD	03f2755e9r			; 0.653655
	DD	03eb35ecfr			; 0.350333
	DD	0bee00c72r			; -0.437595
	DD	0bf1a303cr			; -0.602298
	DD	03f2aeaa9r			; 0.667643
	DD	0be7fffffr			; -0.25
	DD	0beb02d4fr			; -0.344096
	DD	03e869648r			; 0.262865
	DD	03f210598r			; 0.628992
	DD	03e844da7r			; 0.258405
	DD	0bee00c70r			; -0.437595
	DD	0bf1a303br			; -0.602298
	DD	03f2aeaa8r			; 0.667643
	DD	000000000r			; 0
	DD	0bebcf91ar			; -0.369088
	DD	03eacb31fr			; 0.337304
	DD	03f400000r			; 0.75
	DD	03e71580ar			; 0.235687
	DD	0be350164r			; -0.176763
	DD	0bf3e8539r			; -0.74422
	DD	03f24e50er			; 0.64412
	DD	0be0c596dr			; -0.13706
	DD	0be9f5a88r			; -0.311238
	DD	03ebbaa17r			; 0.366532
	DD	03f316b9cr			; 0.693048
	DD	03e927f43r			; 0.286127
	DD	0be350165r			; -0.176763
	DD	0bf3e8539r			; -0.74422
	DD	03f24e50fr			; 0.64412
	DD	0be051077r			; -0.129946
	DD	0bed29738r			; -0.41131
	DD	03e8176e3r			; 0.25286
	DD	03f2ca89dr			; 0.674448
	DD	03e4521bfr			; 0.192512
	DD	0be350166r			; -0.176763
	DD	0bf3e853br			; -0.74422
	DD	03f24e510r			; 0.64412
	DD	0be051074r			; -0.129946
	DD	0bd2cf0ebr			; -0.0422219
	DD	03ef6419cr			; 0.480969
	DD	03f353fb1r			; 0.708003
	DD	03ef238acr			; 0.473089
	DD	0be253c79r			; -0.161363
	DD	03d56c100r			; 0.0524302
	DD	03f7c49d0r			; 0.985501
	DD	000000000r			; 0
	DD	000000000r			; 0
	DD	03f000000r			; 0.5
	DD	03f400000r			; 0.75
	DD	03f000000r			; 0.5
	DD	0be253c7ar			; -0.161364
	DD	03d56c101r			; 0.0524302
	DD	03f7c49d1r			; 0.985501
	DD	0bda479fbr			; -0.0803108
	DD	03de261ear			; 0.110538
	DD	03ef6419cr			; 0.480969
	DD	03f39424ar			; 0.723668
	DD	03f122a3fr			; 0.570957
	DD	0be253c79r			; -0.161363
	DD	03d56c101r			; 0.0524302
	DD	03f7c49d1r			; 0.985501
	DD	0be631708r			; -0.221768
	DD	03d939266r			; 0.0720566
	DD	03ee274cfr			; 0.442297
	DD	03f2d1050r			; 0.67603
	DD	03f0bc8d1r			; 0.546033
	DD	0bea405e2r			; -0.320357
	DD	03e86b3a4r			; 0.263089
	DD	03f68f7ber			; 0.91003
	DD	0bda479fbr			; -0.0803108
	DD	03de261ear			; 0.110538
	DD	03ef6419cr			; 0.480969
	DD	03f39424ar			; 0.723668
	DD	03f122a3fr			; 0.570957
	DD	0bea405e2r			; -0.320357
	DD	03e86b3a3r			; 0.263089
	DD	03f68f7bfr			; 0.91003
	DD	0be1e377ar			; -0.154509
	DD	03e59c441r			; 0.212663
	DD	03ed9c441r			; 0.425325
	DD	03f31cd8dr			; 0.694543
	DD	03f23cc94r			; 0.63984
	DD	0bea405e2r			; -0.320357
	DD	03e86b3a4r			; 0.263089
	DD	03f68f7bfr			; 0.91003
	DD	0be7fffffr			; -0.25
	DD	0bda65bf1r			; -0.0812301
	DD	03ed9c440r			; 0.425325
	DD	03f2a5968r			; 0.665427
	DD	03ee567ber			; 0.448057
	DD	0bed3df85r			; -0.413815
	DD	0bcc90dbdr			; -0.0245427
	DD	03f68f7bdr			; 0.91003
	DD	0be051074r			; -0.129946
	DD	0bd2cf0ebr			; -0.0422219
	DD	03ef6419cr			; 0.480969
	DD	03f353fb1r			; 0.708003
	DD	03ef238acr			; 0.473089
	DD	0bed3df86r			; -0.413815
	DD	0bcc90dber			; -0.0245427
	DD	03f68f7ber			; 0.91003
	DD	0be631708r			; -0.221768
	DD	03d939266r			; 0.0720566
	DD	03ee274cfr			; 0.442297
	DD	03f2d1050r			; 0.67603
	DD	03f0bc8d1r			; 0.546033
	DD	0bed3df86r			; -0.413815
	DD	0bcc90dber			; -0.0245427
	DD	03f68f7ber			; 0.91003
	DD	0be96702dr			; -0.293825
	DD	03e2f581dr			; 0.171235
	DD	03ebbaa1ar			; 0.366532
	DD	03f2477d0r			; 0.642453
	DD	03f1c7bbfr			; 0.611263
	DD	0beea4493r			; -0.457554
	DD	03ee762a3r			; 0.451924
	DD	03f4409b3r			; 0.765773
	DD	0be1e377ar			; -0.154509
	DD	03e59c441r			; 0.212663
	DD	03ed9c441r			; 0.425325
	DD	03f31cd8dr			; 0.694543
	DD	03f23cc94r			; 0.63984
	DD	0beea4494r			; -0.457554
	DD	03ee762a3r			; 0.451924
	DD	03f4409b3r			; 0.765773
	DD	0be5e26b0r			; -0.216944
	DD	03e98e1e6r			; 0.298598
	DD	03eacb321r			; 0.337304
	DD	03f28b66ar			; 0.659033
	DD	03f3426edr			; 0.703719
	DD	0beea4493r			; -0.457554
	DD	03ee762a3r			; 0.451924
	DD	03f4409b3r			; 0.765773
	DD	0bead3d4cr			; -0.338358
	DD	03d0bf9f1r			; 0.0341739
	DD	03ebbaa1ar			; 0.366532
	DD	03f21a0acr			; 0.631358
	DD	03f0592e6r			; 0.521773
	DD	0bf13cd3dr			; -0.57735
	DD	03e40183fr			; 0.187592
	DD	03f4b6e77r			; 0.794654
	DD	0be631708r			; -0.221768
	DD	03d939266r			; 0.0720566
	DD	03ee274cfr			; 0.442297
	DD	03f2d1050r			; 0.67603
	DD	03f0bc8d1r			; 0.546033
	DD	0bf13cd3dr			; -0.57735
	DD	03e40183fr			; 0.187592
	DD	03f4b6e77r			; 0.794654
	DD	0be96702dr			; -0.293825
	DD	03e2f581dr			; 0.171235
	DD	03ebbaa1ar			; 0.366532
	DD	03f2477d0r			; 0.642453
	DD	03f1c7bbfr			; 0.611263
	DD	0bf13cd3dr			; -0.57735
	DD	03e40183fr			; 0.187592
	DD	03f4b6e77r			; 0.794654
	DD	0beb3b959r			; -0.351023
	DD	0bde99579r			; -0.114055
	DD	03eacb320r			; 0.337304
	DD	03f1f3023r			; 0.621828
	DD	03eda7e68r			; 0.426746
	DD	0bf22c409r			; -0.635804
	DD	0bdc5fba9r			; -0.0966714
	DD	03f4409b2r			; 0.765773
	DD	0be7fffffr			; -0.25
	DD	0bda65bf1r			; -0.0812301
	DD	03ed9c440r			; 0.425325
	DD	03f2a5968r			; 0.665427
	DD	03ee567ber			; 0.448057
	DD	0bf22c40ar			; -0.635804
	DD	0bdc5fbabr			; -0.0966714
	DD	03f4409b3r			; 0.765773
	DD	0bead3d4cr			; -0.338358
	DD	03d0bf9f1r			; 0.0341739
	DD	03ebbaa1ar			; 0.366532
	DD	03f21a0acr			; 0.631358
	DD	03f0592e6r			; 0.521773
	DD	0bf22c409r			; -0.635804
	DD	0bdc5fbabr			; -0.0966714
	DD	03f4409b3r			; 0.765773
	DD	0beb19b96r			; -0.34689
	DD	03e8343c9r			; 0.256377
	DD	03e8176e5r			; 0.25286
	DD	03f19a9e9r			; 0.600249
	DD	03f2bdf31r			; 0.671374
	DD	0bf100db0r			; -0.562709
	DD	03f1ad668r			; 0.604834
	DD	03f1041abr			; 0.563502
	DD	0be5e26b0r			; -0.216944
	DD	03e98e1e6r			; 0.298598
	DD	03eacb321r			; 0.337304
	DD	03f28b66ar			; 0.659033
	DD	03f3426edr			; 0.703719
	DD	0bf100dafr			; -0.562709
	DD	03f1ad668r			; 0.604834
	DD	03f1041abr			; 0.563502
	DD	0be869652r			; -0.262866
	DD	03eb93e4er			; 0.361803
	DD	03e64f923r			; 0.223607
	DD	03f1cb813r			; 0.612184
	DD	03f41eca5r			; 0.757517
	DD	0bf100dafr			; -0.562709
	DD	03f1ad668r			; 0.604834
	DD	03f1041abr			; 0.563502
	DD	0becf1bc1r			; -0.404509
	DD	03e06964br			; 0.131433
	DD	03e86964br			; 0.262865
	DD	03f177aa1r			; 0.591715
	DD	03f15acc5r			; 0.584668
	DD	0bf33c53fr			; -0.702228
	DD	03ebeae7fr			; 0.372425
	DD	03f1b5589r			; 0.606774
	DD	0be96702dr			; -0.293825
	DD	03e2f581dr			; 0.171235
	DD	03ebbaa1ar			; 0.366532
	DD	03f2477d0r			; 0.642453
	DD	03f1c7bbfr			; 0.611263
	DD	0bf33c53fr			; -0.702228
	DD	03ebeae7er			; 0.372425
	DD	03f1b5589r			; 0.606774
	DD	0beb19b96r			; -0.34689
	DD	03e8343c9r			; 0.256377
	DD	03e8176e5r			; 0.25286
	DD	03f19a9e9r			; 0.600249
	DD	03f2bdf31r			; 0.671374
	DD	0bf33c53fr			; -0.702228
	DD	03ebeae80r			; 0.372425
	DD	03f1b558ar			; 0.606774
	DD	0bedcd7dcr			; -0.431334
	DD	0bb667124r			; -0.00351627
	DD	03e8176e5r			; 0.25286
	DD	03f159a83r			; 0.584389
	DD	03efeda97r			; 0.497761
	DD	0bf497a35r			; -0.787021
	DD	03de445afr			; 0.111461
	DD	03f1b5587r			; 0.606774
	DD	0bead3d4cr			; -0.338358
	DD	03d0bf9f1r			; 0.0341739
	DD	03ebbaa1ar			; 0.366532
	DD	03f21a0acr			; 0.631358
	DD	03f0592e6r			; 0.521773
	DD	0bf497a35r			; -0.787021
	DD	03de445afr			; 0.111461
	DD	03f1b5587r			; 0.606774
	DD	0becf1bc1r			; -0.404509
	DD	03e06964br			; 0.131433
	DD	03e86964br			; 0.262865
	DD	03f177aa1r			; 0.591715
	DD	03f15acc5r			; 0.584668
	DD	0bf497a35r			; -0.787021
	DD	03de445aer			; 0.111461
	DD	03f1b5588r			; 0.606774
	DD	0bed9c441r			; -0.425325
	DD	0be0d8379r			; -0.138197
	DD	03e64f921r			; 0.223607
	DD	03f13b882r			; 0.577034
	DD	03ed25c53r			; 0.410861
	DD	0bf4f8d8ar			; -0.810753
	DD	0be226018r			; -0.15857
	DD	03f1041acr			; 0.563502
	DD	0beb3b959r			; -0.351023
	DD	0bde99579r			; -0.114055
	DD	03eacb320r			; 0.337304
	DD	03f1f3023r			; 0.621828
	DD	03eda7e68r			; 0.426746
	DD	0bf4f8d89r			; -0.810753
	DD	0be226015r			; -0.15857
	DD	03f1041abr			; 0.563502
	DD	0bedcd7dcr			; -0.431334
	DD	0bb667124r			; -0.00351627
	DD	03e8176e5r			; 0.25286
	DD	03f159a83r			; 0.584389
	DD	03efeda97r			; 0.497761
	DD	0bf4f8d89r			; -0.810753
	DD	0be226017r			; -0.15857
	DD	03f1041abr			; 0.563502
	DD	0be051074r			; -0.129946
	DD	0bd2cf0ebr			; -0.0422219
	DD	03ef6419cr			; 0.480969
	DD	03f353fb1r			; 0.708003
	DD	03ef238acr			; 0.473089
	DD	0be926fbbr			; -0.286009
	DD	03dbe51fbr			; 0.0929298
	DD	03f74265ar			; 0.95371
	DD	0bda479fbr			; -0.0803108
	DD	03de261ear			; 0.110538
	DD	03ef6419cr			; 0.480969
	DD	03f39424ar			; 0.723668
	DD	03f122a3fr			; 0.570957
	DD	0be926fbbr			; -0.286009
	DD	03dbe51fbr			; 0.0929298
	DD	03f74265ar			; 0.95371
	DD	0be631708r			; -0.221768
	DD	03d939266r			; 0.0720566
	DD	03ee274cfr			; 0.442297
	DD	03f2d1050r			; 0.67603
	DD	03f0bc8d1r			; 0.546033
	DD	0be926fbbr			; -0.286009
	DD	03dbe51fbr			; 0.0929298
	DD	03f742659r			; 0.95371
	DD	0be631708r			; -0.221768
	DD	03d939266r			; 0.0720566
	DD	03ee274cfr			; 0.442297
	DD	03f2d1050r			; 0.67603
	DD	03f0bc8d1r			; 0.546033
	DD	0bee4db09r			; -0.446984
	DD	03ea13813r			; 0.314881
	DD	03f5658afr			; 0.837291
	DD	0be1e377ar			; -0.154509
	DD	03e59c441r			; 0.212663
	DD	03ed9c441r			; 0.425325
	DD	03f31cd8dr			; 0.694543
	DD	03f23cc94r			; 0.63984
	DD	0bee4db09r			; -0.446984
	DD	03ea13812r			; 0.314881
	DD	03f5658aer			; 0.837291
	DD	0be96702dr			; -0.293825
	DD	03e2f581dr			; 0.171235
	DD	03ebbaa1ar			; 0.366532
	DD	03f2477d0r			; 0.642453
	DD	03f1c7bbfr			; 0.611263
	DD	0bee4db09r			; -0.446984
	DD	03ea13813r			; 0.314881
	DD	03f5658afr			; 0.837291
	DD	0be7fffffr			; -0.25
	DD	0bda65bf1r			; -0.0812301
	DD	03ed9c440r			; 0.425325
	DD	03f2a5968r			; 0.665427
	DD	03ee567ber			; 0.448057
	DD	0bf0bf480r			; -0.5467
	DD	03c02d74fr			; 0.0079859
	DD	03f5658b0r			; 0.837291
	DD	0be631708r			; -0.221768
	DD	03d939266r			; 0.0720566
	DD	03ee274cfr			; 0.442297
	DD	03f2d1050r			; 0.67603
	DD	03f0bc8d1r			; 0.546033
	DD	0bf0bf480r			; -0.5467
	DD	03c02d74fr			; 0.0079859
	DD	03f5658b1r			; 0.837291
	DD	0bead3d4cr			; -0.338358
	DD	03d0bf9f1r			; 0.0341739
	DD	03ebbaa1ar			; 0.366532
	DD	03f21a0acr			; 0.631358
	DD	03f0592e6r			; 0.521773
	DD	0bf0bf480r			; -0.5467
	DD	03c02d74fr			; 0.0079859
	DD	03f5658b0r			; 0.837291
	DD	0be96702dr			; -0.293825
	DD	03e2f581dr			; 0.171235
	DD	03ebbaa1ar			; 0.366532
	DD	03f2477d0r			; 0.642453
	DD	03f1c7bbfr			; 0.611263
	DD	0bf149821r			; -0.580446
	DD	03eff1276r			; 0.498188
	DD	03f24e512r			; 0.64412
	DD	0be5e26b0r			; -0.216944
	DD	03e98e1e6r			; 0.298598
	DD	03eacb321r			; 0.337304
	DD	03f28b66ar			; 0.659033
	DD	03f3426edr			; 0.703719
	DD	0bf149822r			; -0.580446
	DD	03eff1276r			; 0.498188
	DD	03f24e513r			; 0.64412
	DD	0beb19b96r			; -0.34689
	DD	03e8343c9r			; 0.256377
	DD	03e8176e5r			; 0.25286
	DD	03f19a9e9r			; 0.600249
	DD	03f2bdf31r			; 0.671374
	DD	0bf149821r			; -0.580446
	DD	03eff1274r			; 0.498188
	DD	03f24e512r			; 0.64412
	DD	0bead3d4cr			; -0.338358
	DD	03d0bf9f1r			; 0.0341739
	DD	03ebbaa1ar			; 0.366532
	DD	03f21a0acr			; 0.631358
	DD	03f0592e6r			; 0.521773
	DD	0bf35425br			; -0.708044
	DD	03e6b9426r			; 0.230057
	DD	03f2aeaafr			; 0.667643
	DD	0be96702dr			; -0.293825
	DD	03e2f581dr			; 0.171235
	DD	03ebbaa1ar			; 0.366532
	DD	03f2477d0r			; 0.642453
	DD	03f1c7bbfr			; 0.611263
	DD	0bf35425ar			; -0.708044
	DD	03e6b9424r			; 0.230057
	DD	03f2aeaaer			; 0.667643
	DD	0becf1bc1r			; -0.404509
	DD	03e06964br			; 0.131433
	DD	03e86964br			; 0.262865
	DD	03f177aa1r			; 0.591715
	DD	03f15acc5r			; 0.584668
	DD	0bf35425ar			; -0.708044
	DD	03e6b9424r			; 0.230057
	DD	03f2aeaaer			; 0.667643
	DD	0beb3b959r			; -0.351023
	DD	0bde99579r			; -0.114055
	DD	03eacb320r			; 0.337304
	DD	03f1f3023r			; 0.621828
	DD	03eda7e68r			; 0.426746
	DD	0bf432ddar			; -0.762418
	DD	0bd7d6672r			; -0.0618653
	DD	03f24e511r			; 0.64412
	DD	0bead3d4cr			; -0.338358
	DD	03d0bf9f1r			; 0.0341739
	DD	03ebbaa1ar			; 0.366532
	DD	03f21a0acr			; 0.631358
	DD	03f0592e6r			; 0.521773
	DD	0bf432ddar			; -0.762418
	DD	0bd7d6673r			; -0.0618653
	DD	03f24e511r			; 0.64412
	DD	0bedcd7dcr			; -0.431334
	DD	0bb667124r			; -0.00351627
	DD	03e8176e5r			; 0.25286
	DD	03f159a83r			; 0.584389
	DD	03efeda97r			; 0.497761
	DD	0bf432ddar			; -0.762418
	DD	0bd7d6672r			; -0.0618653
	DD	03f24e511r			; 0.64412
?sphere_indices@lib3d@@3PAHA DD 00H			; lib3d::sphere_indices
	DD	01H
	DD	02H
	DD	03H
	DD	04H
	DD	05H
	DD	06H
	DD	07H
	DD	08H
	DD	09H
	DD	0aH
	DD	0bH
	DD	0cH
	DD	0dH
	DD	0eH
	DD	0fH
	DD	010H
	DD	011H
	DD	012H
	DD	013H
	DD	014H
	DD	015H
	DD	016H
	DD	017H
	DD	018H
	DD	019H
	DD	01aH
	DD	01bH
	DD	01cH
	DD	01dH
	DD	01eH
	DD	01fH
	DD	020H
	DD	021H
	DD	022H
	DD	023H
	DD	024H
	DD	025H
	DD	026H
	DD	027H
	DD	028H
	DD	029H
	DD	02aH
	DD	02bH
	DD	02cH
	DD	02dH
	DD	02eH
	DD	02fH
	DD	030H
	DD	031H
	DD	032H
	DD	033H
	DD	034H
	DD	035H
	DD	036H
	DD	037H
	DD	038H
	DD	039H
	DD	03aH
	DD	03bH
	DD	03cH
	DD	03dH
	DD	03eH
	DD	03fH
	DD	040H
	DD	041H
	DD	042H
	DD	043H
	DD	044H
	DD	045H
	DD	046H
	DD	047H
	DD	048H
	DD	049H
	DD	04aH
	DD	04bH
	DD	04cH
	DD	04dH
	DD	04eH
	DD	04fH
	DD	050H
	DD	051H
	DD	052H
	DD	053H
	DD	054H
	DD	055H
	DD	056H
	DD	057H
	DD	058H
	DD	059H
	DD	05aH
	DD	05bH
	DD	05cH
	DD	05dH
	DD	05eH
	DD	05fH
	DD	060H
	DD	061H
	DD	062H
	DD	063H
	DD	064H
	DD	065H
	DD	066H
	DD	067H
	DD	068H
	DD	069H
	DD	06aH
	DD	06bH
	DD	06cH
	DD	06dH
	DD	06eH
	DD	06fH
	DD	070H
	DD	071H
	DD	072H
	DD	073H
	DD	074H
	DD	075H
	DD	076H
	DD	077H
	DD	078H
	DD	079H
	DD	07aH
	DD	07bH
	DD	07cH
	DD	07dH
	DD	07eH
	DD	07fH
	DD	080H
	DD	081H
	DD	082H
	DD	083H
	DD	084H
	DD	085H
	DD	086H
	DD	087H
	DD	088H
	DD	089H
	DD	08aH
	DD	08bH
	DD	08cH
	DD	08dH
	DD	08eH
	DD	08fH
	DD	090H
	DD	091H
	DD	092H
	DD	093H
	DD	094H
	DD	095H
	DD	096H
	DD	097H
	DD	098H
	DD	099H
	DD	09aH
	DD	09bH
	DD	09cH
	DD	09dH
	DD	09eH
	DD	09fH
	DD	0a0H
	DD	0a1H
	DD	0a2H
	DD	0a3H
	DD	0a4H
	DD	0a5H
	DD	0a6H
	DD	0a7H
	DD	0a8H
	DD	0a9H
	DD	0aaH
	DD	0abH
	DD	0acH
	DD	0adH
	DD	0aeH
	DD	0afH
	DD	0b0H
	DD	0b1H
	DD	0b2H
	DD	0b3H
	DD	0b4H
	DD	0b5H
	DD	0b6H
	DD	0b7H
	DD	0b8H
	DD	0b9H
	DD	0baH
	DD	0bbH
	DD	0bcH
	DD	0bdH
	DD	0beH
	DD	0bfH
	DD	0c0H
	DD	0c1H
	DD	0c2H
	DD	0c3H
	DD	0c4H
	DD	0c5H
	DD	0c6H
	DD	0c7H
	DD	0c8H
	DD	0c9H
	DD	0caH
	DD	0cbH
	DD	0ccH
	DD	0cdH
	DD	0ceH
	DD	0cfH
	DD	0d0H
	DD	0d1H
	DD	0d2H
	DD	0d3H
	DD	0d4H
	DD	0d5H
	DD	0d6H
	DD	0d7H
	DD	0d8H
	DD	0d9H
	DD	0daH
	DD	0dbH
	DD	0dcH
	DD	0ddH
	DD	0deH
	DD	0dfH
	DD	0e0H
	DD	0e1H
	DD	0e2H
	DD	0e3H
	DD	0e4H
	DD	0e5H
	DD	0e6H
	DD	0e7H
	DD	0e8H
	DD	0e9H
	DD	0eaH
	DD	0ebH
	DD	0ecH
	DD	0edH
	DD	0eeH
	DD	0efH
	DD	0f0H
	DD	0f1H
	DD	0f2H
	DD	0f3H
	DD	0f4H
	DD	0f5H
	DD	0f6H
	DD	0f7H
	DD	0f8H
	DD	0f9H
	DD	0faH
	DD	0fbH
	DD	0fcH
	DD	0fdH
	DD	0feH
	DD	0ffH
	DD	0100H
	DD	0101H
	DD	0102H
	DD	0103H
	DD	0104H
	DD	0105H
	DD	0106H
	DD	0107H
	DD	0108H
	DD	0109H
	DD	010aH
	DD	010bH
	DD	010cH
	DD	010dH
	DD	010eH
	DD	010fH
	DD	0110H
	DD	0111H
	DD	0112H
	DD	0113H
	DD	0114H
	DD	0115H
	DD	0116H
	DD	0117H
	DD	0118H
	DD	0119H
	DD	011aH
	DD	011bH
	DD	011cH
	DD	011dH
	DD	011eH
	DD	011fH
	DD	0120H
	DD	0121H
	DD	0122H
	DD	0123H
	DD	0124H
	DD	0125H
	DD	0126H
	DD	0127H
	DD	0128H
	DD	0129H
	DD	012aH
	DD	012bH
	DD	012cH
	DD	012dH
	DD	012eH
	DD	012fH
	DD	0130H
	DD	0131H
	DD	0132H
	DD	0133H
	DD	0134H
	DD	0135H
	DD	0136H
	DD	0137H
	DD	0138H
	DD	0139H
	DD	013aH
	DD	013bH
	DD	013cH
	DD	013dH
	DD	013eH
	DD	013fH
	DD	0140H
	DD	0141H
	DD	0142H
	DD	0143H
	DD	0144H
	DD	0145H
	DD	0146H
	DD	0147H
	DD	0148H
	DD	0149H
	DD	014aH
	DD	014bH
	DD	014cH
	DD	014dH
	DD	014eH
	DD	014fH
	DD	0150H
	DD	0151H
	DD	0152H
	DD	0153H
	DD	0154H
	DD	0155H
	DD	0156H
	DD	0157H
	DD	0158H
	DD	0159H
	DD	015aH
	DD	015bH
	DD	015cH
	DD	015dH
	DD	015eH
	DD	015fH
	DD	0160H
	DD	0161H
	DD	0162H
	DD	0163H
	DD	0164H
	DD	0165H
	DD	0166H
	DD	0167H
	DD	0168H
	DD	0169H
	DD	016aH
	DD	016bH
	DD	016cH
	DD	016dH
	DD	016eH
	DD	016fH
	DD	0170H
	DD	0171H
	DD	0172H
	DD	0173H
	DD	0174H
	DD	0175H
	DD	0176H
	DD	0177H
	DD	0178H
	DD	0179H
	DD	017aH
	DD	017bH
	DD	017cH
	DD	017dH
	DD	017eH
	DD	017fH
	DD	0180H
	DD	0181H
	DD	0182H
	DD	0183H
	DD	0184H
	DD	0185H
	DD	0186H
	DD	0187H
	DD	0188H
	DD	0189H
	DD	018aH
	DD	018bH
	DD	018cH
	DD	018dH
	DD	018eH
	DD	018fH
	DD	0190H
	DD	0191H
	DD	0192H
	DD	0193H
	DD	0194H
	DD	0195H
	DD	0196H
	DD	0197H
	DD	0198H
	DD	0199H
	DD	019aH
	DD	019bH
	DD	019cH
	DD	019dH
	DD	019eH
	DD	019fH
	DD	01a0H
	DD	01a1H
	DD	01a2H
	DD	01a3H
	DD	01a4H
	DD	01a5H
	DD	01a6H
	DD	01a7H
	DD	01a8H
	DD	01a9H
	DD	01aaH
	DD	01abH
	DD	01acH
	DD	01adH
	DD	01aeH
	DD	01afH
	DD	01b0H
	DD	01b1H
	DD	01b2H
	DD	01b3H
	DD	01b4H
	DD	01b5H
	DD	01b6H
	DD	01b7H
	DD	01b8H
	DD	01b9H
	DD	01baH
	DD	01bbH
	DD	01bcH
	DD	01bdH
	DD	01beH
	DD	01bfH
	DD	01c0H
	DD	01c1H
	DD	01c2H
	DD	01c3H
	DD	01c4H
	DD	01c5H
	DD	01c6H
	DD	01c7H
	DD	01c8H
	DD	01c9H
	DD	01caH
	DD	01cbH
	DD	01ccH
	DD	01cdH
	DD	01ceH
	DD	01cfH
	DD	01d0H
	DD	01d1H
	DD	01d2H
	DD	01d3H
	DD	01d4H
	DD	01d5H
	DD	01d6H
	DD	01d7H
	DD	01d8H
	DD	01d9H
	DD	01daH
	DD	01dbH
	DD	01dcH
	DD	01ddH
	DD	01deH
	DD	01dfH
	DD	01e0H
	DD	01e1H
	DD	01e2H
	DD	01e3H
	DD	01e4H
	DD	01e5H
	DD	01e6H
	DD	01e7H
	DD	01e8H
	DD	01e9H
	DD	01eaH
	DD	01ebH
	DD	01ecH
	DD	01edH
	DD	01eeH
	DD	01efH
	DD	01f0H
	DD	01f1H
	DD	01f2H
	DD	01f3H
	DD	01f4H
	DD	01f5H
	DD	01f6H
	DD	01f7H
	DD	01f8H
	DD	01f9H
	DD	01faH
	DD	01fbH
	DD	01fcH
	DD	01fdH
	DD	01feH
	DD	01ffH
	DD	0200H
	DD	0201H
	DD	0202H
	DD	0203H
	DD	0204H
	DD	0205H
	DD	0206H
	DD	0207H
	DD	0208H
	DD	0209H
	DD	020aH
	DD	020bH
	DD	020cH
	DD	020dH
	DD	020eH
	DD	020fH
	DD	0210H
	DD	0211H
	DD	0212H
	DD	0213H
	DD	0214H
	DD	0215H
	DD	0216H
	DD	0217H
	DD	0218H
	DD	0219H
	DD	021aH
	DD	021bH
	DD	021cH
	DD	021dH
	DD	021eH
	DD	021fH
	DD	0220H
	DD	0221H
	DD	0222H
	DD	0223H
	DD	0224H
	DD	0225H
	DD	0226H
	DD	0227H
	DD	0228H
	DD	0229H
	DD	022aH
	DD	022bH
	DD	022cH
	DD	022dH
	DD	022eH
	DD	022fH
	DD	0230H
	DD	0231H
	DD	0232H
	DD	0233H
	DD	0234H
	DD	0235H
	DD	0236H
	DD	0237H
	DD	0238H
	DD	0239H
	DD	023aH
	DD	023bH
	DD	023cH
	DD	023dH
	DD	023eH
	DD	023fH
	DD	0240H
	DD	0241H
	DD	0242H
	DD	0243H
	DD	0244H
	DD	0245H
	DD	0246H
	DD	0247H
	DD	0248H
	DD	0249H
	DD	024aH
	DD	024bH
	DD	024cH
	DD	024dH
	DD	024eH
	DD	024fH
	DD	0250H
	DD	0251H
	DD	0252H
	DD	0253H
	DD	0254H
	DD	0255H
	DD	0256H
	DD	0257H
	DD	0258H
	DD	0259H
	DD	025aH
	DD	025bH
	DD	025cH
	DD	025dH
	DD	025eH
	DD	025fH
	DD	0260H
	DD	0261H
	DD	0262H
	DD	0263H
	DD	0264H
	DD	0265H
	DD	0266H
	DD	0267H
	DD	0268H
	DD	0269H
	DD	026aH
	DD	026bH
	DD	026cH
	DD	026dH
	DD	026eH
	DD	026fH
	DD	0270H
	DD	0271H
	DD	0272H
	DD	0273H
	DD	0274H
	DD	0275H
	DD	0276H
	DD	0277H
	DD	0278H
	DD	0279H
	DD	027aH
	DD	027bH
	DD	027cH
	DD	027dH
	DD	027eH
	DD	027fH
	DD	0280H
	DD	0281H
	DD	0282H
	DD	0283H
	DD	0284H
	DD	0285H
	DD	0286H
	DD	0287H
	DD	0288H
	DD	0289H
	DD	028aH
	DD	028bH
	DD	028cH
	DD	028dH
	DD	028eH
	DD	028fH
	DD	0290H
	DD	0291H
	DD	0292H
	DD	0293H
	DD	0294H
	DD	0295H
	DD	0296H
	DD	0297H
	DD	0298H
	DD	0299H
	DD	029aH
	DD	029bH
	DD	029cH
	DD	029dH
	DD	029eH
	DD	029fH
	DD	02a0H
	DD	02a1H
	DD	02a2H
	DD	02a3H
	DD	02a4H
	DD	02a5H
	DD	02a6H
	DD	02a7H
	DD	02a8H
	DD	02a9H
	DD	02aaH
	DD	02abH
	DD	02acH
	DD	02adH
	DD	02aeH
	DD	02afH
	DD	02b0H
	DD	02b1H
	DD	02b2H
	DD	02b3H
	DD	02b4H
	DD	02b5H
	DD	02b6H
	DD	02b7H
	DD	02b8H
	DD	02b9H
	DD	02baH
	DD	02bbH
	DD	02bcH
	DD	02bdH
	DD	02beH
	DD	02bfH
	DD	02c0H
	DD	02c1H
	DD	02c2H
	DD	02c3H
	DD	02c4H
	DD	02c5H
	DD	02c6H
	DD	02c7H
	DD	02c8H
	DD	02c9H
	DD	02caH
	DD	02cbH
	DD	02ccH
	DD	02cdH
	DD	02ceH
	DD	02cfH
	DD	02d0H
	DD	02d1H
	DD	02d2H
	DD	02d3H
	DD	02d4H
	DD	02d5H
	DD	02d6H
	DD	02d7H
	DD	02d8H
	DD	02d9H
	DD	02daH
	DD	02dbH
	DD	02dcH
	DD	02ddH
	DD	02deH
	DD	02dfH
	DD	02e0H
	DD	02e1H
	DD	02e2H
	DD	02e3H
	DD	02e4H
	DD	02e5H
	DD	02e6H
	DD	02e7H
	DD	02e8H
	DD	02e9H
	DD	02eaH
	DD	02ebH
	DD	02ecH
	DD	02edH
	DD	02eeH
	DD	02efH
	DD	02f0H
	DD	02f1H
	DD	02f2H
	DD	02f3H
	DD	02f4H
	DD	02f5H
	DD	02f6H
	DD	02f7H
	DD	02f8H
	DD	02f9H
	DD	02faH
	DD	02fbH
	DD	02fcH
	DD	02fdH
	DD	02feH
	DD	02ffH
	DD	0300H
	DD	0301H
	DD	0302H
	DD	0303H
	DD	0304H
	DD	0305H
	DD	0306H
	DD	0307H
	DD	0308H
	DD	0309H
	DD	030aH
	DD	030bH
	DD	030cH
	DD	030dH
	DD	030eH
	DD	030fH
	DD	0310H
	DD	0311H
	DD	0312H
	DD	0313H
	DD	0314H
	DD	0315H
	DD	0316H
	DD	0317H
	DD	0318H
	DD	0319H
	DD	031aH
	DD	031bH
	DD	031cH
	DD	031dH
	DD	031eH
	DD	031fH
	DD	0320H
	DD	0321H
	DD	0322H
	DD	0323H
	DD	0324H
	DD	0325H
	DD	0326H
	DD	0327H
	DD	0328H
	DD	0329H
	DD	032aH
	DD	032bH
	DD	032cH
	DD	032dH
	DD	032eH
	DD	032fH
	DD	0330H
	DD	0331H
	DD	0332H
	DD	0333H
	DD	0334H
	DD	0335H
	DD	0336H
	DD	0337H
	DD	0338H
	DD	0339H
	DD	033aH
	DD	033bH
	DD	033cH
	DD	033dH
	DD	033eH
	DD	033fH
	DD	0340H
	DD	0341H
	DD	0342H
	DD	0343H
	DD	0344H
	DD	0345H
	DD	0346H
	DD	0347H
	DD	0348H
	DD	0349H
	DD	034aH
	DD	034bH
	DD	034cH
	DD	034dH
	DD	034eH
	DD	034fH
	DD	0350H
	DD	0351H
	DD	0352H
	DD	0353H
	DD	0354H
	DD	0355H
	DD	0356H
	DD	0357H
	DD	0358H
	DD	0359H
	DD	035aH
	DD	035bH
	DD	035cH
	DD	035dH
	DD	035eH
	DD	035fH
	DD	0360H
	DD	0361H
	DD	0362H
	DD	0363H
	DD	0364H
	DD	0365H
	DD	0366H
	DD	0367H
	DD	0368H
	DD	0369H
	DD	036aH
	DD	036bH
	DD	036cH
	DD	036dH
	DD	036eH
	DD	036fH
	DD	0370H
	DD	0371H
	DD	0372H
	DD	0373H
	DD	0374H
	DD	0375H
	DD	0376H
	DD	0377H
	DD	0378H
	DD	0379H
	DD	037aH
	DD	037bH
	DD	037cH
	DD	037dH
	DD	037eH
	DD	037fH
	DD	0380H
	DD	0381H
	DD	0382H
	DD	0383H
	DD	0384H
	DD	0385H
	DD	0386H
	DD	0387H
	DD	0388H
	DD	0389H
	DD	038aH
	DD	038bH
	DD	038cH
	DD	038dH
	DD	038eH
	DD	038fH
	DD	0390H
	DD	0391H
	DD	0392H
	DD	0393H
	DD	0394H
	DD	0395H
	DD	0396H
	DD	0397H
	DD	0398H
	DD	0399H
	DD	039aH
	DD	039bH
	DD	039cH
	DD	039dH
	DD	039eH
	DD	039fH
	DD	03a0H
	DD	03a1H
	DD	03a2H
	DD	03a3H
	DD	03a4H
	DD	03a5H
	DD	03a6H
	DD	03a7H
	DD	03a8H
	DD	03a9H
	DD	03aaH
	DD	03abH
	DD	03acH
	DD	03adH
	DD	03aeH
	DD	03afH
	DD	03b0H
	DD	03b1H
	DD	03b2H
	DD	03b3H
	DD	03b4H
	DD	03b5H
	DD	03b6H
	DD	03b7H
	DD	03b8H
	DD	03b9H
	DD	03baH
	DD	03bbH
	DD	03bcH
	DD	03bdH
	DD	03beH
	DD	03bfH
?BACKGROUND_COL@@3PAMA DD 03f000000r		; 0.5	; BACKGROUND_COL
	DD	03dcccccdr			; 0.1
	DD	03dcccccdr			; 0.1
	DD	03f800000r			; 1
_DATA	ENDS
PUBLIC	?allocate_object@@YAPAXI@Z			; allocate_object
PUBLIC	??0RenderDepth2D@lib3d@@QAE@HH@Z		; lib3d::RenderDepth2D::RenderDepth2D
PUBLIC	??0Backbuffer@lib3d@@QAE@XZ			; lib3d::Backbuffer::Backbuffer
PUBLIC	??0ConstantBuffer@lib3d@@QAE@H@Z		; lib3d::ConstantBuffer::ConstantBuffer
PUBLIC	?attach@ConstantBuffer@lib3d@@QAEXH@Z		; lib3d::ConstantBuffer::attach
PUBLIC	??0Rasterizer@lib3d@@QAE@XZ			; lib3d::Rasterizer::Rasterizer
PUBLIC	??0Rasterizer@lib3d@@QAE@W4D3D11_FILL_MODE@@W4D3D11_CULL_MODE@@@Z ; lib3d::Rasterizer::Rasterizer
PUBLIC	??0AlphaBlending@lib3d@@QAE@XZ			; lib3d::AlphaBlending::AlphaBlending
PUBLIC	??0DepthStencil@lib3d@@QAE@_NW4D3D11_DEPTH_WRITE_MASK@@W4D3D11_COMPARISON_FUNC@@@Z ; lib3d::DepthStencil::DepthStencil
PUBLIC	??0Mesh@lib3d@@QAE@QAMQAHHH@Z			; lib3d::Mesh::Mesh
PUBLIC	?setup_device@lib3d@@YAXPAUHINSTANCE__@@@Z	; lib3d::setup_device
PUBLIC	?clean_srv@lib3d@@YAXH@Z			; lib3d::clean_srv
PUBLIC	?clean_uav@lib3d@@YAXH@Z			; lib3d::clean_uav
PUBLIC	?clean_constantbuffers@lib3d@@YAXH@Z		; lib3d::clean_constantbuffers
PUBLIC	?clear_blending@lib3d@@YAXXZ			; lib3d::clear_blending
PUBLIC	?clear_depthstencil@lib3d@@YAXXZ		; lib3d::clear_depthstencil
PUBLIC	?emit_vertex@lib3d@@YAXHH@Z			; lib3d::emit_vertex
PUBLIC	?set_renders_and_uavs@lib3d@@YAXPAURenderTarget2D@1@PAURenderDepth2D@1@QAPAUID3D11UnorderedAccessView@@HH@Z ; lib3d::set_renders_and_uavs
PUBLIC	??0float4x4@@QAE@MMMMMMMMMMMMMMMM@Z		; float4x4::float4x4
PUBLIC	?row@float4x4@@QAE?AUfloat4@@H@Z		; float4x4::row
PUBLIC	??H@YA?AUfloat2@@AAU0@0@Z			; operator+
PUBLIC	??G@YA?AUfloat2@@AAU0@0@Z			; operator-
PUBLIC	??D@YA?AUfloat2@@AAU0@M@Z			; operator*
PUBLIC	??D@YA?AUfloat2@@MAAU0@@Z			; operator*
PUBLIC	??K@YA?AUfloat2@@AAU0@M@Z			; operator/
PUBLIC	??K@YA?AUfloat2@@MAAU0@@Z			; operator/
PUBLIC	??H@YA?AUfloat3@@AAU0@0@Z			; operator+
PUBLIC	??G@YA?AUfloat3@@AAU0@0@Z			; operator-
PUBLIC	??D@YA?AUfloat3@@AAU0@M@Z			; operator*
PUBLIC	??D@YA?AUfloat3@@MAAU0@@Z			; operator*
PUBLIC	??K@YA?AUfloat3@@AAU0@M@Z			; operator/
PUBLIC	??K@YA?AUfloat3@@MAAU0@@Z			; operator/
PUBLIC	??H@YA?AUfloat4@@AAU0@0@Z			; operator+
PUBLIC	??G@YA?AUfloat4@@AAU0@0@Z			; operator-
PUBLIC	??D@YA?AUfloat4@@AAU0@M@Z			; operator*
PUBLIC	??D@YA?AUfloat4@@MAAU0@@Z			; operator*
PUBLIC	??K@YA?AUfloat4@@AAU0@M@Z			; operator/
PUBLIC	??K@YA?AUfloat4@@MAAU0@@Z			; operator/
PUBLIC	?dot@@YAMAAUfloat2@@0@Z				; dot
PUBLIC	?dot@@YAMAAUfloat3@@0@Z				; dot
PUBLIC	?dot@@YAMAAUfloat4@@0@Z				; dot
PUBLIC	?cross@@YA?AUfloat3@@AAU1@0@Z			; cross
PUBLIC	?length@@YAMAAUfloat2@@@Z			; length
PUBLIC	?length@@YAMAAUfloat3@@@Z			; length
PUBLIC	?length@@YAMAAUfloat4@@@Z			; length
PUBLIC	?normalize@@YA?AUfloat2@@AAU1@@Z		; normalize
PUBLIC	?normalize@@YA?AUfloat3@@AAU1@@Z		; normalize
PUBLIC	?normalize@@YA?AUfloat4@@AAU1@@Z		; normalize
PUBLIC	?mul@@YA?AUfloat2@@AAUfloat2x2@@AAU1@@Z		; mul
PUBLIC	?mul@@YA?AUfloat3@@AAUfloat3x3@@AAU1@@Z		; mul
PUBLIC	?mul@@YA?AUfloat4@@AAUfloat4x4@@AAU1@@Z		; mul
PUBLIC	?mul@@YA?AUfloat2x2@@AAU1@0@Z			; mul
PUBLIC	?mul@@YA?AUfloat3x3@@AAU1@0@Z			; mul
PUBLIC	?mul@@YA?AUfloat4x4@@AAU1@0@Z			; mul
PUBLIC	?compute_view_matrix@@YA?AUfloat4x4@@Ufloat3@@0@Z ; compute_view_matrix
PUBLIC	?compute_orthographic_matrix@@YA?AUfloat4x4@@MMMM@Z ; compute_orthographic_matrix
PUBLIC	?compute_perspective_matrix@@YA?AUfloat4x4@@MMMM@Z ; compute_perspective_matrix
PUBLIC	?compute_translation_matrix@@YA?AUfloat4x4@@MMM@Z ; compute_translation_matrix
PUBLIC	?compute_rotation_matrix@@YA?AUfloat4x4@@MUfloat3@@@Z ; compute_rotation_matrix
PUBLIC	?compute_scale_matrix@@YA?AUfloat4x4@@MMM@Z	; compute_scale_matrix
PUBLIC	?extract_rotation_info@@YA?AUfloat4@@Ufloat4x4@@@Z ; extract_rotation_info
PUBLIC	?smoothstep@@YAMMMM@Z				; smoothstep
PUBLIC	??0GlobalConstantsBuffer@@QAE@XZ		; GlobalConstantsBuffer::GlobalConstantsBuffer
PUBLIC	?update_globalconstants@@YAXXZ			; update_globalconstants
PUBLIC	?WinMainCRTStartup@@YAXXZ			; WinMainCRTStartup
PUBLIC	__GUID_6f15aaf2_d208_4e89_9ab4_489535d34f9c
PUBLIC	??_C@_06KFINLFAI@vs_5_0@			; `string'
PUBLIC	??_C@_07PBPNHGKE@app?4ico@			; `string'
PUBLIC	??_C@_0N@HJANABLK@custom_class@			; `string'
PUBLIC	??_C@_0N@BHJNMBPJ@lazy?$FLE?$FNngine@		; `string'
PUBLIC	??_C@_04GHJNJNPO@main@				; `string'
PUBLIC	??_C@_1DM@GDLAFHJP@?$AA?4?$AA?1?$AAs?$AAh?$AAa?$AAd?$AAe?$AAr?$AAs?$AA?1?$AAi?$AAn?$AAp?$AAu?$AAt@ ; `string'
PUBLIC	??_C@_08JPMAAECC@POSITION@			; `string'
PUBLIC	??_C@_08CMDKBPJM@TEXCOORD@			; `string'
PUBLIC	??_C@_06IOJAGNKJ@NORMAL@			; `string'
PUBLIC	__real@00000000
PUBLIC	__real@3c83126f
PUBLIC	__real@3dcccccd
PUBLIC	__real@3f000000
PUBLIC	__real@3f800000
PUBLIC	__real@40000000
PUBLIC	__real@4014000000000000
PUBLIC	__real@40400000
PUBLIC	__real@40a00000
PUBLIC	__real@41200000
PUBLIC	__real@bf800000
EXTRN	__imp__ExitProcess@4:PROC
EXTRN	__imp__CreateSolidBrush@4:PROC
EXTRN	__imp__TranslateMessage@4:PROC
EXTRN	__imp__DispatchMessageA@4:PROC
EXTRN	__imp__PeekMessageA@20:PROC
EXTRN	__imp__DefWindowProcA@16:PROC
EXTRN	__imp__RegisterClassA@4:PROC
EXTRN	__imp__CreateWindowExA@48:PROC
EXTRN	__imp__SetWindowPos@28:PROC
EXTRN	__imp__GetAsyncKeyState@4:PROC
EXTRN	__imp__GetForegroundWindow@0:PROC
EXTRN	__imp__ShowCursor@4:PROC
EXTRN	__imp__GetWindowLongA@8:PROC
EXTRN	__imp__SetWindowLongA@12:PROC
EXTRN	__imp__LoadImageA@24:PROC
EXTRN	_D3D11CreateDeviceAndSwapChain@48:PROC
EXTRN	_D3DCompileFromFile@36:PROC
EXTRN	_memset:PROC
EXTRN	__fltused:DWORD
_BSS	SEGMENT
?static_memory@@3PADA DB 06400000H DUP (?)		; static_memory
?static_memory_pointer@@3IA DD 01H DUP (?)		; static_memory_pointer
?WIDTH@lib3d@@3HA DD 01H DUP (?)			; lib3d::WIDTH
?HEIGHT@lib3d@@3HA DD 01H DUP (?)			; lib3d::HEIGHT
_BSS	ENDS
;	COMDAT __real@bf800000
CONST	SEGMENT
__real@bf800000 DD 0bf800000r			; -1
CONST	ENDS
;	COMDAT __real@41200000
CONST	SEGMENT
__real@41200000 DD 041200000r			; 10
CONST	ENDS
;	COMDAT __real@40a00000
CONST	SEGMENT
__real@40a00000 DD 040a00000r			; 5
CONST	ENDS
;	COMDAT __real@40400000
CONST	SEGMENT
__real@40400000 DD 040400000r			; 3
CONST	ENDS
;	COMDAT __real@4014000000000000
CONST	SEGMENT
__real@4014000000000000 DQ 04014000000000000r	; 5
CONST	ENDS
;	COMDAT __real@40000000
CONST	SEGMENT
__real@40000000 DD 040000000r			; 2
CONST	ENDS
;	COMDAT __real@3f800000
CONST	SEGMENT
__real@3f800000 DD 03f800000r			; 1
CONST	ENDS
;	COMDAT __real@3f000000
CONST	SEGMENT
__real@3f000000 DD 03f000000r			; 0.5
CONST	ENDS
;	COMDAT __real@3dcccccd
CONST	SEGMENT
__real@3dcccccd DD 03dcccccdr			; 0.1
CONST	ENDS
;	COMDAT __real@3c83126f
CONST	SEGMENT
__real@3c83126f DD 03c83126fr			; 0.016
CONST	ENDS
;	COMDAT __real@00000000
CONST	SEGMENT
__real@00000000 DD 000000000r			; 0
CONST	ENDS
;	COMDAT ??_C@_06IOJAGNKJ@NORMAL@
CONST	SEGMENT
??_C@_06IOJAGNKJ@NORMAL@ DB 'NORMAL', 00H		; `string'
CONST	ENDS
;	COMDAT ??_C@_08CMDKBPJM@TEXCOORD@
CONST	SEGMENT
??_C@_08CMDKBPJM@TEXCOORD@ DB 'TEXCOORD', 00H		; `string'
CONST	ENDS
;	COMDAT ??_C@_08JPMAAECC@POSITION@
CONST	SEGMENT
??_C@_08JPMAAECC@POSITION@ DB 'POSITION', 00H		; `string'
CONST	ENDS
;	COMDAT ??_C@_1DM@GDLAFHJP@?$AA?4?$AA?1?$AAs?$AAh?$AAa?$AAd?$AAe?$AAr?$AAs?$AA?1?$AAi?$AAn?$AAp?$AAu?$AAt@
CONST	SEGMENT
??_C@_1DM@GDLAFHJP@?$AA?4?$AA?1?$AAs?$AAh?$AAa?$AAd?$AAe?$AAr?$AAs?$AA?1?$AAi?$AAn?$AAp?$AAu?$AAt@ DB '.'
	DB	00H, '/', 00H, 's', 00H, 'h', 00H, 'a', 00H, 'd', 00H, 'e', 00H
	DB	'r', 00H, 's', 00H, '/', 00H, 'i', 00H, 'n', 00H, 'p', 00H, 'u'
	DB	00H, 't', 00H, 's', 00H, 'i', 00H, 'g', 00H, 'n', 00H, 'a', 00H
	DB	't', 00H, 'u', 00H, 'r', 00H, 'e', 00H, '.', 00H, 'h', 00H, 'l'
	DB	00H, 's', 00H, 'l', 00H, 00H, 00H		; `string'
CONST	ENDS
;	COMDAT ??_C@_04GHJNJNPO@main@
CONST	SEGMENT
??_C@_04GHJNJNPO@main@ DB 'main', 00H			; `string'
CONST	ENDS
;	COMDAT ??_C@_0N@BHJNMBPJ@lazy?$FLE?$FNngine@
CONST	SEGMENT
??_C@_0N@BHJNMBPJ@lazy?$FLE?$FNngine@ DB 'lazy[E]ngine', 00H ; `string'
CONST	ENDS
;	COMDAT ??_C@_0N@HJANABLK@custom_class@
CONST	SEGMENT
??_C@_0N@HJANABLK@custom_class@ DB 'custom_class', 00H	; `string'
CONST	ENDS
;	COMDAT ??_C@_07PBPNHGKE@app?4ico@
CONST	SEGMENT
??_C@_07PBPNHGKE@app?4ico@ DB 'app.ico', 00H		; `string'
CONST	ENDS
;	COMDAT ??_C@_06KFINLFAI@vs_5_0@
CONST	SEGMENT
??_C@_06KFINLFAI@vs_5_0@ DB 'vs_5_0', 00H		; `string'
CONST	ENDS
;	COMDAT __GUID_6f15aaf2_d208_4e89_9ab4_489535d34f9c
CONST	SEGMENT
__GUID_6f15aaf2_d208_4e89_9ab4_489535d34f9c DD 06f15aaf2H
	DW	0d208H
	DW	04e89H
	DB	09aH
	DB	0b4H
	DB	048H
	DB	095H
	DB	035H
	DB	0d3H
	DB	04fH
	DB	09cH
CONST	ENDS
; Function compile flags: /Ogspy
; File C:\Users\jose-remedy\Documents\GitHub\lazyengine\main.cpp
; File C:\Users\jose-remedy\Documents\GitHub\lazyengine\lib3d.h
; File C:\Users\jose-remedy\Documents\GitHub\lazyengine\main.cpp
_TEXT	SEGMENT
__gcb$ = -360						; size = 264
$T1 = -96						; size = 64
$T2 = -96						; size = 64
__real@3f800000$1$ = -32				; size = 4
_msg$3 = -28						; size = 28
$T4 = -20						; size = 20
$T5 = -20						; size = 20
$T6 = -20						; size = 20
$T7 = -20						; size = 20
$T8 = -12						; size = 12
$T9 = -8						; size = 8
$T10 = -4						; size = 4
$T11 = -4						; size = 4
$T12 = -4						; size = 4
$T13 = -4						; size = 4
$T14 = -4						; size = 4
$T15 = -4						; size = 4
?WinMainCRTStartup@@YAXXZ PROC				; WinMainCRTStartup

; 27   : {

	push	ebp
	mov	ebp, esp
	sub	esp, 360				; 00000168H
	push	ebx
	push	esi
	push	edi

; 28   : #ifdef _DEBUG
; 29   : 	lib3d::setup_device(handle_instance);
; 30   : #else
; 31   : 	lib3d::setup_device(nullptr);

	push	0
	call	?setup_device@lib3d@@YAXPAUHINSTANCE__@@@Z ; lib3d::setup_device

; 32   : #endif// DEBUG
; 33   : 
; 34   : 	
; 35   : #ifdef _DEBUG
; 36   : 	libmidi::setup_device();
; 37   : 	liblua::initialize_lua();
; 38   : #endif // _DEBUG
; 39   : 
; 40   : 	//Create a viewport
; 41   : 	viewport = (lib3d::Viewport*)allocate_object(sizeof(lib3d::Viewport));

	push	24					; 00000018H
	call	?allocate_object@@YAPAXI@Z		; allocate_object

; 42   : 	*viewport = lib3d::Viewport(lib3d::WIDTH, lib3d::HEIGHT);

	fild	DWORD PTR ?WIDTH@lib3d@@3HA
	mov	DWORD PTR ?viewport@@3PAUViewport@lib3d@@A, eax ; viewport

; 43   : 
; 44   : 	//Create several rasterizers (one of them for wireframe)
; 45   : 	rasterizer = (lib3d::Rasterizer*)allocate_object(sizeof(lib3d::Rasterizer));

	push	4
	pop	esi
	fild	DWORD PTR ?HEIGHT@lib3d@@3HA
	push	esi
	fldz
	fst	DWORD PTR [eax]
	mov	eax, DWORD PTR ?viewport@@3PAUViewport@lib3d@@A ; viewport
	fst	DWORD PTR [eax+4]
	mov	eax, DWORD PTR ?viewport@@3PAUViewport@lib3d@@A ; viewport
	fxch	ST(2)
	fstp	DWORD PTR [eax+8]
	mov	eax, DWORD PTR ?viewport@@3PAUViewport@lib3d@@A ; viewport
	fstp	DWORD PTR [eax+12]
	mov	eax, DWORD PTR ?viewport@@3PAUViewport@lib3d@@A ; viewport
	fstp	DWORD PTR [eax+16]
	mov	eax, DWORD PTR ?viewport@@3PAUViewport@lib3d@@A ; viewport
	fld1
	fst	DWORD PTR __real@3f800000$1$[ebp]
	fstp	DWORD PTR [eax+20]
	call	?allocate_object@@YAPAXI@Z		; allocate_object
	add	esp, 12					; 0000000cH
	mov	DWORD PTR ?rasterizer@@3PAURasterizer@lib3d@@A, eax ; rasterizer

; 46   : 	*rasterizer = lib3d::Rasterizer();

	lea	ecx, DWORD PTR $T15[ebp]
	call	??0Rasterizer@lib3d@@QAE@XZ		; lib3d::Rasterizer::Rasterizer

; 47   : 
; 48   : 	rasterizer_nocull = (lib3d::Rasterizer*)allocate_object(sizeof(lib3d::Rasterizer));

	push	esi
	mov	ecx, DWORD PTR [eax]
	mov	eax, DWORD PTR ?rasterizer@@3PAURasterizer@lib3d@@A ; rasterizer
	mov	DWORD PTR [eax], ecx
	call	?allocate_object@@YAPAXI@Z		; allocate_object
	pop	ecx

; 49   : 	*rasterizer_nocull = lib3d::Rasterizer(D3D11_FILL_SOLID, D3D11_CULL_NONE);

	xor	ebx, ebx
	mov	DWORD PTR ?rasterizer_nocull@@3PAURasterizer@lib3d@@A, eax ; rasterizer_nocull
	inc	ebx
	lea	ecx, DWORD PTR $T14[ebp]
	push	ebx
	push	3
	call	??0Rasterizer@lib3d@@QAE@W4D3D11_FILL_MODE@@W4D3D11_CULL_MODE@@@Z ; lib3d::Rasterizer::Rasterizer

; 50   : 	rasterizer_wireframe = (lib3d::Rasterizer*)allocate_object(sizeof(lib3d::Rasterizer));

	push	esi
	mov	ecx, DWORD PTR [eax]
	mov	eax, DWORD PTR ?rasterizer_nocull@@3PAURasterizer@lib3d@@A ; rasterizer_nocull
	mov	DWORD PTR [eax], ecx
	call	?allocate_object@@YAPAXI@Z		; allocate_object
	pop	ecx

; 51   : 	*rasterizer_wireframe = lib3d::Rasterizer(D3D11_FILL_WIREFRAME, D3D11_CULL_NONE);

	push	ebx
	push	2
	lea	ecx, DWORD PTR $T13[ebp]
	mov	DWORD PTR ?rasterizer_wireframe@@3PAURasterizer@lib3d@@A, eax ; rasterizer_wireframe
	call	??0Rasterizer@lib3d@@QAE@W4D3D11_FILL_MODE@@W4D3D11_CULL_MODE@@@Z ; lib3d::Rasterizer::Rasterizer

; 52   : 
; 53   : 	//Create a alpha blending mode 
; 54   : 	alpha_blending = (lib3d::AlphaBlending*)allocate_object(sizeof(lib3d::AlphaBlending));

	push	esi
	mov	ecx, DWORD PTR [eax]
	mov	eax, DWORD PTR ?rasterizer_wireframe@@3PAURasterizer@lib3d@@A ; rasterizer_wireframe
	mov	DWORD PTR [eax], ecx
	call	?allocate_object@@YAPAXI@Z		; allocate_object
	pop	ecx

; 55   : 	*alpha_blending = lib3d::AlphaBlending();

	lea	ecx, DWORD PTR $T12[ebp]
	mov	DWORD PTR ?alpha_blending@@3PAUAlphaBlending@lib3d@@A, eax ; alpha_blending
	call	??0AlphaBlending@lib3d@@QAE@XZ		; lib3d::AlphaBlending::AlphaBlending

; 56   : 
; 57   : 	//Several depth stencil setups (write or not write to depth buffer)
; 58   : 	nowrite_depthstencil = (lib3d::DepthStencil*)allocate_object(sizeof(lib3d::DepthStencil));

	push	esi
	mov	ecx, DWORD PTR [eax]
	mov	eax, DWORD PTR ?alpha_blending@@3PAUAlphaBlending@lib3d@@A ; alpha_blending
	mov	DWORD PTR [eax], ecx
	call	?allocate_object@@YAPAXI@Z		; allocate_object
	pop	ecx

; 59   : 	*nowrite_depthstencil = lib3d::DepthStencil(true, D3D11_DEPTH_WRITE_MASK_ZERO, D3D11_COMPARISON_LESS_EQUAL);

	push	esi
	push	0
	push	ebx
	lea	ecx, DWORD PTR $T11[ebp]
	mov	DWORD PTR ?nowrite_depthstencil@@3PAUDepthStencil@lib3d@@A, eax ; nowrite_depthstencil
	call	??0DepthStencil@lib3d@@QAE@_NW4D3D11_DEPTH_WRITE_MASK@@W4D3D11_COMPARISON_FUNC@@@Z ; lib3d::DepthStencil::DepthStencil
	mov	ecx, DWORD PTR [eax]
	mov	eax, DWORD PTR ?nowrite_depthstencil@@3PAUDepthStencil@lib3d@@A ; nowrite_depthstencil
	mov	DWORD PTR [eax], ecx

; 60   : 	write_depthstencil = (lib3d::DepthStencil*)allocate_object(sizeof(lib3d::DepthStencil));

	push	esi
	call	?allocate_object@@YAPAXI@Z		; allocate_object
	pop	ecx

; 61   : 	*write_depthstencil = lib3d::DepthStencil(true, D3D11_DEPTH_WRITE_MASK_ALL, D3D11_COMPARISON_LESS_EQUAL);

	push	esi
	push	ebx
	push	ebx
	lea	ecx, DWORD PTR $T10[ebp]
	mov	DWORD PTR ?write_depthstencil@@3PAUDepthStencil@lib3d@@A, eax ; write_depthstencil
	call	??0DepthStencil@lib3d@@QAE@_NW4D3D11_DEPTH_WRITE_MASK@@W4D3D11_COMPARISON_FUNC@@@Z ; lib3d::DepthStencil::DepthStencil

; 62   : 
; 63   : 	//Here we take the reference for the backbuffer (to draw the things) and create a depth map
; 64   : 	rendertarget_main = (lib3d::Backbuffer*)allocate_object(sizeof(lib3d::Backbuffer));

	push	8
	mov	ecx, DWORD PTR [eax]
	mov	eax, DWORD PTR ?write_depthstencil@@3PAUDepthStencil@lib3d@@A ; write_depthstencil
	mov	DWORD PTR [eax], ecx
	call	?allocate_object@@YAPAXI@Z		; allocate_object
	pop	ecx

; 65   : 	*rendertarget_main = lib3d::Backbuffer();

	lea	ecx, DWORD PTR $T9[ebp]
	mov	DWORD PTR ?rendertarget_main@@3PAUBackbuffer@lib3d@@A, eax ; rendertarget_main
	call	??0Backbuffer@lib3d@@QAE@XZ		; lib3d::Backbuffer::Backbuffer

; 66   : 	depth_main = (lib3d::RenderDepth2D*)allocate_object(sizeof(lib3d::RenderDepth2D));

	push	12					; 0000000cH
	mov	ecx, DWORD PTR [eax]
	mov	edx, DWORD PTR [eax+4]
	mov	eax, DWORD PTR ?rendertarget_main@@3PAUBackbuffer@lib3d@@A ; rendertarget_main
	mov	DWORD PTR [eax], ecx
	mov	DWORD PTR [eax+4], edx
	call	?allocate_object@@YAPAXI@Z		; allocate_object
	pop	ecx

; 67   : 	*depth_main = lib3d::RenderDepth2D(lib3d::WIDTH, lib3d::HEIGHT);

	push	DWORD PTR ?HEIGHT@lib3d@@3HA
	lea	ecx, DWORD PTR $T8[ebp]
	mov	DWORD PTR ?depth_main@@3PAURenderDepth2D@lib3d@@A, eax ; depth_main
	push	DWORD PTR ?WIDTH@lib3d@@3HA
	call	??0RenderDepth2D@lib3d@@QAE@HH@Z	; lib3d::RenderDepth2D::RenderDepth2D
	mov	edi, DWORD PTR ?depth_main@@3PAURenderDepth2D@lib3d@@A ; depth_main
	mov	esi, eax

; 68   : 
; 69   : 	//A simple quad mesh
; 70   : 	mesh_quad = (lib3d::Mesh*)allocate_object(sizeof(lib3d::Mesh));

	push	20					; 00000014H
	movsd
	movsd
	movsd
	call	?allocate_object@@YAPAXI@Z		; allocate_object
	pop	ecx

; 71   : 	*mesh_quad = lib3d::Mesh(lib3d::quad_vertices, lib3d::quad_indices, sizeof(lib3d::quad_vertices), sizeof(lib3d::quad_indices));

	push	24					; 00000018H
	push	128					; 00000080H
	push	OFFSET ?quad_indices@lib3d@@3PAHA	; lib3d::quad_indices
	push	OFFSET ?quad_vertices@lib3d@@3PAMA	; lib3d::quad_vertices
	lea	ecx, DWORD PTR $T7[ebp]
	mov	DWORD PTR ?mesh_quad@@3PAUMesh@lib3d@@A, eax ; mesh_quad
	call	??0Mesh@lib3d@@QAE@QAMQAHHH@Z		; lib3d::Mesh::Mesh
	mov	edi, DWORD PTR ?mesh_quad@@3PAUMesh@lib3d@@A ; mesh_quad
	mov	esi, eax
	push	5
	pop	ebx
	mov	ecx, ebx
	rep movsd

; 72   : 	mesh_cube = (lib3d::Mesh*)allocate_object(sizeof(lib3d::Mesh));

	push	20					; 00000014H
	call	?allocate_object@@YAPAXI@Z		; allocate_object
	pop	ecx

; 73   : 	*mesh_cube = lib3d::Mesh(lib3d::cube_vertices, lib3d::cube_indices, sizeof(lib3d::cube_vertices), sizeof(lib3d::cube_indices));

	push	144					; 00000090H
	push	768					; 00000300H
	push	OFFSET ?cube_indices@lib3d@@3PAHA	; lib3d::cube_indices
	push	OFFSET ?cube_vertices@lib3d@@3PAMA	; lib3d::cube_vertices
	lea	ecx, DWORD PTR $T6[ebp]
	mov	DWORD PTR ?mesh_cube@@3PAUMesh@lib3d@@A, eax ; mesh_cube
	call	??0Mesh@lib3d@@QAE@QAMQAHHH@Z		; lib3d::Mesh::Mesh
	mov	edi, DWORD PTR ?mesh_cube@@3PAUMesh@lib3d@@A ; mesh_cube
	mov	esi, eax
	mov	ecx, ebx
	rep movsd

; 74   : 	mesh_sphere = (lib3d::Mesh*)allocate_object(sizeof(lib3d::Mesh));

	push	20					; 00000014H
	call	?allocate_object@@YAPAXI@Z		; allocate_object

; 75   : 	*mesh_sphere = lib3d::Mesh(lib3d::sphere_vertices, lib3d::sphere_indices, sizeof(lib3d::sphere_vertices), sizeof(lib3d::sphere_indices));

	mov	DWORD PTR [esp], 3840			; 00000f00H
	lea	ecx, DWORD PTR $T5[ebp]
	push	30720					; 00007800H
	push	OFFSET ?sphere_indices@lib3d@@3PAHA	; lib3d::sphere_indices
	push	OFFSET ?sphere_vertices@lib3d@@3PAMA	; lib3d::sphere_vertices
	mov	DWORD PTR ?mesh_sphere@@3PAUMesh@lib3d@@A, eax ; mesh_sphere
	call	??0Mesh@lib3d@@QAE@QAMQAHHH@Z		; lib3d::Mesh::Mesh
	mov	edi, DWORD PTR ?mesh_sphere@@3PAUMesh@lib3d@@A ; mesh_sphere
	mov	esi, eax
	mov	ecx, ebx
	rep movsd

; 76   : 
; 77   : 	//Constant buffer for store view and projection matrices and other thins
; 78   : 	constantbuffer_main = (lib3d::ConstantBuffer*)allocate_object(sizeof(lib3d::ConstantBuffer));

	push	20					; 00000014H
	call	?allocate_object@@YAPAXI@Z		; allocate_object

; 79   : 	*constantbuffer_main = lib3d::ConstantBuffer(sizeof(GlobalConstantsBuffer));

	lea	ecx, DWORD PTR $T4[ebp]
	mov	DWORD PTR ?constantbuffer_main@@3PAUConstantBuffer@lib3d@@A, eax ; constantbuffer_main
	mov	DWORD PTR [esp], 264			; 00000108H
	call	??0ConstantBuffer@lib3d@@QAE@H@Z	; lib3d::ConstantBuffer::ConstantBuffer
	mov	edi, DWORD PTR ?constantbuffer_main@@3PAUConstantBuffer@lib3d@@A ; constantbuffer_main
	mov	esi, eax
	mov	ecx, ebx
	rep movsd

; 80   : 
; 81   : 
; 82   : 	GlobalConstantsBuffer _gcb; gcb = &_gcb;

	lea	ecx, DWORD PTR __gcb$[ebp]
	call	??0GlobalConstantsBuffer@@QAE@XZ

; 83   : 	gcb->projection_matrix = compute_perspective_matrix(1.0, 1.0 * lib3d::WIDTH / lib3d::HEIGHT, 0.1f, 10.0f);

	fld	DWORD PTR __real@41200000
	lea	eax, DWORD PTR __gcb$[ebp]
	sub	esp, 16					; 00000010H
	mov	DWORD PTR ?gcb@@3PAUGlobalConstantsBuffer@@A, eax ; gcb
	lea	eax, DWORD PTR $T2[ebp]
	fstp	DWORD PTR [esp+12]
	fld	DWORD PTR __real@3dcccccd
	fstp	DWORD PTR [esp+8]
	fild	DWORD PTR ?WIDTH@lib3d@@3HA
	fidiv	DWORD PTR ?HEIGHT@lib3d@@3HA
	fstp	DWORD PTR [esp+4]
	fld	DWORD PTR __real@3f800000$1$[ebp]
	fstp	DWORD PTR [esp]
	push	eax
	call	?compute_perspective_matrix@@YA?AUfloat4x4@@MMMM@Z ; compute_perspective_matrix

; 84   : 	gcb->light_projection_matrix = compute_orthographic_matrix(5.0 * lib3d::WIDTH / lib3d::HEIGHT, 5.0, 0.1f, 10.0f);

	fld	DWORD PTR __real@41200000
	mov	esi, eax
	push	16					; 00000010H
	pop	ecx
	add	esp, 4
	mov	edi, DWORD PTR ?gcb@@3PAUGlobalConstantsBuffer@@A ; gcb
	lea	eax, DWORD PTR $T1[ebp]
	add	edi, 64					; 00000040H
	rep movsd
	fstp	DWORD PTR [esp+12]
	fld	DWORD PTR __real@3dcccccd
	fstp	DWORD PTR [esp+8]
	fld	DWORD PTR __real@40a00000
	fstp	DWORD PTR [esp+4]
	fild	DWORD PTR ?WIDTH@lib3d@@3HA
	fmul	QWORD PTR __real@4014000000000000
	fidiv	DWORD PTR ?HEIGHT@lib3d@@3HA
	fstp	DWORD PTR [esp]
	push	eax
	call	?compute_orthographic_matrix@@YA?AUfloat4x4@@MMMM@Z ; compute_orthographic_matrix
	mov	edi, DWORD PTR ?gcb@@3PAUGlobalConstantsBuffer@@A ; gcb
	add	esp, 20					; 00000014H
	add	edi, 192				; 000000c0H
	mov	esi, eax

; 85   : 
; 86   : #ifdef _DEBUG
; 87   : 	transformbuffer_main = (lib3d::ConstantBuffer*)allocate_object(sizeof(lib3d::ConstantBuffer));
; 88   : 	*transformbuffer_main = lib3d::ConstantBuffer(sizeof(TransformBuffer));
; 89   : 	customdatabuffer_main = (lib3d::ConstantBuffer*)allocate_object(sizeof(lib3d::ConstantBuffer));
; 90   : 	*customdatabuffer_main = lib3d::ConstantBuffer(sizeof(CustomDataBuffer));
; 91   : 	TransformBuffer _tb; tb = &_tb;
; 92   : 	for (int i = 0; i < 64; i++)
; 93   : 	{
; 94   : 		tb->translation_matrix[i] = compute_translation_matrix(0.0f, 0.0f, 0.0f);
; 95   : 		tb->rotation_matrix[i] = compute_rotation_matrix(0.0f, float3(0.0f, 1.0f, 0.0f));
; 96   : 		tb->scale_matrix[i] = compute_scale_matrix(0.0f, 0.0f, 0.0f);
; 97   : 	}
; 98   : 	transformbuffer_main->map();
; 99   : 		TransformBuffer* _tbp = (TransformBuffer*)transformbuffer_main->get_data();
; 100  : 		for (int i = 0; i < 64; i++)
; 101  : 		{
; 102  : 			_tbp->translation_matrix[i] = tb->translation_matrix[i];
; 103  : 			_tbp->rotation_matrix[i] = tb->rotation_matrix[i];
; 104  : 			_tbp->scale_matrix[i] = tb->scale_matrix[i];
; 105  : 		}
; 106  : 	transformbuffer_main->unmap();
; 107  : 
; 108  : 	CustomDataBuffer _cdb = { float4(0.0,0.0,0.0,0.0),float4(0.0,0.0,0.0,0.0), float4(0.0,0.0,0.0,0.0) }; cdb = &_cdb;
; 109  : 	customdatabuffer_main->map();
; 110  : 		CustomDataBuffer* _cdbp = (CustomDataBuffer*)customdatabuffer_main->get_data();
; 111  : 		_cdbp->custom_data0 = cdb->custom_data0;
; 112  : 		_cdbp->custom_data1 = cdb->custom_data1;
; 113  : 		_cdbp->custom_data2 = cdb->custom_data2;
; 114  : 	customdatabuffer_main->unmap();
; 115  : #endif
; 116  : 
; 117  : 	//Set global constant buffer
; 118  : 	constantbuffer_main->attach(0);

	xor	ebx, ebx
	push	16					; 00000010H
	pop	ecx
	rep movsd
	mov	ecx, DWORD PTR ?constantbuffer_main@@3PAUConstantBuffer@lib3d@@A ; constantbuffer_main
	push	ebx
	call	?attach@ConstantBuffer@lib3d@@QAEXH@Z	; lib3d::ConstantBuffer::attach
	mov	edi, DWORD PTR __imp__PeekMessageA@20
	mov	esi, DWORD PTR __imp__GetForegroundWindow@0

; 119  : 
; 120  : #ifdef _DEBUG
; 121  : 	transformbuffer_main->attach(1);
; 122  : 	customdatabuffer_main->attach(2);
; 123  : 
; 124  : 	//Initialize imgui
; 125  : 	libimgui::initialize();
; 126  : 
; 127  : 	bool show_lua_errors_window = false;
; 128  : 	bool show_shader_errors_window = false;
; 129  : 	bool show_lua_reference_window = false;
; 130  : 
; 131  : 	liblua::init();
; 132  : #endif // _DEBUG
; 133  : 
; 134  : 	do
; 135  : 	{		
; 136  : #ifdef _DEBUG
; 137  : 		lib3d::start_global_timer();
; 138  : #endif
; 139  : 
; 140  : 		MSG msg;
; 141  : 		while (PeekMessageA(&msg, nullptr, 0, 0, PM_REMOVE))

	jmp	SHORT $LL4@WinMainCRT
$LL5@WinMainCRT:

; 142  : 		{
; 143  : 
; 144  : #ifdef _DEBUG
; 145  : 
; 146  : 			if (ImGui_ImplWin32_WndProcHandler(lib3d::window, msg.message, msg.wParam, msg.lParam)) {
; 147  : 				continue;
; 148  : 			}
; 149  : 
; 150  : #endif // _DEBUG
; 151  : 
; 152  : 			// Control focus app behaviour
; 153  : 			if (lib3d::window == GetForegroundWindow() && !lib3d::is_focused) lib3d::is_focused = true;//lib3d::swapchain->SetFullscreenState(true, nullptr);

	call	esi
	cmp	DWORD PTR ?window@lib3d@@3PAUHWND__@@A, eax ; lib3d::window
	jne	SHORT $LN7@WinMainCRT
	cmp	BYTE PTR ?is_focused@lib3d@@3_NA, bl	; lib3d::is_focused
	jne	SHORT $LN7@WinMainCRT
	mov	BYTE PTR ?is_focused@lib3d@@3_NA, 1	; lib3d::is_focused
$LN7@WinMainCRT:

; 154  : 			if (lib3d::window != GetForegroundWindow() && lib3d::is_focused) lib3d::is_focused = false;

	call	esi
	cmp	DWORD PTR ?window@lib3d@@3PAUHWND__@@A, eax ; lib3d::window
	je	SHORT $LN27@WinMainCRT
	cmp	BYTE PTR ?is_focused@lib3d@@3_NA, bl	; lib3d::is_focused
	je	SHORT $LN10@WinMainCRT
	mov	al, bl
	mov	BYTE PTR ?is_focused@lib3d@@3_NA, al	; lib3d::is_focused
	jmp	SHORT $LN8@WinMainCRT
$LN27@WinMainCRT:
	mov	al, BYTE PTR ?is_focused@lib3d@@3_NA	; lib3d::is_focused
$LN8@WinMainCRT:

; 155  : 
; 156  : 			if (lib3d::is_focused)

	test	al, al
	je	SHORT $LN10@WinMainCRT

; 157  : 			{	
; 158  : 				if (GetAsyncKeyState(VK_ESCAPE) & 0x8000) 

	push	27					; 0000001bH
	call	DWORD PTR __imp__GetAsyncKeyState@4
	bt	ax, 15					; 0000000fH
	jb	SHORT $LN19@WinMainCRT
$LN10@WinMainCRT:

; 161  : 				}
; 162  : 			}
; 163  : 
; 164  : 			TranslateMessage(&msg);

	lea	eax, DWORD PTR _msg$3[ebp]
	push	eax
	call	DWORD PTR __imp__TranslateMessage@4

; 165  : 			DispatchMessageA(&msg);

	lea	eax, DWORD PTR _msg$3[ebp]
	push	eax
	call	DWORD PTR __imp__DispatchMessageA@4
$LL4@WinMainCRT:

; 119  : 
; 120  : #ifdef _DEBUG
; 121  : 	transformbuffer_main->attach(1);
; 122  : 	customdatabuffer_main->attach(2);
; 123  : 
; 124  : 	//Initialize imgui
; 125  : 	libimgui::initialize();
; 126  : 
; 127  : 	bool show_lua_errors_window = false;
; 128  : 	bool show_shader_errors_window = false;
; 129  : 	bool show_lua_reference_window = false;
; 130  : 
; 131  : 	liblua::init();
; 132  : #endif // _DEBUG
; 133  : 
; 134  : 	do
; 135  : 	{		
; 136  : #ifdef _DEBUG
; 137  : 		lib3d::start_global_timer();
; 138  : #endif
; 139  : 
; 140  : 		MSG msg;
; 141  : 		while (PeekMessageA(&msg, nullptr, 0, 0, PM_REMOVE))

	push	1
	push	ebx
	push	ebx
	push	ebx
	lea	eax, DWORD PTR _msg$3[ebp]
	push	eax
	call	edi
	test	eax, eax
	jne	SHORT $LL5@WinMainCRT

; 166  : 		}
; 167  : 		
; 168  : #ifdef _DEBUG
; 169  : 		liblua::check_lua_changes();
; 170  : 
; 171  : 		bool shader_failed = false;
; 172  : 		bool lua_failed = false;
; 173  : 
; 174  : 		//imgui logic
; 175  : 		{
; 176  : 			ImGui_ImplDX11_NewFrame();
; 177  : 			ImGui_ImplWin32_NewFrame();
; 178  : 			ImGui::NewFrame();
; 179  : 
; 180  : 			//Lua based imgui
; 181  : 			liblua::imgui();
; 182  : 
; 183  : 			if (ImGui::BeginMainMenuBar())
; 184  : 			{
; 185  : 				if (ImGui::Button("Load")) 
; 186  : 				{
; 187  : 					liblua::lua_filename_level = libimgui::open_file_dialog();
; 188  : 					liblua::load_new_level();
; 189  : 				}
; 190  : 
; 191  : 				if (ImGui::BeginMenu("View")) 
; 192  : 				{
; 193  : 					ImGui::MenuItem("Shader errors", nullptr, &show_shader_errors_window);
; 194  : 					ImGui::MenuItem("Lua errors", nullptr, &show_lua_errors_window);
; 195  : 					ImGui::MenuItem("Lua reference", nullptr, &show_lua_reference_window);
; 196  : 				ImGui::EndMenu();
; 197  : 				}
; 198  : 				ImGui::SameLine(lib3d::WIDTH/2.0 - ImGui::CalcTextSize("____________________").x/2.0); // Ajusta la posicin X segn tus necesidades
; 199  : 				ImGui::Text("[ %.2f ms ] %d x %d",lib3d::global_time_use, lib3d::WIDTH, lib3d::HEIGHT);
; 200  : 
; 201  : 				ImGui::EndMainMenuBar();
; 202  : 			}
; 203  : 
; 204  : 			//Lua errors
; 205  : 			if (show_lua_errors_window)
; 206  : 			{
; 207  : 				ImGui::Begin("Lua errors");
; 208  : 				ImGui::TextWrapped(liblua::lua_error_log.c_str());
; 209  : 				ImGui::TextWrapped(liblua::lua_softerrors_log.c_str());
; 210  : 				ImGui::End();
; 211  : 			}
; 212  : 
; 213  : 			//Shader errors
; 214  : 			if (show_shader_errors_window)
; 215  : 			{
; 216  : 
; 217  : 				ImGui::Begin("Shader errors");
; 218  : 				for (int i = 0; i < MAX_LIST_SIZE; i++)
; 219  : 				{
; 220  : 					if (lib3d::fx_list[i] != nullptr)
; 221  : 					{
; 222  : 						ImGui::TextWrapped(lib3d::fx_list[i]->error_vertex_shader.c_str());
; 223  : 						ImGui::TextWrapped(lib3d::fx_list[i]->error_pixel_shader.c_str());
; 224  : 						ImGui::TextWrapped(lib3d::fx_list[i]->error_geometry_shader.c_str());
; 225  : 					}
; 226  : 
; 227  : 					if (lib3d::computefx_list[i] != nullptr)
; 228  : 					{
; 229  : 						ImGui::TextWrapped(lib3d::computefx_list[i]->error_compute_shader.c_str());
; 230  : 					}
; 231  : 				}
; 232  : 				ImGui::End();
; 233  : 			}
; 234  : 
; 235  : 			if (show_lua_reference_window)
; 236  : 			{
; 237  : 				ImGui::Begin("Lua reference");
; 238  : 				ImGui::TextWrapped(liblua::list_lua_bindings.c_str());
; 239  : 				ImGui::End();
; 240  : 			}
; 241  : 
; 242  : 
; 243  : 			if (liblua::lua_softerrors_log != "" || liblua::lua_error_log != "")
; 244  : 			{
; 245  : 				lua_failed = true;
; 246  : 				libimgui::draw_lua_error_square();
; 247  : 			}
; 248  : 			
; 249  : 			{
; 250  : 				for (int i = 0; i < MAX_LIST_SIZE; i++)
; 251  : 				{
; 252  : 					if (lib3d::fx_list[i] != nullptr)
; 253  : 					{
; 254  : 						if (lib3d::fx_list[i]->error_vertex_shader != "")
; 255  : 						{
; 256  : 							shader_failed = true;
; 257  : 							break;
; 258  : 						}
; 259  : 						if (lib3d::fx_list[i]->error_pixel_shader != "")
; 260  : 						{
; 261  : 							shader_failed = true;
; 262  : 							break;
; 263  : 						}
; 264  : 						if (lib3d::fx_list[i]->error_geometry_shader != "")
; 265  : 						{
; 266  : 							shader_failed = true;
; 267  : 							break;
; 268  : 						}
; 269  : 					}
; 270  : 
; 271  : 					if (lib3d::computefx_list[i] != nullptr)
; 272  : 					{
; 273  : 						if (lib3d::computefx_list[i]->error_compute_shader != "")
; 274  : 						{
; 275  : 							shader_failed = true;
; 276  : 							break;
; 277  : 						}
; 278  : 					}
; 279  : 				}
; 280  : 				if (shader_failed)
; 281  : 				{
; 282  : 					libimgui::draw_shader_error_square();
; 283  : 				}
; 284  : 			}
; 285  : 
; 286  : 			ImGui::Render();
; 287  : 		}
; 288  : 
; 289  : #endif // _DEBUG
; 290  : 
; 291  : 		update_globalconstants();

	call	?update_globalconstants@@YAXXZ		; update_globalconstants
; File C:\Users\jose-remedy\Documents\GitHub\lazyengine\lib3d.h

; 1640 :             inmediate->ClearRenderTargetView(rtv, _clean_color);

	mov	ecx, DWORD PTR ?inmediate@lib3d@@3PAUID3D11DeviceContext@@A ; lib3d::inmediate
	mov	eax, DWORD PTR ?rendertarget_main@@3PAUBackbuffer@lib3d@@A ; rendertarget_main
	push	OFFSET ?BACKGROUND_COL@@3PAMA		; BACKGROUND_COL
	mov	edx, DWORD PTR [ecx]
	push	DWORD PTR [eax+4]
	push	ecx
	call	DWORD PTR [edx+200]
; File C:\Users\jose-remedy\Documents\GitHub\lazyengine\main.cpp

; 305  : 		lib3d::swapchain->Present(1, 0);

	mov	eax, DWORD PTR ?swapchain@lib3d@@3PAUIDXGISwapChain@@A ; lib3d::swapchain
	push	ebx
	push	1
	push	eax
	mov	ecx, DWORD PTR [eax]
	call	DWORD PTR [ecx+32]

; 306  : 		
; 307  : #ifdef _DEBUG
; 308  : 		//Lua cleanup (clean resources etc)
; 309  : 		liblua::cleanup();
; 310  : 		lib3d::stop_global_timer();
; 311  : #endif // _DEBUG
; 312  : 
; 313  : 	} 
; 314  : 	while (true);

	jmp	SHORT $LL4@WinMainCRT
$LN19@WinMainCRT:

; 159  : 				{
; 160  : 					ExitProcess(0);

	push	ebx
	call	DWORD PTR __imp__ExitProcess@4
$LN28@WinMainCRT:
	int	3
?WinMainCRTStartup@@YAXXZ ENDP				; WinMainCRTStartup
_TEXT	ENDS
; Function compile flags: /Ogspy
; File C:\Users\jose-remedy\Documents\GitHub\lazyengine\vars.h
; File C:\Users\jose-remedy\Documents\GitHub\lazyengine\lib3d.h
; File C:\Users\jose-remedy\Documents\GitHub\lazyengine\vars.h
; File C:\Users\jose-remedy\Documents\GitHub\lazyengine\lib3d.h
; File C:\Users\jose-remedy\Documents\GitHub\lazyengine\vars.h
; File C:\Users\jose-remedy\Documents\GitHub\lazyengine\lib3d.h
; File C:\Users\jose-remedy\Documents\GitHub\lazyengine\vars.h
_TEXT	SEGMENT
?update_globalconstants@@YAXXZ PROC			; update_globalconstants

; 66   : 
; 67   : #ifdef _DEBUG
; 68   : 	gcb->delta_time = lib3d::global_time_use / 1000.0;
; 69   : #else
; 70   : 	gcb->delta_time = 0.016;

	mov	eax, DWORD PTR ?gcb@@3PAUGlobalConstantsBuffer@@A ; gcb
	fld	DWORD PTR __real@3c83126f
	push	esi
	push	edi
	fst	DWORD PTR [eax+260]

; 71   : #endif// DEBUG
; 72   : 
; 73   : 	
; 74   : 	gcb->global_time += gcb->delta_time;

	mov	eax, DWORD PTR ?gcb@@3PAUGlobalConstantsBuffer@@A ; gcb
	fadd	DWORD PTR [eax+256]
	fstp	DWORD PTR [eax+256]

; 75   : 	
; 76   : 	constantbuffer_main->map();

	mov	ecx, DWORD PTR ?constantbuffer_main@@3PAUConstantBuffer@lib3d@@A ; constantbuffer_main
; File C:\Users\jose-remedy\Documents\GitHub\lazyengine\lib3d.h

; 1728 :             inmediate->Map(buffer, 0, D3D11_MAP_WRITE_DISCARD, 0, &mapped_subresource);

	mov	edx, DWORD PTR ?inmediate@lib3d@@3PAUID3D11DeviceContext@@A ; lib3d::inmediate
	lea	eax, DWORD PTR [ecx+4]
	mov	esi, DWORD PTR [edx]
	push	eax
	push	0
	push	4
	push	0
	push	DWORD PTR [ecx]
	push	edx
	call	DWORD PTR [esi+56]
; File C:\Users\jose-remedy\Documents\GitHub\lazyengine\vars.h

; 77   : 		GlobalConstantsBuffer* _gcb = (GlobalConstantsBuffer*)constantbuffer_main->get_data();

	mov	eax, DWORD PTR ?constantbuffer_main@@3PAUConstantBuffer@lib3d@@A ; constantbuffer_main

; 78   : 		_gcb->view_matrix = gcb->view_matrix;

	mov	esi, DWORD PTR ?gcb@@3PAUGlobalConstantsBuffer@@A ; gcb
	push	16					; 00000010H
	pop	ecx
	mov	edx, DWORD PTR [eax+4]
	mov	edi, edx
	rep movsd

; 79   : 		_gcb->projection_matrix = gcb->projection_matrix;

	mov	esi, DWORD PTR ?gcb@@3PAUGlobalConstantsBuffer@@A ; gcb
	lea	edi, DWORD PTR [edx+64]
	push	16					; 00000010H
	pop	ecx
	add	esi, 64					; 00000040H
	rep movsd

; 80   : 		_gcb->light_view_matrix = gcb->light_view_matrix;

	mov	esi, DWORD PTR ?gcb@@3PAUGlobalConstantsBuffer@@A ; gcb
	lea	edi, DWORD PTR [edx+128]
	push	16					; 00000010H
	pop	ecx
	sub	esi, -128				; ffffff80H
	rep movsd

; 81   : 		_gcb->light_projection_matrix = gcb->light_projection_matrix;

	mov	esi, DWORD PTR ?gcb@@3PAUGlobalConstantsBuffer@@A ; gcb
	lea	edi, DWORD PTR [edx+192]
	push	16					; 00000010H
	pop	ecx
	add	esi, 192				; 000000c0H
	rep movsd

; 82   : 		_gcb->global_time = gcb->global_time;

	mov	eax, DWORD PTR ?gcb@@3PAUGlobalConstantsBuffer@@A ; gcb
; File C:\Users\jose-remedy\Documents\GitHub\lazyengine\lib3d.h

; 1733 :             inmediate->Unmap(buffer, 0);

	push	0
; File C:\Users\jose-remedy\Documents\GitHub\lazyengine\vars.h

; 82   : 		_gcb->global_time = gcb->global_time;

	fld	DWORD PTR [eax+256]
	fstp	DWORD PTR [edx+256]

; 83   : 		_gcb->delta_time = gcb->delta_time;

	mov	eax, DWORD PTR ?gcb@@3PAUGlobalConstantsBuffer@@A ; gcb
	fld	DWORD PTR [eax+260]
	fstp	DWORD PTR [edx+260]
; File C:\Users\jose-remedy\Documents\GitHub\lazyengine\lib3d.h

; 1733 :             inmediate->Unmap(buffer, 0);

	mov	ecx, DWORD PTR ?inmediate@lib3d@@3PAUID3D11DeviceContext@@A ; lib3d::inmediate
	mov	eax, DWORD PTR ?constantbuffer_main@@3PAUConstantBuffer@lib3d@@A ; constantbuffer_main
	mov	edx, DWORD PTR [ecx]
	push	DWORD PTR [eax]
	push	ecx
	call	DWORD PTR [edx+60]
	pop	edi
	pop	esi
; File C:\Users\jose-remedy\Documents\GitHub\lazyengine\vars.h

; 85   : }

	ret	0
?update_globalconstants@@YAXXZ ENDP			; update_globalconstants
_TEXT	ENDS
; Function compile flags: /Ogspy
; File C:\Users\jose-remedy\Documents\GitHub\lazyengine\libmath.h
;	COMDAT ??0GlobalConstantsBuffer@@QAE@XZ
_TEXT	SEGMENT
??0GlobalConstantsBuffer@@QAE@XZ PROC			; GlobalConstantsBuffer::GlobalConstantsBuffer, COMDAT
; _this$ = ecx

; 92   : 		for (int i = 0; i < 4; i++) for(int j=0;j<4;j++) m[i][j] = 0.0f;

	push	edi
	mov	edx, ecx
	xor	eax, eax
	push	16					; 00000010H
	pop	ecx
	push	16					; 00000010H
	mov	edi, edx
	rep stosd
	pop	ecx
	push	16					; 00000010H
	lea	edi, DWORD PTR [edx+64]
	rep stosd
	pop	ecx
	lea	edi, DWORD PTR [edx+128]
	rep stosd
	push	16					; 00000010H
	pop	ecx
	lea	edi, DWORD PTR [edx+192]
	rep stosd
	mov	eax, edx
	pop	edi
	ret	0
??0GlobalConstantsBuffer@@QAE@XZ ENDP			; GlobalConstantsBuffer::GlobalConstantsBuffer
_TEXT	ENDS
; Function compile flags: /Ogspy
; File C:\Users\jose-remedy\Documents\GitHub\lazyengine\libmath.h
_TEXT	SEGMENT
_a$ = 8							; size = 4
_b$ = 12						; size = 4
_val$ = 16						; size = 4
?smoothstep@@YAMMMM@Z PROC				; smoothstep

; 296  : 	if (val < a) return 0.0f;

	fld	DWORD PTR _a$[esp-4]
	fld	DWORD PTR _val$[esp-4]
	fcom	ST(1)
	fnstsw	ax
	test	ah, 5
	jp	SHORT $LN2@smoothstep
	fstp	ST(0)
	fstp	ST(0)
	fldz

; 300  : 	return val;
; 301  : }

	ret	0
$LN2@smoothstep:

; 297  : 	if (val > b) return 1.0f;

	fld	DWORD PTR _b$[esp-4]
	fcom	ST(1)
	fnstsw	ax
	test	ah, 5
	jp	SHORT $LN3@smoothstep
	fstp	ST(1)
	fstp	ST(0)
	fstp	ST(0)
	fld1

; 300  : 	return val;
; 301  : }

	ret	0
$LN3@smoothstep:

; 298  : 	float t = (val - a) / (b - a);

	fxch	ST(1)
	fsub	ST(0), ST(2)
	fxch	ST(1)
	fsubrp	ST(2), ST(0)
	fdivrp	ST(1), ST(0)

; 299  : 	val = 3.0 * t * t - 2.0 * t * t * t;

	fld	DWORD PTR __real@40400000
	fmul	ST(0), ST(1)
	fmul	ST(0), ST(1)
	fld	ST(1)
	fadd	ST(0), ST(2)
	fmul	ST(0), ST(2)
	fmulp	ST(2), ST(0)
	fsubrp	ST(1), ST(0)

; 300  : 	return val;
; 301  : }

	ret	0
?smoothstep@@YAMMMM@Z ENDP				; smoothstep
_TEXT	ENDS
; Function compile flags: /Ogspy
; File C:\Users\jose-remedy\Documents\GitHub\lazyengine\libmath.h
; File C:\Users\jose-remedy\Documents\GitHub\lazyengine\libmem.h
; File C:\Users\jose-remedy\Documents\GitHub\lazyengine\libmath.h
_TEXT	SEGMENT
$T1 = -16						; size = 4
$T2 = -12						; size = 4
$T3 = -8						; size = 4
_r$4 = -4						; size = 4
_r$5 = -4						; size = 4
_angle$ = 8						; size = 4
_cos_angle$ = 8						; size = 4
___$ReturnUdt$ = 8					; size = 4
_rotation_matrix$ = 12					; size = 64
?extract_rotation_info@@YA?AUfloat4@@Ufloat4x4@@@Z PROC	; extract_rotation_info

; 263  : {

	push	ebp
	mov	ebp, esp
	sub	esp, 16					; 00000010H

; 264  : 	float trace = rotation_matrix.m[0][0] + rotation_matrix.m[1][1] + rotation_matrix.m[2][2];

	fld	DWORD PTR _rotation_matrix$[ebp+20]
	fadd	DWORD PTR _rotation_matrix$[ebp]
	mov	ecx, DWORD PTR ___$ReturnUdt$[ebp]
	fadd	DWORD PTR _rotation_matrix$[ebp+40]

; 265  : 	float cos_angle = (trace - 1.0f) * 0.5f;

	fsub	DWORD PTR __real@3f800000
	fmul	DWORD PTR __real@3f000000
	fstp	DWORD PTR _cos_angle$[ebp]

; 266  : 	float angle = acosf(cos_angle);

	fld	DWORD PTR _cos_angle$[ebp]
	fpatan
	fsqrt
	fdivp	ST(1), ST(0)
	fld1
	fsubp	ST(1), ST(0)
	fpatan
	fstp	DWORD PTR _r$5[ebp]
; File C:\Users\jose-remedy\Documents\GitHub\lazyengine\libmem.h

; 54   :     return r;

	fld	DWORD PTR _r$5[ebp]
	fst	DWORD PTR _angle$[ebp]
; File C:\Users\jose-remedy\Documents\GitHub\lazyengine\libmath.h

; 14   : 	float x, y, z, w; float4(float _x, float _y, float _z, float _w) { x = _x; y = _y; z = _z; w = _w; }

	fldz
	fst	DWORD PTR [ecx]

; 267  : 
; 268  : 	float4 rotation_info = float4(0.0,0.0,0.0,0.0);
; 269  : 	rotation_info.w = angle;

	fxch	ST(1)
	fst	DWORD PTR [ecx+12]

; 270  : 
; 271  : 	if (angle > 0.0f)

	fcomp	ST(1)
	fnstsw	ax
	test	ah, 65					; 00000041H
	jne	SHORT $LN2@extract_ro
	fstp	ST(0)

; 272  : 	{
; 273  : 		rotation_info.x = rotation_matrix.m[2][1] - rotation_matrix.m[1][2];

	fld	DWORD PTR _rotation_matrix$[ebp+36]
	fsub	DWORD PTR _rotation_matrix$[ebp+24]
	fstp	DWORD PTR $T1[ebp]

; 274  : 		rotation_info.y = rotation_matrix.m[0][2] - rotation_matrix.m[2][0];

	fld	DWORD PTR _rotation_matrix$[ebp+8]
	fsub	DWORD PTR _rotation_matrix$[ebp+32]
	fst	DWORD PTR $T2[ebp]
	fstp	DWORD PTR [ecx+4]

; 275  : 		rotation_info.z = rotation_matrix.m[1][0] - rotation_matrix.m[0][1];

	fld	DWORD PTR _rotation_matrix$[ebp+16]
	fsub	DWORD PTR _rotation_matrix$[ebp+4]
	fst	DWORD PTR $T3[ebp]
	fstp	DWORD PTR [ecx+8]

; 276  : 
; 277  : 		float inv_twice_sin_angle = -1.0f / (2.0f * sinf(angle));

	fld	DWORD PTR _angle$[ebp]
	fsin
	fstp	DWORD PTR _r$4[ebp]
	fld	DWORD PTR _r$4[ebp]
	fadd	ST(0), ST(0)
	fdivr	DWORD PTR __real@bf800000

; 278  : 		rotation_info.x *= inv_twice_sin_angle;
; 279  : 		rotation_info.y *= inv_twice_sin_angle;
; 280  : 		rotation_info.z *= inv_twice_sin_angle;

	fld	DWORD PTR $T3[ebp]
	fmul	ST(0), ST(1)
	fld	DWORD PTR $T2[ebp]
	fmul	ST(0), ST(2)
	fld	DWORD PTR $T1[ebp]
	fmulp	ST(3), ST(0)

; 281  : 	}

	fxch	ST(1)
	fxch	ST(2)
$LN3@extract_ro:

; 288  : 	}
; 289  : 
; 290  : 	return rotation_info;

	fstp	DWORD PTR [ecx]
	mov	eax, ecx
	fstp	DWORD PTR [ecx+4]
	fstp	DWORD PTR [ecx+8]

; 291  : }

	leave
	ret	0
$LN2@extract_ro:

; 282  : 	else
; 283  : 	{
; 284  : 		// No hay rotacin, devuelve un vector nulo
; 285  : 		rotation_info.x = 0.0f;
; 286  : 		rotation_info.y = 0.0f;
; 287  : 		rotation_info.z = 0.0f;

	fld	ST(0)
	fld	ST(1)
	jmp	SHORT $LN3@extract_ro
?extract_rotation_info@@YA?AUfloat4@@Ufloat4x4@@@Z ENDP	; extract_rotation_info
_TEXT	ENDS
; Function compile flags: /Ogspy
; File C:\Users\jose-remedy\Documents\GitHub\lazyengine\libmath.h
_TEXT	SEGMENT
___$ReturnUdt$ = 8					; size = 4
_x$ = 12						; size = 4
_y$ = 16						; size = 4
_z$ = 20						; size = 4
?compute_scale_matrix@@YA?AUfloat4x4@@MMM@Z PROC	; compute_scale_matrix

; 101  : 		m[0][0] = _m00; m[0][1] = _m01; m[0][2] = _m02; m[0][3] = _m03;

	mov	eax, DWORD PTR ___$ReturnUdt$[esp-4]
	fld	DWORD PTR _x$[esp-4]
	fstp	DWORD PTR [eax]
	fldz
	fst	DWORD PTR [eax+4]
	fst	DWORD PTR [eax+8]
	fst	DWORD PTR [eax+12]

; 102  : 		m[1][0] = _m10; m[1][1] = _m11; m[1][2] = _m12; m[1][3] = _m13;

	fst	DWORD PTR [eax+16]
	fld	DWORD PTR _y$[esp-4]
	fstp	DWORD PTR [eax+20]
	fst	DWORD PTR [eax+24]
	fst	DWORD PTR [eax+28]

; 103  : 		m[2][0] = _m20; m[2][1] = _m21; m[2][2] = _m22; m[2][3] = _m23;

	fst	DWORD PTR [eax+32]
	fst	DWORD PTR [eax+36]
	fld	DWORD PTR _z$[esp-4]
	fstp	DWORD PTR [eax+40]
	fst	DWORD PTR [eax+44]

; 104  : 		m[3][0] = _m30; m[3][1] = _m31; m[3][2] = _m32; m[3][3] = _m33;

	fst	DWORD PTR [eax+48]
	fst	DWORD PTR [eax+52]
	fstp	DWORD PTR [eax+56]
	fld1
	fstp	DWORD PTR [eax+60]

; 251  : 	float4x4 scale_matrix =
; 252  : 	{
; 253  : 		x, 0.0f, 0.0f, 0.0f,
; 254  : 		0.0f, y, 0.0f, 0.0f,
; 255  : 		0.0f, 0.0f, z, 0.0f,
; 256  : 		0.0f, 0.0f, 0.0f, 1.0f
; 257  : 	};
; 258  : 	return scale_matrix;
; 259  : }

	ret	0
?compute_scale_matrix@@YA?AUfloat4x4@@MMM@Z ENDP	; compute_scale_matrix
_TEXT	ENDS
; Function compile flags: /Ogspy
; File C:\Users\jose-remedy\Documents\GitHub\lazyengine\libmath.h
_TEXT	SEGMENT
tv167 = -20						; size = 4
tv174 = -16						; size = 4
tv177 = -12						; size = 4
_r$1$ = -8						; size = 4
_r$1 = -8						; size = 4
_r$2 = -4						; size = 4
___$ReturnUdt$ = 8					; size = 4
_angle$ = 12						; size = 4
_axis$ = 16						; size = 12
?compute_rotation_matrix@@YA?AUfloat4x4@@MUfloat3@@@Z PROC ; compute_rotation_matrix

; 229  : {

	push	ebp
	mov	ebp, esp
	sub	esp, 20					; 00000014H

; 230  : 	float cosA = cosf(angle);

	fld	DWORD PTR _angle$[ebp]
	fcos
	fstp	DWORD PTR _r$2[ebp]

; 231  : 	float sinA = sinf(angle);

	fld	DWORD PTR _angle$[ebp]
	fsin
	fstp	DWORD PTR _r$1[ebp]

; 232  : 	float oneMinusCosA = 1.0f - cosA;

	fld1

; 233  : 
; 234  : 	float x = axis.x;
; 235  : 	float y = axis.y;
; 236  : 	float z = axis.z;
; 237  : 
; 238  : 	float4x4 rotation_matrix =
; 239  : 	{

	sub	esp, 64					; 00000040H
	fld	ST(0)
	mov	ecx, DWORD PTR ___$ReturnUdt$[ebp]
	fsub	DWORD PTR _r$2[ebp]
	fld	DWORD PTR _axis$[ebp+4]
	fld	ST(0)
	fmul	ST(0), ST(2)
	fst	DWORD PTR tv167[ebp]
	fld	DWORD PTR _axis$[ebp+8]
	fmul	ST(1), ST(0)
	fld	DWORD PTR _r$1[ebp]
	fld	ST(0)
	fld	DWORD PTR _axis$[ebp]
	fmul	ST(1), ST(0)
	fmul	ST(0), ST(6)
	fst	DWORD PTR tv177[ebp]
	fmul	ST(0), ST(3)
	fstp	DWORD PTR tv174[ebp]
	fxch	ST(1)
	fmulp	ST(4), ST(0)
	fld	DWORD PTR tv177[ebp]
	fmul	DWORD PTR _axis$[ebp+4]
	fld	DWORD PTR _r$1[ebp]
	fmul	ST(0), ST(3)
	fstp	DWORD PTR _r$1$[ebp]
	fxch	ST(6)
	fstp	DWORD PTR [esp+60]
	fldz
	fst	DWORD PTR [esp+56]
	fst	DWORD PTR [esp+52]
	fst	DWORD PTR [esp+48]
	fst	DWORD PTR [esp+44]
	fld	ST(2)
	fmulp	ST(6), ST(0)
	fxch	ST(5)
	fmulp	ST(2), ST(0)
	fld	DWORD PTR _r$2[ebp]
	faddp	ST(2), ST(0)
	fxch	ST(1)
	fstp	DWORD PTR [esp+40]
	fld	ST(1)
	fsub	ST(0), ST(1)
	fstp	DWORD PTR [esp+36]
	fld	ST(2)
	fld	DWORD PTR tv174[ebp]
	fadd	ST(1), ST(0)
	fxch	ST(1)
	fstp	DWORD PTR [esp+32]
	fxch	ST(4)
	fst	DWORD PTR [esp+28]
	fxch	ST(1)
	faddp	ST(2), ST(0)
	fxch	ST(1)
	fstp	DWORD PTR [esp+24]
	fld	DWORD PTR _axis$[ebp+4]
	fmul	DWORD PTR tv167[ebp]
	fld	DWORD PTR _r$2[ebp]
	fadd	ST(1), ST(0)
	fxch	ST(1)
	fstp	DWORD PTR [esp+20]
	fld	ST(4)
	fld	DWORD PTR _r$1$[ebp]
	fsub	ST(1), ST(0)
	fxch	ST(1)
	fstp	DWORD PTR [esp+16]
	fxch	ST(2)
	fstp	DWORD PTR [esp+12]
	fxch	ST(3)
	fsubrp	ST(2), ST(0)
	fxch	ST(1)
	fstp	DWORD PTR [esp+8]
	faddp	ST(2), ST(0)
	fxch	ST(1)
	fstp	DWORD PTR [esp+4]
	fld	DWORD PTR tv177[ebp]
	fmul	DWORD PTR _axis$[ebp]
	faddp	ST(1), ST(0)
	fstp	DWORD PTR [esp]
	call	??0float4x4@@QAE@MMMMMMMMMMMMMMMM@Z	; float4x4::float4x4

; 240  : 		cosA + oneMinusCosA * x * x, oneMinusCosA* x* y + sinA * z, oneMinusCosA* x* z - sinA * y,	0.0f,
; 241  : 		oneMinusCosA* x* y - sinA * z,	cosA + oneMinusCosA * y * y, oneMinusCosA* y* z + sinA * x, 0.0f,
; 242  : 		oneMinusCosA* x* z + sinA * y, oneMinusCosA* y* z - sinA * x, cosA + oneMinusCosA * z * z, 0.0f,
; 243  : 		0.0f, 0.0f, 0.0f, 1.0f
; 244  : 	};
; 245  : 
; 246  : 	return rotation_matrix;

	mov	eax, DWORD PTR ___$ReturnUdt$[ebp]

; 247  : }

	leave
	ret	0
?compute_rotation_matrix@@YA?AUfloat4x4@@MUfloat3@@@Z ENDP ; compute_rotation_matrix
_TEXT	ENDS
; Function compile flags: /Ogspy
; File C:\Users\jose-remedy\Documents\GitHub\lazyengine\libmath.h
_TEXT	SEGMENT
___$ReturnUdt$ = 8					; size = 4
_x$ = 12						; size = 4
_y$ = 16						; size = 4
_z$ = 20						; size = 4
?compute_translation_matrix@@YA?AUfloat4x4@@MMM@Z PROC	; compute_translation_matrix

; 101  : 		m[0][0] = _m00; m[0][1] = _m01; m[0][2] = _m02; m[0][3] = _m03;

	mov	eax, DWORD PTR ___$ReturnUdt$[esp-4]
	fld1
	fst	DWORD PTR [eax]
	fldz
	fst	DWORD PTR [eax+4]
	fst	DWORD PTR [eax+8]
	fst	DWORD PTR [eax+12]

; 102  : 		m[1][0] = _m10; m[1][1] = _m11; m[1][2] = _m12; m[1][3] = _m13;

	fst	DWORD PTR [eax+16]
	fst	DWORD PTR [eax+24]
	fst	DWORD PTR [eax+28]

; 103  : 		m[2][0] = _m20; m[2][1] = _m21; m[2][2] = _m22; m[2][3] = _m23;

	fst	DWORD PTR [eax+32]
	fst	DWORD PTR [eax+36]
	fstp	DWORD PTR [eax+44]
	fst	DWORD PTR [eax+20]
	fst	DWORD PTR [eax+40]

; 104  : 		m[3][0] = _m30; m[3][1] = _m31; m[3][2] = _m32; m[3][3] = _m33;

	fld	DWORD PTR _x$[esp-4]
	fstp	DWORD PTR [eax+48]
	fld	DWORD PTR _y$[esp-4]
	fstp	DWORD PTR [eax+52]
	fld	DWORD PTR _z$[esp-4]
	fstp	DWORD PTR [eax+56]
	fstp	DWORD PTR [eax+60]

; 217  : 	float4x4 translation_matrix =
; 218  : 	{
; 219  : 		1.0f, 0.0f, 0.0f, 0.0,
; 220  : 		0.0f, 1.0f, 0.0f, 0.0,
; 221  : 		0.0f, 0.0f, 1.0f, 0.0,
; 222  : 		x, y, z, 1.0f
; 223  : 	};
; 224  : 	return translation_matrix;
; 225  : }

	ret	0
?compute_translation_matrix@@YA?AUfloat4x4@@MMM@Z ENDP	; compute_translation_matrix
_TEXT	ENDS
; Function compile flags: /Ogspy
; File C:\Users\jose-remedy\Documents\GitHub\lazyengine\libmath.h
_TEXT	SEGMENT
_r$1 = -4						; size = 4
___$ReturnUdt$ = 8					; size = 4
_x$ = 12						; size = 4
__fov$ = 12						; size = 4
__aspect_ratio$ = 16					; size = 4
__znear$ = 20						; size = 4
__zfar$ = 24						; size = 4
?compute_perspective_matrix@@YA?AUfloat4x4@@MMMM@Z PROC	; compute_perspective_matrix

; 199  : {

	push	ebp
	mov	ebp, esp
	push	ecx

; 200  : 	float h = 1 / tanf(_fov * 0.5);

	fld	DWORD PTR __fov$[ebp]
	fmul	DWORD PTR __real@3f000000
	fstp	DWORD PTR _x$[ebp]
	fld	DWORD PTR _x$[ebp]
	fptan
	fstp	ST(0)
	fstp	DWORD PTR _r$1[ebp]
	fld1

; 201  : 	float w = h / _aspect_ratio;
; 202  : 	float a = _zfar / (_zfar - _znear);
; 203  : 	float b = (-_znear * _zfar) / (_zfar - _znear);
; 204  : 
; 205  : 	float4x4 projection_matrix = float4x4(

	sub	esp, 64					; 00000040H
	fld	DWORD PTR _r$1[ebp]
	fdivr	ST(0), ST(1)
	mov	ecx, DWORD PTR ___$ReturnUdt$[ebp]
	fld	DWORD PTR __zfar$[ebp]
	fld	ST(0)
	fld	DWORD PTR __znear$[ebp]
	fsub	ST(1), ST(0)
	fldz
	fst	DWORD PTR [esp+60]
	fxch	ST(1)
	fmul	ST(0), ST(3)
	fdiv	ST(0), ST(2)
	fchs
	fstp	DWORD PTR [esp+56]
	fst	DWORD PTR [esp+52]
	fst	DWORD PTR [esp+48]
	fxch	ST(4)
	fstp	DWORD PTR [esp+44]
	fdivp	ST(1), ST(0)
	fstp	DWORD PTR [esp+40]
	fxch	ST(1)
	fst	DWORD PTR [esp+36]
	fst	DWORD PTR [esp+32]
	fst	DWORD PTR [esp+28]
	fst	DWORD PTR [esp+24]
	fxch	ST(1)
	fst	DWORD PTR [esp+20]
	fxch	ST(1)
	fst	DWORD PTR [esp+16]
	fst	DWORD PTR [esp+12]
	fst	DWORD PTR [esp+8]
	fstp	DWORD PTR [esp+4]
	fdiv	DWORD PTR __aspect_ratio$[ebp]
	fstp	DWORD PTR [esp]
	call	??0float4x4@@QAE@MMMMMMMMMMMMMMMM@Z	; float4x4::float4x4

; 206  : 		w, 0.0f, 0.0f, 0.0f,
; 207  : 		0.0f, h, 0.0f, 0.0f,
; 208  : 		0.0f, 0.0f, a, 1.0f,
; 209  : 		0.0f, 0.0f, b, 0.0f
; 210  : 	);
; 211  : 
; 212  : 	return projection_matrix;

	mov	eax, DWORD PTR ___$ReturnUdt$[ebp]

; 213  : }

	leave
	ret	0
?compute_perspective_matrix@@YA?AUfloat4x4@@MMMM@Z ENDP	; compute_perspective_matrix
_TEXT	ENDS
; Function compile flags: /Ogspy
; File C:\Users\jose-remedy\Documents\GitHub\lazyengine\libmath.h
_TEXT	SEGMENT
___$ReturnUdt$ = 8					; size = 4
__width$ = 12						; size = 4
__height$ = 16						; size = 4
__znear$ = 20						; size = 4
__zfar$ = 24						; size = 4
?compute_orthographic_matrix@@YA?AUfloat4x4@@MMMM@Z PROC ; compute_orthographic_matrix

; 188  : float4x4 compute_orthographic_matrix(float _width, float _height, float _znear, float _zfar) {

	push	ebp
	mov	ebp, esp

; 189  : 	float4x4 orthographic_matrix = float4x4(

	fld	DWORD PTR __zfar$[ebp]
	sub	esp, 64					; 00000040H
	fld	DWORD PTR __znear$[ebp]
	fsub	ST(1), ST(0)
	mov	ecx, DWORD PTR ___$ReturnUdt$[ebp]
	fld1
	fst	DWORD PTR [esp+60]
	fxch	ST(1)
	fdiv	ST(0), ST(2)
	fchs
	fstp	DWORD PTR [esp+56]
	fldz
	fst	DWORD PTR [esp+52]
	fst	DWORD PTR [esp+48]
	fst	DWORD PTR [esp+44]
	fxch	ST(1)
	fdivrp	ST(2), ST(0)
	fxch	ST(1)
	fstp	DWORD PTR [esp+40]
	fst	DWORD PTR [esp+36]
	fst	DWORD PTR [esp+32]
	fst	DWORD PTR [esp+28]
	fst	DWORD PTR [esp+24]
	fld	DWORD PTR __real@40000000
	fld	DWORD PTR __height$[ebp]
	fdivr	ST(0), ST(1)
	fstp	DWORD PTR [esp+20]
	fxch	ST(1)
	fst	DWORD PTR [esp+16]
	fst	DWORD PTR [esp+12]
	fst	DWORD PTR [esp+8]
	fstp	DWORD PTR [esp+4]
	fdiv	DWORD PTR __width$[ebp]
	fstp	DWORD PTR [esp]
	call	??0float4x4@@QAE@MMMMMMMMMMMMMMMM@Z	; float4x4::float4x4

; 190  : 										2.0f/_width,	0.0f,	0.0f,	0.0f,
; 191  : 										0.0f,	2.0f/_height,	0.0f,	0.0f,
; 192  : 										0.0f,	0.0f,	1.0f/(_zfar-_znear),	0.0f,
; 193  : 										0.0f,	0.0f,	-_znear/(_zfar-_znear),	1.0f
; 194  : 										);
; 195  : 	return orthographic_matrix;

	mov	eax, DWORD PTR ___$ReturnUdt$[ebp]

; 196  : }

	pop	ebp
	ret	0
?compute_orthographic_matrix@@YA?AUfloat4x4@@MMMM@Z ENDP ; compute_orthographic_matrix
_TEXT	ENDS
; Function compile flags: /Ogspy
; File C:\Users\jose-remedy\Documents\GitHub\lazyengine\libmath.h
_TEXT	SEGMENT
$T1 = -48						; size = 12
$T2 = -48						; size = 12
_newUp$ = -36						; size = 12
_up$ = -36						; size = 12
_right$ = -24						; size = 12
$T3 = -24						; size = 12
_forward$ = -12						; size = 12
___$ReturnUdt$ = 8					; size = 4
__position_camera$ = 12					; size = 12
__view_point$ = 24					; size = 12
?compute_view_matrix@@YA?AUfloat4x4@@Ufloat3@@0@Z PROC	; compute_view_matrix

; 166  : float4x4 compute_view_matrix(float3 _position_camera, float3 _view_point) {

	push	ebp
	mov	ebp, esp
	sub	esp, 48					; 00000030H

; 11   : 	float3(float _x, float _y, float _z) { x = _x; y = _y; z = _z; }

	fldz

; 167  : 
; 168  : 	float3 up = { 0.0f,1.0f,0.0f };
; 169  : 	float3 forward = _view_point - _position_camera;

	lea	eax, DWORD PTR __position_camera$[ebp]
	push	esi
	push	edi
	push	eax

; 11   : 	float3(float _x, float _y, float _z) { x = _x; y = _y; z = _z; }

	fst	DWORD PTR _up$[ebp]
	fld1

; 167  : 
; 168  : 	float3 up = { 0.0f,1.0f,0.0f };
; 169  : 	float3 forward = _view_point - _position_camera;

	lea	eax, DWORD PTR __view_point$[ebp]
	push	eax
	lea	eax, DWORD PTR _forward$[ebp]

; 11   : 	float3(float _x, float _y, float _z) { x = _x; y = _y; z = _z; }

	fstp	DWORD PTR _up$[ebp+4]

; 167  : 
; 168  : 	float3 up = { 0.0f,1.0f,0.0f };
; 169  : 	float3 forward = _view_point - _position_camera;

	push	eax

; 11   : 	float3(float _x, float _y, float _z) { x = _x; y = _y; z = _z; }

	fstp	DWORD PTR _up$[ebp+8]

; 167  : 
; 168  : 	float3 up = { 0.0f,1.0f,0.0f };
; 169  : 	float3 forward = _view_point - _position_camera;

	call	??G@YA?AUfloat3@@AAU0@0@Z		; operator-

; 170  : 	forward = normalize(forward);

	lea	eax, DWORD PTR _forward$[ebp]
	push	eax
	lea	eax, DWORD PTR $T3[ebp]
	push	eax
	call	?normalize@@YA?AUfloat3@@AAU1@@Z	; normalize
	mov	esi, eax
	lea	edi, DWORD PTR _forward$[ebp]

; 171  : 	float3 right = normalize(cross(up, forward));

	lea	eax, DWORD PTR _forward$[ebp]
	push	eax
	lea	eax, DWORD PTR _up$[ebp]
	movsd
	push	eax
	lea	eax, DWORD PTR $T2[ebp]
	push	eax
	movsd
	movsd
	call	?cross@@YA?AUfloat3@@AAU1@0@Z		; cross
	push	eax
	lea	eax, DWORD PTR _right$[ebp]
	push	eax
	call	?normalize@@YA?AUfloat3@@AAU1@@Z	; normalize

; 172  : 	float3 newUp = normalize(cross(forward, right));

	lea	eax, DWORD PTR _right$[ebp]
	push	eax
	lea	eax, DWORD PTR _forward$[ebp]
	push	eax
	lea	eax, DWORD PTR $T1[ebp]
	push	eax
	call	?cross@@YA?AUfloat3@@AAU1@0@Z		; cross
	push	eax
	lea	eax, DWORD PTR _newUp$[ebp]
	push	eax
	call	?normalize@@YA?AUfloat3@@AAU1@@Z	; normalize

; 173  : 
; 174  : 	float aa = -dot(right, _position_camera);
; 175  : 	float bb = -dot(newUp, _position_camera);
; 176  : 	float cc = -dot(forward, _position_camera);
; 177  : 
; 178  : 	float4x4 view_matrix = {

	fld1
	lea	eax, DWORD PTR __position_camera$[ebp]
	add	esp, 56					; 00000038H
	fstp	DWORD PTR [esp]
	push	eax
	lea	eax, DWORD PTR _forward$[ebp]
	push	eax
	call	?dot@@YAMAAUfloat3@@0@Z			; dot
	add	esp, 4
	lea	eax, DWORD PTR __position_camera$[ebp]
	fchs
	fstp	DWORD PTR [esp]
	push	eax
	lea	eax, DWORD PTR _newUp$[ebp]
	push	eax
	call	?dot@@YAMAAUfloat3@@0@Z			; dot
	add	esp, 4
	lea	eax, DWORD PTR __position_camera$[ebp]
	fchs
	fstp	DWORD PTR [esp]
	push	eax
	lea	eax, DWORD PTR _right$[ebp]
	push	eax
	call	?dot@@YAMAAUfloat3@@0@Z			; dot
	fchs
	fstp	DWORD PTR [esp+4]
	fldz
	fst	DWORD PTR [esp]
	fld	DWORD PTR _forward$[ebp+8]
	sub	esp, 44					; 0000002cH
	fstp	DWORD PTR [esp+40]
	fld	DWORD PTR _newUp$[ebp+8]
	fstp	DWORD PTR [esp+36]
	fld	DWORD PTR _right$[ebp+8]
	fstp	DWORD PTR [esp+32]
	fst	DWORD PTR [esp+28]
	fld	DWORD PTR _forward$[ebp+4]
	fstp	DWORD PTR [esp+24]
	fld	DWORD PTR _newUp$[ebp+4]
	mov	ecx, DWORD PTR ___$ReturnUdt$[ebp]
	fstp	DWORD PTR [esp+20]
	fld	DWORD PTR _right$[ebp+4]
	fstp	DWORD PTR [esp+16]
	fstp	DWORD PTR [esp+12]
	fld	DWORD PTR _forward$[ebp]
	fstp	DWORD PTR [esp+8]
	fld	DWORD PTR _newUp$[ebp]
	fstp	DWORD PTR [esp+4]
	fld	DWORD PTR _right$[ebp]
	fstp	DWORD PTR [esp]
	call	??0float4x4@@QAE@MMMMMMMMMMMMMMMM@Z	; float4x4::float4x4

; 179  : 			right.x,    newUp.x,    forward.x,    0.0f,
; 180  : 			right.y,    newUp.y,    forward.y,    0.0f,
; 181  : 			right.z,    newUp.z,    forward.z,    0.0f,
; 182  : 			-dot(right, _position_camera),   -dot(newUp, _position_camera),  -dot(forward, _position_camera),   1.0f
; 183  : 	};
; 184  : 
; 185  : 	return view_matrix;

	mov	eax, DWORD PTR ___$ReturnUdt$[ebp]
	pop	edi
	pop	esi

; 186  : }

	leave
	ret	0
?compute_view_matrix@@YA?AUfloat4x4@@Ufloat3@@0@Z ENDP	; compute_view_matrix
_TEXT	ENDS
; Function compile flags: /Ogspy
; File C:\Users\jose-remedy\Documents\GitHub\lazyengine\libmath.h
_TEXT	SEGMENT
tv568 = -36						; size = 4
$T1 = -32						; size = 16
$T2 = -16						; size = 16
___$ReturnUdt$ = 8					; size = 4
_m1$ = 12						; size = 4
_m2$ = 16						; size = 4
?mul@@YA?AUfloat4x4@@AAU1@0@Z PROC			; mul

; 164  : float4x4 mul(float4x4& m1, float4x4& m2) { float4x4 m = float4x4();  for (int i = 0; i < 4; i++) for (int j = 0; j < 4; j++) m.set(i, j, dot(m1.row(i), m2.column(j))); return m; }

	sub	esp, 36					; 00000024H
	push	ebx
	push	ebp
	mov	ebp, DWORD PTR _m2$[esp+40]

; 92   : 		for (int i = 0; i < 4; i++) for(int j=0;j<4;j++) m[i][j] = 0.0f;

	xor	eax, eax

; 164  : float4x4 mul(float4x4& m1, float4x4& m2) { float4x4 m = float4x4();  for (int i = 0; i < 4; i++) for (int j = 0; j < 4; j++) m.set(i, j, dot(m1.row(i), m2.column(j))); return m; }

	push	esi
	push	edi

; 92   : 		for (int i = 0; i < 4; i++) for(int j=0;j<4;j++) m[i][j] = 0.0f;

	mov	edi, DWORD PTR ___$ReturnUdt$[esp+48]

; 164  : float4x4 mul(float4x4& m1, float4x4& m2) { float4x4 m = float4x4();  for (int i = 0; i < 4; i++) for (int j = 0; j < 4; j++) m.set(i, j, dot(m1.row(i), m2.column(j))); return m; }

	xor	esi, esi

; 92   : 		for (int i = 0; i < 4; i++) for(int j=0;j<4;j++) m[i][j] = 0.0f;

	push	16					; 00000010H
	pop	ecx
	rep stosd

; 164  : float4x4 mul(float4x4& m1, float4x4& m2) { float4x4 m = float4x4();  for (int i = 0; i < 4; i++) for (int j = 0; j < 4; j++) m.set(i, j, dot(m1.row(i), m2.column(j))); return m; }

	mov	edi, DWORD PTR ___$ReturnUdt$[esp+48]
	add	ebp, 32					; 00000020H
	mov	DWORD PTR tv568[esp+52], ebp
$LL4@mul:
	push	4
	mov	ebx, ebp
	pop	ebp
$LL7@mul:

; 14   : 	float x, y, z, w; float4(float _x, float _y, float _z, float _w) { x = _x; y = _y; z = _z; w = _w; }

	fld	DWORD PTR [ebx-32]

; 164  : float4x4 mul(float4x4& m1, float4x4& m2) { float4x4 m = float4x4();  for (int i = 0; i < 4; i++) for (int j = 0; j < 4; j++) m.set(i, j, dot(m1.row(i), m2.column(j))); return m; }

	lea	eax, DWORD PTR $T1[esp+52]
	mov	ecx, DWORD PTR _m1$[esp+48]

; 14   : 	float x, y, z, w; float4(float _x, float _y, float _z, float _w) { x = _x; y = _y; z = _z; w = _w; }

	fstp	DWORD PTR $T1[esp+52]
	fld	DWORD PTR [ebx-16]
	fstp	DWORD PTR $T1[esp+56]
	fld	DWORD PTR [ebx]

; 164  : float4x4 mul(float4x4& m1, float4x4& m2) { float4x4 m = float4x4();  for (int i = 0; i < 4; i++) for (int j = 0; j < 4; j++) m.set(i, j, dot(m1.row(i), m2.column(j))); return m; }

	push	eax

; 14   : 	float x, y, z, w; float4(float _x, float _y, float _z, float _w) { x = _x; y = _y; z = _z; w = _w; }

	fstp	DWORD PTR $T1[esp+64]
	fld	DWORD PTR [ebx+16]

; 164  : float4x4 mul(float4x4& m1, float4x4& m2) { float4x4 m = float4x4();  for (int i = 0; i < 4; i++) for (int j = 0; j < 4; j++) m.set(i, j, dot(m1.row(i), m2.column(j))); return m; }

	lea	eax, DWORD PTR $T2[esp+56]
	push	esi
	push	eax

; 14   : 	float x, y, z, w; float4(float _x, float _y, float _z, float _w) { x = _x; y = _y; z = _z; w = _w; }

	fstp	DWORD PTR $T1[esp+76]

; 164  : float4x4 mul(float4x4& m1, float4x4& m2) { float4x4 m = float4x4();  for (int i = 0; i < 4; i++) for (int j = 0; j < 4; j++) m.set(i, j, dot(m1.row(i), m2.column(j))); return m; }

	call	?row@float4x4@@QAE?AUfloat4@@H@Z	; float4x4::row
	push	eax
	call	?dot@@YAMAAUfloat4@@0@Z			; dot

; 114  : 		m[_row][_column] = _val;

	fstp	DWORD PTR [edi]

; 164  : float4x4 mul(float4x4& m1, float4x4& m2) { float4x4 m = float4x4();  for (int i = 0; i < 4; i++) for (int j = 0; j < 4; j++) m.set(i, j, dot(m1.row(i), m2.column(j))); return m; }

	pop	ecx
	add	ebx, 4
	add	edi, 4
	pop	ecx
	sub	ebp, 1
	jne	SHORT $LL7@mul
	mov	ebp, DWORD PTR tv568[esp+52]
	inc	esi
	cmp	esi, 4
	jl	SHORT $LL4@mul
	mov	eax, DWORD PTR ___$ReturnUdt$[esp+48]
	pop	edi
	pop	esi
	pop	ebp
	pop	ebx
	add	esp, 36					; 00000024H
	ret	0
?mul@@YA?AUfloat4x4@@AAU1@0@Z ENDP			; mul
_TEXT	ENDS
; Function compile flags: /Ogspy
; File C:\Users\jose-remedy\Documents\GitHub\lazyengine\libmath.h
_TEXT	SEGMENT
tv686 = -32						; size = 4
tv689 = -28						; size = 4
$T1 = -24						; size = 12
$T2 = -12						; size = 12
___$ReturnUdt$ = 8					; size = 4
_m1$ = 12						; size = 4
_m2$ = 16						; size = 4
?mul@@YA?AUfloat3x3@@AAU1@0@Z PROC			; mul

; 163  : float3x3 mul(float3x3& m1, float3x3& m2) { float3x3 m = float3x3();  for (int i = 0; i < 3; i++) for (int j = 0; j < 3; j++) m.set(i, j, dot(m1.row(i), m2.column(j))); return m; }

	sub	esp, 32					; 00000020H
	push	ebx
	push	ebp
	push	esi
	mov	esi, DWORD PTR _m1$[esp+40]

; 55   : 		for (int i = 0; i < 3; i++) for (int j = 0; j < 3; j++) m[i][j] = 0.0f;

	xor	eax, eax

; 163  : float3x3 mul(float3x3& m1, float3x3& m2) { float3x3 m = float3x3();  for (int i = 0; i < 3; i++) for (int j = 0; j < 3; j++) m.set(i, j, dot(m1.row(i), m2.column(j))); return m; }

	push	edi

; 55   : 		for (int i = 0; i < 3; i++) for (int j = 0; j < 3; j++) m[i][j] = 0.0f;

	mov	edi, DWORD PTR ___$ReturnUdt$[esp+44]
	push	9
	pop	ecx
	rep stosd
	mov	ecx, DWORD PTR _m2$[esp+44]

; 163  : float3x3 mul(float3x3& m1, float3x3& m2) { float3x3 m = float3x3();  for (int i = 0; i < 3; i++) for (int j = 0; j < 3; j++) m.set(i, j, dot(m1.row(i), m2.column(j))); return m; }

	mov	edi, DWORD PTR ___$ReturnUdt$[esp+44]
	add	ecx, 24					; 00000018H
	push	3
	pop	ebx
	mov	DWORD PTR tv689[esp+48], ecx
	add	esi, 8
	mov	DWORD PTR tv686[esp+48], ebx
$LL4@mul:

; 11   : 	float3(float _x, float _y, float _z) { x = _x; y = _y; z = _z; }

	fld	DWORD PTR [esi-8]

; 163  : float3x3 mul(float3x3& m1, float3x3& m2) { float3x3 m = float3x3();  for (int i = 0; i < 3; i++) for (int j = 0; j < 3; j++) m.set(i, j, dot(m1.row(i), m2.column(j))); return m; }

	mov	ebp, ecx

; 11   : 	float3(float _x, float _y, float _z) { x = _x; y = _y; z = _z; }

	fstp	DWORD PTR $T2[esp+48]
	fld	DWORD PTR [esi-4]
	fstp	DWORD PTR $T2[esp+52]
	fld	DWORD PTR [esi]

; 163  : float3x3 mul(float3x3& m1, float3x3& m2) { float3x3 m = float3x3();  for (int i = 0; i < 3; i++) for (int j = 0; j < 3; j++) m.set(i, j, dot(m1.row(i), m2.column(j))); return m; }

	push	3

; 11   : 	float3(float _x, float _y, float _z) { x = _x; y = _y; z = _z; }

	fstp	DWORD PTR $T2[esp+60]

; 163  : float3x3 mul(float3x3& m1, float3x3& m2) { float3x3 m = float3x3();  for (int i = 0; i < 3; i++) for (int j = 0; j < 3; j++) m.set(i, j, dot(m1.row(i), m2.column(j))); return m; }

	pop	ebx
$LL7@mul:

; 11   : 	float3(float _x, float _y, float _z) { x = _x; y = _y; z = _z; }

	fld	DWORD PTR [ebp-24]

; 163  : float3x3 mul(float3x3& m1, float3x3& m2) { float3x3 m = float3x3();  for (int i = 0; i < 3; i++) for (int j = 0; j < 3; j++) m.set(i, j, dot(m1.row(i), m2.column(j))); return m; }

	lea	eax, DWORD PTR $T1[esp+48]

; 11   : 	float3(float _x, float _y, float _z) { x = _x; y = _y; z = _z; }

	fstp	DWORD PTR $T1[esp+48]
	fld	DWORD PTR [ebp-12]
	fstp	DWORD PTR $T1[esp+52]
	fld	DWORD PTR [ebp]

; 163  : float3x3 mul(float3x3& m1, float3x3& m2) { float3x3 m = float3x3();  for (int i = 0; i < 3; i++) for (int j = 0; j < 3; j++) m.set(i, j, dot(m1.row(i), m2.column(j))); return m; }

	push	eax
	lea	eax, DWORD PTR $T2[esp+52]

; 11   : 	float3(float _x, float _y, float _z) { x = _x; y = _y; z = _z; }

	fstp	DWORD PTR $T1[esp+60]

; 163  : float3x3 mul(float3x3& m1, float3x3& m2) { float3x3 m = float3x3();  for (int i = 0; i < 3; i++) for (int j = 0; j < 3; j++) m.set(i, j, dot(m1.row(i), m2.column(j))); return m; }

	push	eax
	call	?dot@@YAMAAUfloat3@@0@Z			; dot

; 75   : 		m[_row][_column] = _val;

	fstp	DWORD PTR [edi]

; 163  : float3x3 mul(float3x3& m1, float3x3& m2) { float3x3 m = float3x3();  for (int i = 0; i < 3; i++) for (int j = 0; j < 3; j++) m.set(i, j, dot(m1.row(i), m2.column(j))); return m; }

	pop	ecx
	add	ebp, 4
	add	edi, 4
	pop	ecx
	sub	ebx, 1
	jne	SHORT $LL7@mul
	mov	ecx, DWORD PTR tv689[esp+48]
	add	esi, 12					; 0000000cH
	sub	DWORD PTR tv686[esp+48], 1
	jne	SHORT $LL4@mul
	mov	eax, DWORD PTR ___$ReturnUdt$[esp+44]
	pop	edi
	pop	esi
	pop	ebp
	pop	ebx
	add	esp, 32					; 00000020H
	ret	0
?mul@@YA?AUfloat3x3@@AAU1@0@Z ENDP			; mul
_TEXT	ENDS
; Function compile flags: /Ogspy
; File C:\Users\jose-remedy\Documents\GitHub\lazyengine\libmath.h
_TEXT	SEGMENT
tv553 = -20						; size = 4
$T1 = -16						; size = 8
$T2 = -8						; size = 8
___$ReturnUdt$ = 8					; size = 4
_m1$ = 12						; size = 4
_m2$ = 16						; size = 4
?mul@@YA?AUfloat2x2@@AAU1@0@Z PROC			; mul

; 162  : float2x2 mul(float2x2& m1, float2x2& m2) { float2x2 m = float2x2();  for (int i = 0; i < 2; i++) for (int j = 0; j < 2; j++) m.set(i, j, dot(m1.row(i), m2.column(j))); return m; }

	sub	esp, 20					; 00000014H
	push	ebx
	push	ebp
	push	esi
	mov	esi, DWORD PTR _m1$[esp+28]

; 20   : 		for (int i = 0; i < 2; i++) for (int j = 0; j < 2; j++) m[i][j] = 0.0f;

	xor	eax, eax

; 162  : float2x2 mul(float2x2& m1, float2x2& m2) { float2x2 m = float2x2();  for (int i = 0; i < 2; i++) for (int j = 0; j < 2; j++) m.set(i, j, dot(m1.row(i), m2.column(j))); return m; }

	push	edi

; 20   : 		for (int i = 0; i < 2; i++) for (int j = 0; j < 2; j++) m[i][j] = 0.0f;

	mov	edi, DWORD PTR ___$ReturnUdt$[esp+32]

; 162  : float2x2 mul(float2x2& m1, float2x2& m2) { float2x2 m = float2x2();  for (int i = 0; i < 2; i++) for (int j = 0; j < 2; j++) m.set(i, j, dot(m1.row(i), m2.column(j))); return m; }

	push	2
	pop	ebx

; 20   : 		for (int i = 0; i < 2; i++) for (int j = 0; j < 2; j++) m[i][j] = 0.0f;

	stosd
	stosd
	stosd
	stosd

; 162  : float2x2 mul(float2x2& m1, float2x2& m2) { float2x2 m = float2x2();  for (int i = 0; i < 2; i++) for (int j = 0; j < 2; j++) m.set(i, j, dot(m1.row(i), m2.column(j))); return m; }

	mov	eax, DWORD PTR ___$ReturnUdt$[esp+32]
	sub	eax, esi
	mov	DWORD PTR tv553[esp+36], eax
$LL4@mul:

; 7    : 	float x, y; float2(float _x, float _y) { x = _x; y = _y; }

	fld	DWORD PTR [esi]

; 162  : float2x2 mul(float2x2& m1, float2x2& m2) { float2x2 m = float2x2();  for (int i = 0; i < 2; i++) for (int j = 0; j < 2; j++) m.set(i, j, dot(m1.row(i), m2.column(j))); return m; }

	lea	ebp, DWORD PTR [eax+esi]

; 7    : 	float x, y; float2(float _x, float _y) { x = _x; y = _y; }

	fstp	DWORD PTR $T2[esp+36]
	fld	DWORD PTR [esi+4]

; 162  : float2x2 mul(float2x2& m1, float2x2& m2) { float2x2 m = float2x2();  for (int i = 0; i < 2; i++) for (int j = 0; j < 2; j++) m.set(i, j, dot(m1.row(i), m2.column(j))); return m; }

	xor	edi, edi
	mov	esi, DWORD PTR _m2$[esp+32]

; 7    : 	float x, y; float2(float _x, float _y) { x = _x; y = _y; }

	fstp	DWORD PTR $T2[esp+40]
$LL7@mul:
	fld	DWORD PTR [esi+edi*4]

; 162  : float2x2 mul(float2x2& m1, float2x2& m2) { float2x2 m = float2x2();  for (int i = 0; i < 2; i++) for (int j = 0; j < 2; j++) m.set(i, j, dot(m1.row(i), m2.column(j))); return m; }

	lea	eax, DWORD PTR $T1[esp+36]

; 7    : 	float x, y; float2(float _x, float _y) { x = _x; y = _y; }

	fstp	DWORD PTR $T1[esp+36]
	fld	DWORD PTR [esi+edi*4+8]

; 162  : float2x2 mul(float2x2& m1, float2x2& m2) { float2x2 m = float2x2();  for (int i = 0; i < 2; i++) for (int j = 0; j < 2; j++) m.set(i, j, dot(m1.row(i), m2.column(j))); return m; }

	push	eax
	lea	eax, DWORD PTR $T2[esp+40]

; 7    : 	float x, y; float2(float _x, float _y) { x = _x; y = _y; }

	fstp	DWORD PTR $T1[esp+44]

; 162  : float2x2 mul(float2x2& m1, float2x2& m2) { float2x2 m = float2x2();  for (int i = 0; i < 2; i++) for (int j = 0; j < 2; j++) m.set(i, j, dot(m1.row(i), m2.column(j))); return m; }

	push	eax
	call	?dot@@YAMAAUfloat2@@0@Z			; dot

; 38   : 		m[_row][_column] = _val;

	fstp	DWORD PTR [ebp]

; 162  : float2x2 mul(float2x2& m1, float2x2& m2) { float2x2 m = float2x2();  for (int i = 0; i < 2; i++) for (int j = 0; j < 2; j++) m.set(i, j, dot(m1.row(i), m2.column(j))); return m; }

	inc	edi
	add	ebp, 4
	pop	ecx
	pop	ecx
	cmp	edi, 2
	jl	SHORT $LL7@mul
	mov	esi, DWORD PTR _m1$[esp+32]
	mov	eax, DWORD PTR tv553[esp+36]
	add	esi, 8
	mov	DWORD PTR _m1$[esp+32], esi
	sub	ebx, 1
	jne	SHORT $LL4@mul
	mov	eax, DWORD PTR ___$ReturnUdt$[esp+32]
	pop	edi
	pop	esi
	pop	ebp
	pop	ebx
	add	esp, 20					; 00000014H
	ret	0
?mul@@YA?AUfloat2x2@@AAU1@0@Z ENDP			; mul
_TEXT	ENDS
; Function compile flags: /Ogspy
; File C:\Users\jose-remedy\Documents\GitHub\lazyengine\libmath.h
_TEXT	SEGMENT
$T1 = -72						; size = 16
$T2 = -56						; size = 16
$T3 = -40						; size = 16
$T4 = -24						; size = 16
__w$1$ = -8						; size = 4
__z$1$ = -4						; size = 4
___$ReturnUdt$ = 8					; size = 4
__y$1$ = 12						; size = 4
_m$ = 12						; size = 4
_v$ = 16						; size = 4
?mul@@YA?AUfloat4@@AAUfloat4x4@@AAU1@@Z PROC		; mul

; 161  : float4 mul(float4x4& m, float4& v) { return float4(dot(m.row(0), v), dot(m.row(1), v), dot(m.row(2), v), dot(m.row(3), v)); }

	push	ebp
	mov	ebp, esp
	sub	esp, 72					; 00000048H

; 14   : 	float x, y, z, w; float4(float _x, float _y, float _z, float _w) { x = _x; y = _y; z = _z; w = _w; }

	mov	eax, DWORD PTR _m$[ebp]

; 161  : float4 mul(float4x4& m, float4& v) { return float4(dot(m.row(0), v), dot(m.row(1), v), dot(m.row(2), v), dot(m.row(3), v)); }

	push	DWORD PTR _v$[ebp]

; 14   : 	float x, y, z, w; float4(float _x, float _y, float _z, float _w) { x = _x; y = _y; z = _z; w = _w; }

	fld	DWORD PTR [eax+48]
	fstp	DWORD PTR $T2[ebp]
	fld	DWORD PTR [eax+52]
	fstp	DWORD PTR $T2[ebp+4]
	fld	DWORD PTR [eax+56]
	fstp	DWORD PTR $T2[ebp+8]
	fld	DWORD PTR [eax+60]
	fstp	DWORD PTR $T2[ebp+12]
	fld	DWORD PTR [eax+32]
	fstp	DWORD PTR $T3[ebp]
	fld	DWORD PTR [eax+36]
	fstp	DWORD PTR $T3[ebp+4]
	fld	DWORD PTR [eax+40]
	fstp	DWORD PTR $T3[ebp+8]
	fld	DWORD PTR [eax+44]
	fstp	DWORD PTR $T3[ebp+12]
	fld	DWORD PTR [eax+16]
	fstp	DWORD PTR $T4[ebp]
	fld	DWORD PTR [eax+20]
	fstp	DWORD PTR $T4[ebp+4]
	fld	DWORD PTR [eax+24]
	fstp	DWORD PTR $T4[ebp+8]
	fld	DWORD PTR [eax+28]
	fstp	DWORD PTR $T4[ebp+12]
	fld	DWORD PTR [eax]
	fstp	DWORD PTR $T1[ebp]
	fld	DWORD PTR [eax+4]
	fstp	DWORD PTR $T1[ebp+4]
	fld	DWORD PTR [eax+8]
	fstp	DWORD PTR $T1[ebp+8]
	fld	DWORD PTR [eax+12]

; 161  : float4 mul(float4x4& m, float4& v) { return float4(dot(m.row(0), v), dot(m.row(1), v), dot(m.row(2), v), dot(m.row(3), v)); }

	lea	eax, DWORD PTR $T4[ebp]

; 14   : 	float x, y, z, w; float4(float _x, float _y, float _z, float _w) { x = _x; y = _y; z = _z; w = _w; }

	fstp	DWORD PTR $T1[ebp+12]

; 161  : float4 mul(float4x4& m, float4& v) { return float4(dot(m.row(0), v), dot(m.row(1), v), dot(m.row(2), v), dot(m.row(3), v)); }

	push	eax
	call	?dot@@YAMAAUfloat4@@0@Z			; dot
	push	DWORD PTR _v$[ebp]
	lea	eax, DWORD PTR $T3[ebp]
	fstp	DWORD PTR __y$1$[ebp]
	push	eax
	call	?dot@@YAMAAUfloat4@@0@Z			; dot
	push	DWORD PTR _v$[ebp]
	lea	eax, DWORD PTR $T2[ebp]
	fstp	DWORD PTR __z$1$[ebp]
	push	eax
	call	?dot@@YAMAAUfloat4@@0@Z			; dot
	push	DWORD PTR _v$[ebp]
	lea	eax, DWORD PTR $T1[ebp]
	fstp	DWORD PTR __w$1$[ebp]
	push	eax
	call	?dot@@YAMAAUfloat4@@0@Z			; dot

; 14   : 	float x, y, z, w; float4(float _x, float _y, float _z, float _w) { x = _x; y = _y; z = _z; w = _w; }

	mov	eax, DWORD PTR ___$ReturnUdt$[ebp]

; 161  : float4 mul(float4x4& m, float4& v) { return float4(dot(m.row(0), v), dot(m.row(1), v), dot(m.row(2), v), dot(m.row(3), v)); }

	add	esp, 32					; 00000020H

; 14   : 	float x, y, z, w; float4(float _x, float _y, float _z, float _w) { x = _x; y = _y; z = _z; w = _w; }

	fstp	DWORD PTR [eax]
	fld	DWORD PTR __y$1$[ebp]
	fstp	DWORD PTR [eax+4]
	fld	DWORD PTR __z$1$[ebp]
	fstp	DWORD PTR [eax+8]
	fld	DWORD PTR __w$1$[ebp]
	fstp	DWORD PTR [eax+12]

; 161  : float4 mul(float4x4& m, float4& v) { return float4(dot(m.row(0), v), dot(m.row(1), v), dot(m.row(2), v), dot(m.row(3), v)); }

	leave
	ret	0
?mul@@YA?AUfloat4@@AAUfloat4x4@@AAU1@@Z ENDP		; mul
_TEXT	ENDS
; Function compile flags: /Ogspy
; File C:\Users\jose-remedy\Documents\GitHub\lazyengine\libmath.h
_TEXT	SEGMENT
$T1 = -40						; size = 12
$T2 = -28						; size = 12
$T3 = -16						; size = 12
__z$1$ = -4						; size = 4
___$ReturnUdt$ = 8					; size = 4
__y$1$ = 12						; size = 4
_m$ = 12						; size = 4
_v$ = 16						; size = 4
?mul@@YA?AUfloat3@@AAUfloat3x3@@AAU1@@Z PROC		; mul

; 160  : float3 mul(float3x3& m, float3& v) { return float3(dot(m.row(0), v), dot(m.row(1), v), dot(m.row(2), v)); }

	push	ebp
	mov	ebp, esp
	sub	esp, 40					; 00000028H

; 11   : 	float3(float _x, float _y, float _z) { x = _x; y = _y; z = _z; }

	mov	eax, DWORD PTR _m$[ebp]

; 160  : float3 mul(float3x3& m, float3& v) { return float3(dot(m.row(0), v), dot(m.row(1), v), dot(m.row(2), v)); }

	push	DWORD PTR _v$[ebp]

; 11   : 	float3(float _x, float _y, float _z) { x = _x; y = _y; z = _z; }

	fld	DWORD PTR [eax+24]
	fstp	DWORD PTR $T2[ebp]
	fld	DWORD PTR [eax+28]
	fstp	DWORD PTR $T2[ebp+4]
	fld	DWORD PTR [eax+32]
	fstp	DWORD PTR $T2[ebp+8]
	fld	DWORD PTR [eax+12]
	fstp	DWORD PTR $T3[ebp]
	fld	DWORD PTR [eax+16]
	fstp	DWORD PTR $T3[ebp+4]
	fld	DWORD PTR [eax+20]
	fstp	DWORD PTR $T3[ebp+8]
	fld	DWORD PTR [eax]
	fstp	DWORD PTR $T1[ebp]
	fld	DWORD PTR [eax+4]
	fstp	DWORD PTR $T1[ebp+4]
	fld	DWORD PTR [eax+8]

; 160  : float3 mul(float3x3& m, float3& v) { return float3(dot(m.row(0), v), dot(m.row(1), v), dot(m.row(2), v)); }

	lea	eax, DWORD PTR $T3[ebp]

; 11   : 	float3(float _x, float _y, float _z) { x = _x; y = _y; z = _z; }

	fstp	DWORD PTR $T1[ebp+8]

; 160  : float3 mul(float3x3& m, float3& v) { return float3(dot(m.row(0), v), dot(m.row(1), v), dot(m.row(2), v)); }

	push	eax
	call	?dot@@YAMAAUfloat3@@0@Z			; dot
	push	DWORD PTR _v$[ebp]
	lea	eax, DWORD PTR $T2[ebp]
	fstp	DWORD PTR __y$1$[ebp]
	push	eax
	call	?dot@@YAMAAUfloat3@@0@Z			; dot
	push	DWORD PTR _v$[ebp]
	lea	eax, DWORD PTR $T1[ebp]
	fstp	DWORD PTR __z$1$[ebp]
	push	eax
	call	?dot@@YAMAAUfloat3@@0@Z			; dot

; 11   : 	float3(float _x, float _y, float _z) { x = _x; y = _y; z = _z; }

	mov	eax, DWORD PTR ___$ReturnUdt$[ebp]

; 160  : float3 mul(float3x3& m, float3& v) { return float3(dot(m.row(0), v), dot(m.row(1), v), dot(m.row(2), v)); }

	add	esp, 24					; 00000018H

; 11   : 	float3(float _x, float _y, float _z) { x = _x; y = _y; z = _z; }

	fstp	DWORD PTR [eax]
	fld	DWORD PTR __y$1$[ebp]
	fstp	DWORD PTR [eax+4]
	fld	DWORD PTR __z$1$[ebp]
	fstp	DWORD PTR [eax+8]

; 160  : float3 mul(float3x3& m, float3& v) { return float3(dot(m.row(0), v), dot(m.row(1), v), dot(m.row(2), v)); }

	leave
	ret	0
?mul@@YA?AUfloat3@@AAUfloat3x3@@AAU1@@Z ENDP		; mul
_TEXT	ENDS
; Function compile flags: /Ogspy
; File C:\Users\jose-remedy\Documents\GitHub\lazyengine\libmath.h
_TEXT	SEGMENT
$T1 = -16						; size = 8
$T2 = -8						; size = 8
___$ReturnUdt$ = 8					; size = 4
__y$1$ = 12						; size = 4
_m$ = 12						; size = 4
_v$ = 16						; size = 4
?mul@@YA?AUfloat2@@AAUfloat2x2@@AAU1@@Z PROC		; mul

; 159  : float2 mul(float2x2& m, float2& v) { return float2(dot(m.row(0), v), dot(m.row(1), v));}

	push	ebp
	mov	ebp, esp
	sub	esp, 16					; 00000010H

; 7    : 	float x, y; float2(float _x, float _y) { x = _x; y = _y; }

	mov	eax, DWORD PTR _m$[ebp]

; 159  : float2 mul(float2x2& m, float2& v) { return float2(dot(m.row(0), v), dot(m.row(1), v));}

	push	DWORD PTR _v$[ebp]

; 7    : 	float x, y; float2(float _x, float _y) { x = _x; y = _y; }

	fld	DWORD PTR [eax+8]
	fstp	DWORD PTR $T2[ebp]
	fld	DWORD PTR [eax+12]
	fstp	DWORD PTR $T2[ebp+4]
	fld	DWORD PTR [eax]
	fstp	DWORD PTR $T1[ebp]
	fld	DWORD PTR [eax+4]

; 159  : float2 mul(float2x2& m, float2& v) { return float2(dot(m.row(0), v), dot(m.row(1), v));}

	lea	eax, DWORD PTR $T2[ebp]

; 7    : 	float x, y; float2(float _x, float _y) { x = _x; y = _y; }

	fstp	DWORD PTR $T1[ebp+4]

; 159  : float2 mul(float2x2& m, float2& v) { return float2(dot(m.row(0), v), dot(m.row(1), v));}

	push	eax
	call	?dot@@YAMAAUfloat2@@0@Z			; dot
	push	DWORD PTR _v$[ebp]
	lea	eax, DWORD PTR $T1[ebp]
	fstp	DWORD PTR __y$1$[ebp]
	push	eax
	call	?dot@@YAMAAUfloat2@@0@Z			; dot

; 7    : 	float x, y; float2(float _x, float _y) { x = _x; y = _y; }

	mov	eax, DWORD PTR ___$ReturnUdt$[ebp]

; 159  : float2 mul(float2x2& m, float2& v) { return float2(dot(m.row(0), v), dot(m.row(1), v));}

	add	esp, 16					; 00000010H

; 7    : 	float x, y; float2(float _x, float _y) { x = _x; y = _y; }

	fstp	DWORD PTR [eax]
	fld	DWORD PTR __y$1$[ebp]
	fstp	DWORD PTR [eax+4]

; 159  : float2 mul(float2x2& m, float2& v) { return float2(dot(m.row(0), v), dot(m.row(1), v));}

	leave
	ret	0
?mul@@YA?AUfloat2@@AAUfloat2x2@@AAU1@@Z ENDP		; mul
_TEXT	ENDS
; Function compile flags: /Ogspy
; File C:\Users\jose-remedy\Documents\GitHub\lazyengine\libmath.h
_TEXT	SEGMENT
___$ReturnUdt$ = 8					; size = 4
_v$ = 12						; size = 4
?normalize@@YA?AUfloat4@@AAU1@@Z PROC			; normalize

; 157  : float4 normalize(float4& v) { return v/length(v); }

	push	DWORD PTR _v$[esp-4]
	call	?length@@YAMAAUfloat4@@@Z		; length
	fstp	DWORD PTR [esp]
	push	DWORD PTR _v$[esp]
	push	DWORD PTR ___$ReturnUdt$[esp+4]
	call	??K@YA?AUfloat4@@AAU0@M@Z		; operator/
	mov	eax, DWORD PTR ___$ReturnUdt$[esp+8]
	add	esp, 12					; 0000000cH
	ret	0
?normalize@@YA?AUfloat4@@AAU1@@Z ENDP			; normalize
_TEXT	ENDS
; Function compile flags: /Ogspy
; File C:\Users\jose-remedy\Documents\GitHub\lazyengine\libmath.h
_TEXT	SEGMENT
___$ReturnUdt$ = 8					; size = 4
_v$ = 12						; size = 4
?normalize@@YA?AUfloat3@@AAU1@@Z PROC			; normalize

; 156  : float3 normalize(float3& v) { return v/length(v); }

	push	DWORD PTR _v$[esp-4]
	call	?length@@YAMAAUfloat3@@@Z		; length
	fstp	DWORD PTR [esp]
	push	DWORD PTR _v$[esp]
	push	DWORD PTR ___$ReturnUdt$[esp+4]
	call	??K@YA?AUfloat3@@AAU0@M@Z		; operator/
	mov	eax, DWORD PTR ___$ReturnUdt$[esp+8]
	add	esp, 12					; 0000000cH
	ret	0
?normalize@@YA?AUfloat3@@AAU1@@Z ENDP			; normalize
_TEXT	ENDS
; Function compile flags: /Ogspy
; File C:\Users\jose-remedy\Documents\GitHub\lazyengine\libmath.h
_TEXT	SEGMENT
___$ReturnUdt$ = 8					; size = 4
_v$ = 12						; size = 4
?normalize@@YA?AUfloat2@@AAU1@@Z PROC			; normalize

; 155  : float2 normalize(float2& v) { return v/length(v); }

	push	DWORD PTR _v$[esp-4]
	call	?length@@YAMAAUfloat2@@@Z		; length
	fstp	DWORD PTR [esp]
	push	DWORD PTR _v$[esp]
	push	DWORD PTR ___$ReturnUdt$[esp+4]
	call	??K@YA?AUfloat2@@AAU0@M@Z		; operator/
	mov	eax, DWORD PTR ___$ReturnUdt$[esp+8]
	add	esp, 12					; 0000000cH
	ret	0
?normalize@@YA?AUfloat2@@AAU1@@Z ENDP			; normalize
_TEXT	ENDS
; Function compile flags: /Ogspy
; File C:\Users\jose-remedy\Documents\GitHub\lazyengine\libmath.h
_TEXT	SEGMENT
_r$1 = -8						; size = 4
_x$ = -4						; size = 4
_v$ = 8							; size = 4
?length@@YAMAAUfloat4@@@Z PROC				; length

; 154  : float length(float4& v) { return sqrtf(dot(v, v)); }

	push	ebp
	mov	ebp, esp
	push	ecx
	push	ecx
	push	DWORD PTR _v$[ebp]
	push	DWORD PTR _v$[ebp]
	call	?dot@@YAMAAUfloat4@@0@Z			; dot
	pop	ecx
	fstp	DWORD PTR _x$[ebp]
	pop	ecx
	fld	DWORD PTR _x$[ebp]
	fsqrt
	fstp	DWORD PTR _r$1[ebp]
	fld	DWORD PTR _r$1[ebp]
	leave
	ret	0
?length@@YAMAAUfloat4@@@Z ENDP				; length
_TEXT	ENDS
; Function compile flags: /Ogspy
; File C:\Users\jose-remedy\Documents\GitHub\lazyengine\libmath.h
_TEXT	SEGMENT
_r$1 = -8						; size = 4
_x$ = -4						; size = 4
_v$ = 8							; size = 4
?length@@YAMAAUfloat3@@@Z PROC				; length

; 153  : float length(float3& v) { return sqrtf(dot(v, v)); }

	push	ebp
	mov	ebp, esp
	push	ecx
	push	ecx
	push	DWORD PTR _v$[ebp]
	push	DWORD PTR _v$[ebp]
	call	?dot@@YAMAAUfloat3@@0@Z			; dot
	pop	ecx
	fstp	DWORD PTR _x$[ebp]
	pop	ecx
	fld	DWORD PTR _x$[ebp]
	fsqrt
	fstp	DWORD PTR _r$1[ebp]
	fld	DWORD PTR _r$1[ebp]
	leave
	ret	0
?length@@YAMAAUfloat3@@@Z ENDP				; length
_TEXT	ENDS
; Function compile flags: /Ogspy
; File C:\Users\jose-remedy\Documents\GitHub\lazyengine\libmath.h
_TEXT	SEGMENT
_r$1 = -8						; size = 4
_x$ = -4						; size = 4
_v$ = 8							; size = 4
?length@@YAMAAUfloat2@@@Z PROC				; length

; 152  : float length(float2& v) { return sqrtf(dot(v, v)); }

	push	ebp
	mov	ebp, esp
	push	ecx
	push	ecx
	push	DWORD PTR _v$[ebp]
	push	DWORD PTR _v$[ebp]
	call	?dot@@YAMAAUfloat2@@0@Z			; dot
	pop	ecx
	fstp	DWORD PTR _x$[ebp]
	pop	ecx
	fld	DWORD PTR _x$[ebp]
	fsqrt
	fstp	DWORD PTR _r$1[ebp]
	fld	DWORD PTR _r$1[ebp]
	leave
	ret	0
?length@@YAMAAUfloat2@@@Z ENDP				; length
_TEXT	ENDS
; Function compile flags: /Ogspy
; File C:\Users\jose-remedy\Documents\GitHub\lazyengine\libmath.h
_TEXT	SEGMENT
___$ReturnUdt$ = 8					; size = 4
_v1$ = 12						; size = 4
_v2$ = 16						; size = 4
?cross@@YA?AUfloat3@@AAU1@0@Z PROC			; cross

; 151  : float3 cross(float3& v1, float3& v2) { return float3(v1.y * v2.z - v1.z * v2.y, v1.z * v2.x - v1.x * v2.z, v1.x * v2.y - v1.y * v2.x); }

	mov	edx, DWORD PTR _v1$[esp-4]
	mov	eax, DWORD PTR _v2$[esp-4]

; 11   : 	float3(float _x, float _y, float _z) { x = _x; y = _y; z = _z; }

	mov	ecx, DWORD PTR ___$ReturnUdt$[esp-4]

; 151  : float3 cross(float3& v1, float3& v2) { return float3(v1.y * v2.z - v1.z * v2.y, v1.z * v2.x - v1.x * v2.z, v1.x * v2.y - v1.y * v2.x); }

	fld	DWORD PTR [edx+4]
	fld	DWORD PTR [eax+8]
	fld	DWORD PTR [edx+8]
	fld	DWORD PTR [eax+4]
	fld	ST(2)
	fmul	ST(0), ST(4)
	fld	ST(1)
	fmul	ST(0), ST(3)
	fsubp	ST(1), ST(0)

; 11   : 	float3(float _x, float _y, float _z) { x = _x; y = _y; z = _z; }

	fstp	DWORD PTR [ecx]

; 151  : float3 cross(float3& v1, float3& v2) { return float3(v1.y * v2.z - v1.z * v2.y, v1.z * v2.x - v1.x * v2.z, v1.x * v2.y - v1.y * v2.x); }

	fld	DWORD PTR [eax]
	mov	eax, ecx
	fld	DWORD PTR [edx]
	fld	ST(1)
	fmulp	ST(4), ST(0)
	fld	ST(0)
	fmulp	ST(5), ST(0)
	fxch	ST(3)
	fsubrp	ST(4), ST(0)

; 11   : 	float3(float _x, float _y, float _z) { x = _x; y = _y; z = _z; }

	fxch	ST(3)
	fstp	DWORD PTR [ecx+4]

; 151  : float3 cross(float3& v1, float3& v2) { return float3(v1.y * v2.z - v1.z * v2.y, v1.z * v2.x - v1.x * v2.z, v1.x * v2.y - v1.y * v2.x); }

	fmulp	ST(1), ST(0)
	fxch	ST(1)
	fmulp	ST(2), ST(0)
	fsubrp	ST(1), ST(0)

; 11   : 	float3(float _x, float _y, float _z) { x = _x; y = _y; z = _z; }

	fstp	DWORD PTR [ecx+8]

; 151  : float3 cross(float3& v1, float3& v2) { return float3(v1.y * v2.z - v1.z * v2.y, v1.z * v2.x - v1.x * v2.z, v1.x * v2.y - v1.y * v2.x); }

	ret	0
?cross@@YA?AUfloat3@@AAU1@0@Z ENDP			; cross
_TEXT	ENDS
; Function compile flags: /Ogspy
; File C:\Users\jose-remedy\Documents\GitHub\lazyengine\libmath.h
_TEXT	SEGMENT
_v1$ = 8						; size = 4
_v2$ = 12						; size = 4
?dot@@YAMAAUfloat4@@0@Z PROC				; dot

; 150  : float dot(float4& v1, float4& v2) { return v1.x * v2.x + v1.y * v2.y + v1.z*v2.z + v1.w*v2.w; }

	mov	ecx, DWORD PTR _v1$[esp-4]
	mov	eax, DWORD PTR _v2$[esp-4]
	fld	DWORD PTR [ecx+12]
	fmul	DWORD PTR [eax+12]
	fld	DWORD PTR [ecx+8]
	fmul	DWORD PTR [eax+8]
	faddp	ST(1), ST(0)
	fld	DWORD PTR [ecx+4]
	fmul	DWORD PTR [eax+4]
	fld	DWORD PTR [ecx]
	fmul	DWORD PTR [eax]
	faddp	ST(1), ST(0)
	faddp	ST(1), ST(0)
	ret	0
?dot@@YAMAAUfloat4@@0@Z ENDP				; dot
_TEXT	ENDS
; Function compile flags: /Ogspy
; File C:\Users\jose-remedy\Documents\GitHub\lazyengine\libmath.h
_TEXT	SEGMENT
_v1$ = 8						; size = 4
_v2$ = 12						; size = 4
?dot@@YAMAAUfloat3@@0@Z PROC				; dot

; 149  : float dot(float3& v1, float3& v2) { return v1.x * v2.x + v1.y * v2.y + v1.z*v2.z; }

	mov	ecx, DWORD PTR _v1$[esp-4]
	mov	eax, DWORD PTR _v2$[esp-4]
	fld	DWORD PTR [ecx+4]
	fmul	DWORD PTR [eax+4]
	fld	DWORD PTR [ecx]
	fmul	DWORD PTR [eax]
	faddp	ST(1), ST(0)
	fld	DWORD PTR [ecx+8]
	fmul	DWORD PTR [eax+8]
	faddp	ST(1), ST(0)
	ret	0
?dot@@YAMAAUfloat3@@0@Z ENDP				; dot
_TEXT	ENDS
; Function compile flags: /Ogspy
; File C:\Users\jose-remedy\Documents\GitHub\lazyengine\libmath.h
_TEXT	SEGMENT
_v1$ = 8						; size = 4
_v2$ = 12						; size = 4
?dot@@YAMAAUfloat2@@0@Z PROC				; dot

; 148  : float dot(float2& v1, float2& v2) { return v1.x * v2.x + v1.y * v2.y; }

	mov	ecx, DWORD PTR _v1$[esp-4]
	mov	eax, DWORD PTR _v2$[esp-4]
	fld	DWORD PTR [ecx+4]
	fmul	DWORD PTR [eax+4]
	fld	DWORD PTR [ecx]
	fmul	DWORD PTR [eax]
	faddp	ST(1), ST(0)
	ret	0
?dot@@YAMAAUfloat2@@0@Z ENDP				; dot
_TEXT	ENDS
; Function compile flags: /Ogspy
; File C:\Users\jose-remedy\Documents\GitHub\lazyengine\libmath.h
_TEXT	SEGMENT
___$ReturnUdt$ = 8					; size = 4
_f$ = 12						; size = 4
_v$ = 16						; size = 4
??K@YA?AUfloat4@@MAAU0@@Z PROC				; operator/

; 145  : float4 operator/(float f, float4& v) { return float4(f / v.x, f / v.y, f / v.z, f / v.w); }

	mov	ecx, DWORD PTR _v$[esp-4]
	fld	DWORD PTR _f$[esp-4]
	fld	ST(0)

; 14   : 	float x, y, z, w; float4(float _x, float _y, float _z, float _w) { x = _x; y = _y; z = _z; w = _w; }

	mov	eax, DWORD PTR ___$ReturnUdt$[esp-4]

; 145  : float4 operator/(float f, float4& v) { return float4(f / v.x, f / v.y, f / v.z, f / v.w); }

	fdiv	DWORD PTR [ecx]

; 14   : 	float x, y, z, w; float4(float _x, float _y, float _z, float _w) { x = _x; y = _y; z = _z; w = _w; }

	fstp	DWORD PTR [eax]

; 145  : float4 operator/(float f, float4& v) { return float4(f / v.x, f / v.y, f / v.z, f / v.w); }

	fld	ST(0)
	fdiv	DWORD PTR [ecx+4]

; 14   : 	float x, y, z, w; float4(float _x, float _y, float _z, float _w) { x = _x; y = _y; z = _z; w = _w; }

	fstp	DWORD PTR [eax+4]

; 145  : float4 operator/(float f, float4& v) { return float4(f / v.x, f / v.y, f / v.z, f / v.w); }

	fld	ST(0)
	fdiv	DWORD PTR [ecx+8]

; 14   : 	float x, y, z, w; float4(float _x, float _y, float _z, float _w) { x = _x; y = _y; z = _z; w = _w; }

	fstp	DWORD PTR [eax+8]

; 145  : float4 operator/(float f, float4& v) { return float4(f / v.x, f / v.y, f / v.z, f / v.w); }

	fdiv	DWORD PTR [ecx+12]

; 14   : 	float x, y, z, w; float4(float _x, float _y, float _z, float _w) { x = _x; y = _y; z = _z; w = _w; }

	fstp	DWORD PTR [eax+12]

; 145  : float4 operator/(float f, float4& v) { return float4(f / v.x, f / v.y, f / v.z, f / v.w); }

	ret	0
??K@YA?AUfloat4@@MAAU0@@Z ENDP				; operator/
_TEXT	ENDS
; Function compile flags: /Ogspy
; File C:\Users\jose-remedy\Documents\GitHub\lazyengine\libmath.h
_TEXT	SEGMENT
___$ReturnUdt$ = 8					; size = 4
_v$ = 12						; size = 4
_f$ = 16						; size = 4
??K@YA?AUfloat4@@AAU0@M@Z PROC				; operator/

; 144  : float4 operator/(float4& v, float f) { return float4(v.x / f, v.y / f, v.z / f, v.w / f); }

	mov	ecx, DWORD PTR _v$[esp-4]

; 14   : 	float x, y, z, w; float4(float _x, float _y, float _z, float _w) { x = _x; y = _y; z = _z; w = _w; }

	mov	eax, DWORD PTR ___$ReturnUdt$[esp-4]

; 144  : float4 operator/(float4& v, float f) { return float4(v.x / f, v.y / f, v.z / f, v.w / f); }

	fld	DWORD PTR [ecx]
	fld	DWORD PTR _f$[esp-4]
	fdiv	ST(1), ST(0)

; 14   : 	float x, y, z, w; float4(float _x, float _y, float _z, float _w) { x = _x; y = _y; z = _z; w = _w; }

	fxch	ST(1)
	fstp	DWORD PTR [eax]

; 144  : float4 operator/(float4& v, float f) { return float4(v.x / f, v.y / f, v.z / f, v.w / f); }

	fld	DWORD PTR [ecx+4]
	fdiv	ST(0), ST(1)

; 14   : 	float x, y, z, w; float4(float _x, float _y, float _z, float _w) { x = _x; y = _y; z = _z; w = _w; }

	fstp	DWORD PTR [eax+4]

; 144  : float4 operator/(float4& v, float f) { return float4(v.x / f, v.y / f, v.z / f, v.w / f); }

	fld	DWORD PTR [ecx+8]
	fdiv	ST(0), ST(1)

; 14   : 	float x, y, z, w; float4(float _x, float _y, float _z, float _w) { x = _x; y = _y; z = _z; w = _w; }

	fstp	DWORD PTR [eax+8]

; 144  : float4 operator/(float4& v, float f) { return float4(v.x / f, v.y / f, v.z / f, v.w / f); }

	fdivr	DWORD PTR [ecx+12]

; 14   : 	float x, y, z, w; float4(float _x, float _y, float _z, float _w) { x = _x; y = _y; z = _z; w = _w; }

	fstp	DWORD PTR [eax+12]

; 144  : float4 operator/(float4& v, float f) { return float4(v.x / f, v.y / f, v.z / f, v.w / f); }

	ret	0
??K@YA?AUfloat4@@AAU0@M@Z ENDP				; operator/
_TEXT	ENDS
; Function compile flags: /Ogspy
; File C:\Users\jose-remedy\Documents\GitHub\lazyengine\libmath.h
_TEXT	SEGMENT
___$ReturnUdt$ = 8					; size = 4
_f$ = 12						; size = 4
_v$ = 16						; size = 4
??D@YA?AUfloat4@@MAAU0@@Z PROC				; operator*

; 143  : float4 operator*(float f, float4& v) { return float4(v.x * f, v.y * f, v.z * f, v.w * f); }

	mov	ecx, DWORD PTR _v$[esp-4]

; 14   : 	float x, y, z, w; float4(float _x, float _y, float _z, float _w) { x = _x; y = _y; z = _z; w = _w; }

	mov	eax, DWORD PTR ___$ReturnUdt$[esp-4]

; 143  : float4 operator*(float f, float4& v) { return float4(v.x * f, v.y * f, v.z * f, v.w * f); }

	fld	DWORD PTR [ecx]
	fld	DWORD PTR _f$[esp-4]
	fmul	ST(1), ST(0)

; 14   : 	float x, y, z, w; float4(float _x, float _y, float _z, float _w) { x = _x; y = _y; z = _z; w = _w; }

	fxch	ST(1)
	fstp	DWORD PTR [eax]

; 143  : float4 operator*(float f, float4& v) { return float4(v.x * f, v.y * f, v.z * f, v.w * f); }

	fld	DWORD PTR [ecx+4]
	fmul	ST(0), ST(1)

; 14   : 	float x, y, z, w; float4(float _x, float _y, float _z, float _w) { x = _x; y = _y; z = _z; w = _w; }

	fstp	DWORD PTR [eax+4]

; 143  : float4 operator*(float f, float4& v) { return float4(v.x * f, v.y * f, v.z * f, v.w * f); }

	fld	DWORD PTR [ecx+8]
	fmul	ST(0), ST(1)

; 14   : 	float x, y, z, w; float4(float _x, float _y, float _z, float _w) { x = _x; y = _y; z = _z; w = _w; }

	fstp	DWORD PTR [eax+8]

; 143  : float4 operator*(float f, float4& v) { return float4(v.x * f, v.y * f, v.z * f, v.w * f); }

	fmul	DWORD PTR [ecx+12]

; 14   : 	float x, y, z, w; float4(float _x, float _y, float _z, float _w) { x = _x; y = _y; z = _z; w = _w; }

	fstp	DWORD PTR [eax+12]

; 143  : float4 operator*(float f, float4& v) { return float4(v.x * f, v.y * f, v.z * f, v.w * f); }

	ret	0
??D@YA?AUfloat4@@MAAU0@@Z ENDP				; operator*
_TEXT	ENDS
; Function compile flags: /Ogspy
; File C:\Users\jose-remedy\Documents\GitHub\lazyengine\libmath.h
_TEXT	SEGMENT
___$ReturnUdt$ = 8					; size = 4
_v$ = 12						; size = 4
_f$ = 16						; size = 4
??D@YA?AUfloat4@@AAU0@M@Z PROC				; operator*

; 142  : float4 operator*(float4& v, float f) { return float4(v.x * f, v.y * f, v.z * f, v.w * f); }

	mov	ecx, DWORD PTR _v$[esp-4]

; 14   : 	float x, y, z, w; float4(float _x, float _y, float _z, float _w) { x = _x; y = _y; z = _z; w = _w; }

	mov	eax, DWORD PTR ___$ReturnUdt$[esp-4]

; 142  : float4 operator*(float4& v, float f) { return float4(v.x * f, v.y * f, v.z * f, v.w * f); }

	fld	DWORD PTR [ecx]
	fld	DWORD PTR _f$[esp-4]
	fmul	ST(1), ST(0)

; 14   : 	float x, y, z, w; float4(float _x, float _y, float _z, float _w) { x = _x; y = _y; z = _z; w = _w; }

	fxch	ST(1)
	fstp	DWORD PTR [eax]

; 142  : float4 operator*(float4& v, float f) { return float4(v.x * f, v.y * f, v.z * f, v.w * f); }

	fld	DWORD PTR [ecx+4]
	fmul	ST(0), ST(1)

; 14   : 	float x, y, z, w; float4(float _x, float _y, float _z, float _w) { x = _x; y = _y; z = _z; w = _w; }

	fstp	DWORD PTR [eax+4]

; 142  : float4 operator*(float4& v, float f) { return float4(v.x * f, v.y * f, v.z * f, v.w * f); }

	fld	DWORD PTR [ecx+8]
	fmul	ST(0), ST(1)

; 14   : 	float x, y, z, w; float4(float _x, float _y, float _z, float _w) { x = _x; y = _y; z = _z; w = _w; }

	fstp	DWORD PTR [eax+8]

; 142  : float4 operator*(float4& v, float f) { return float4(v.x * f, v.y * f, v.z * f, v.w * f); }

	fmul	DWORD PTR [ecx+12]

; 14   : 	float x, y, z, w; float4(float _x, float _y, float _z, float _w) { x = _x; y = _y; z = _z; w = _w; }

	fstp	DWORD PTR [eax+12]

; 142  : float4 operator*(float4& v, float f) { return float4(v.x * f, v.y * f, v.z * f, v.w * f); }

	ret	0
??D@YA?AUfloat4@@AAU0@M@Z ENDP				; operator*
_TEXT	ENDS
; Function compile flags: /Ogspy
; File C:\Users\jose-remedy\Documents\GitHub\lazyengine\libmath.h
_TEXT	SEGMENT
___$ReturnUdt$ = 8					; size = 4
_v1$ = 12						; size = 4
_v2$ = 16						; size = 4
??G@YA?AUfloat4@@AAU0@0@Z PROC				; operator-

; 141  : float4 operator-(float4& v1, float4& v2) { return float4(v1.x - v2.x, v1.y - v2.y, v1.z - v2.z, v1.w - v2.w); }

	mov	edx, DWORD PTR _v1$[esp-4]
	mov	ecx, DWORD PTR _v2$[esp-4]

; 14   : 	float x, y, z, w; float4(float _x, float _y, float _z, float _w) { x = _x; y = _y; z = _z; w = _w; }

	mov	eax, DWORD PTR ___$ReturnUdt$[esp-4]

; 141  : float4 operator-(float4& v1, float4& v2) { return float4(v1.x - v2.x, v1.y - v2.y, v1.z - v2.z, v1.w - v2.w); }

	fld	DWORD PTR [edx]
	fsub	DWORD PTR [ecx]

; 14   : 	float x, y, z, w; float4(float _x, float _y, float _z, float _w) { x = _x; y = _y; z = _z; w = _w; }

	fstp	DWORD PTR [eax]

; 141  : float4 operator-(float4& v1, float4& v2) { return float4(v1.x - v2.x, v1.y - v2.y, v1.z - v2.z, v1.w - v2.w); }

	fld	DWORD PTR [edx+4]
	fsub	DWORD PTR [ecx+4]

; 14   : 	float x, y, z, w; float4(float _x, float _y, float _z, float _w) { x = _x; y = _y; z = _z; w = _w; }

	fstp	DWORD PTR [eax+4]

; 141  : float4 operator-(float4& v1, float4& v2) { return float4(v1.x - v2.x, v1.y - v2.y, v1.z - v2.z, v1.w - v2.w); }

	fld	DWORD PTR [edx+8]
	fsub	DWORD PTR [ecx+8]

; 14   : 	float x, y, z, w; float4(float _x, float _y, float _z, float _w) { x = _x; y = _y; z = _z; w = _w; }

	fstp	DWORD PTR [eax+8]

; 141  : float4 operator-(float4& v1, float4& v2) { return float4(v1.x - v2.x, v1.y - v2.y, v1.z - v2.z, v1.w - v2.w); }

	fld	DWORD PTR [edx+12]
	fsub	DWORD PTR [ecx+12]

; 14   : 	float x, y, z, w; float4(float _x, float _y, float _z, float _w) { x = _x; y = _y; z = _z; w = _w; }

	fstp	DWORD PTR [eax+12]

; 141  : float4 operator-(float4& v1, float4& v2) { return float4(v1.x - v2.x, v1.y - v2.y, v1.z - v2.z, v1.w - v2.w); }

	ret	0
??G@YA?AUfloat4@@AAU0@0@Z ENDP				; operator-
_TEXT	ENDS
; Function compile flags: /Ogspy
; File C:\Users\jose-remedy\Documents\GitHub\lazyengine\libmath.h
_TEXT	SEGMENT
___$ReturnUdt$ = 8					; size = 4
_v1$ = 12						; size = 4
_v2$ = 16						; size = 4
??H@YA?AUfloat4@@AAU0@0@Z PROC				; operator+

; 140  : float4 operator+(float4& v1, float4& v2) { return float4(v1.x + v2.x, v1.y + v2.y, v1.z+v2.z, v1.w + v2.w); }

	mov	edx, DWORD PTR _v1$[esp-4]
	mov	ecx, DWORD PTR _v2$[esp-4]

; 14   : 	float x, y, z, w; float4(float _x, float _y, float _z, float _w) { x = _x; y = _y; z = _z; w = _w; }

	mov	eax, DWORD PTR ___$ReturnUdt$[esp-4]

; 140  : float4 operator+(float4& v1, float4& v2) { return float4(v1.x + v2.x, v1.y + v2.y, v1.z+v2.z, v1.w + v2.w); }

	fld	DWORD PTR [edx]
	fadd	DWORD PTR [ecx]

; 14   : 	float x, y, z, w; float4(float _x, float _y, float _z, float _w) { x = _x; y = _y; z = _z; w = _w; }

	fstp	DWORD PTR [eax]

; 140  : float4 operator+(float4& v1, float4& v2) { return float4(v1.x + v2.x, v1.y + v2.y, v1.z+v2.z, v1.w + v2.w); }

	fld	DWORD PTR [edx+4]
	fadd	DWORD PTR [ecx+4]

; 14   : 	float x, y, z, w; float4(float _x, float _y, float _z, float _w) { x = _x; y = _y; z = _z; w = _w; }

	fstp	DWORD PTR [eax+4]

; 140  : float4 operator+(float4& v1, float4& v2) { return float4(v1.x + v2.x, v1.y + v2.y, v1.z+v2.z, v1.w + v2.w); }

	fld	DWORD PTR [edx+8]
	fadd	DWORD PTR [ecx+8]

; 14   : 	float x, y, z, w; float4(float _x, float _y, float _z, float _w) { x = _x; y = _y; z = _z; w = _w; }

	fstp	DWORD PTR [eax+8]

; 140  : float4 operator+(float4& v1, float4& v2) { return float4(v1.x + v2.x, v1.y + v2.y, v1.z+v2.z, v1.w + v2.w); }

	fld	DWORD PTR [edx+12]
	fadd	DWORD PTR [ecx+12]

; 14   : 	float x, y, z, w; float4(float _x, float _y, float _z, float _w) { x = _x; y = _y; z = _z; w = _w; }

	fstp	DWORD PTR [eax+12]

; 140  : float4 operator+(float4& v1, float4& v2) { return float4(v1.x + v2.x, v1.y + v2.y, v1.z+v2.z, v1.w + v2.w); }

	ret	0
??H@YA?AUfloat4@@AAU0@0@Z ENDP				; operator+
_TEXT	ENDS
; Function compile flags: /Ogspy
; File C:\Users\jose-remedy\Documents\GitHub\lazyengine\libmath.h
_TEXT	SEGMENT
___$ReturnUdt$ = 8					; size = 4
_f$ = 12						; size = 4
_v$ = 16						; size = 4
??K@YA?AUfloat3@@MAAU0@@Z PROC				; operator/

; 139  : float3 operator/(float f, float3& v) { return float3(f/v.x, f/v.y, f/v.z); }

	mov	ecx, DWORD PTR _v$[esp-4]
	fld	DWORD PTR _f$[esp-4]
	fld	ST(0)

; 11   : 	float3(float _x, float _y, float _z) { x = _x; y = _y; z = _z; }

	mov	eax, DWORD PTR ___$ReturnUdt$[esp-4]

; 139  : float3 operator/(float f, float3& v) { return float3(f/v.x, f/v.y, f/v.z); }

	fdiv	DWORD PTR [ecx]

; 11   : 	float3(float _x, float _y, float _z) { x = _x; y = _y; z = _z; }

	fstp	DWORD PTR [eax]

; 139  : float3 operator/(float f, float3& v) { return float3(f/v.x, f/v.y, f/v.z); }

	fld	ST(0)
	fdiv	DWORD PTR [ecx+4]

; 11   : 	float3(float _x, float _y, float _z) { x = _x; y = _y; z = _z; }

	fstp	DWORD PTR [eax+4]

; 139  : float3 operator/(float f, float3& v) { return float3(f/v.x, f/v.y, f/v.z); }

	fdiv	DWORD PTR [ecx+8]

; 11   : 	float3(float _x, float _y, float _z) { x = _x; y = _y; z = _z; }

	fstp	DWORD PTR [eax+8]

; 139  : float3 operator/(float f, float3& v) { return float3(f/v.x, f/v.y, f/v.z); }

	ret	0
??K@YA?AUfloat3@@MAAU0@@Z ENDP				; operator/
_TEXT	ENDS
; Function compile flags: /Ogspy
; File C:\Users\jose-remedy\Documents\GitHub\lazyengine\libmath.h
_TEXT	SEGMENT
___$ReturnUdt$ = 8					; size = 4
_v$ = 12						; size = 4
_f$ = 16						; size = 4
??K@YA?AUfloat3@@AAU0@M@Z PROC				; operator/

; 138  : float3 operator/(float3& v, float f) { return float3(v.x / f, v.y / f, v.z / f); }

	mov	ecx, DWORD PTR _v$[esp-4]

; 11   : 	float3(float _x, float _y, float _z) { x = _x; y = _y; z = _z; }

	mov	eax, DWORD PTR ___$ReturnUdt$[esp-4]

; 138  : float3 operator/(float3& v, float f) { return float3(v.x / f, v.y / f, v.z / f); }

	fld	DWORD PTR [ecx]
	fld	DWORD PTR _f$[esp-4]
	fdiv	ST(1), ST(0)

; 11   : 	float3(float _x, float _y, float _z) { x = _x; y = _y; z = _z; }

	fxch	ST(1)
	fstp	DWORD PTR [eax]

; 138  : float3 operator/(float3& v, float f) { return float3(v.x / f, v.y / f, v.z / f); }

	fld	DWORD PTR [ecx+4]
	fdiv	ST(0), ST(1)

; 11   : 	float3(float _x, float _y, float _z) { x = _x; y = _y; z = _z; }

	fstp	DWORD PTR [eax+4]

; 138  : float3 operator/(float3& v, float f) { return float3(v.x / f, v.y / f, v.z / f); }

	fdivr	DWORD PTR [ecx+8]

; 11   : 	float3(float _x, float _y, float _z) { x = _x; y = _y; z = _z; }

	fstp	DWORD PTR [eax+8]

; 138  : float3 operator/(float3& v, float f) { return float3(v.x / f, v.y / f, v.z / f); }

	ret	0
??K@YA?AUfloat3@@AAU0@M@Z ENDP				; operator/
_TEXT	ENDS
; Function compile flags: /Ogspy
; File C:\Users\jose-remedy\Documents\GitHub\lazyengine\libmath.h
_TEXT	SEGMENT
___$ReturnUdt$ = 8					; size = 4
_f$ = 12						; size = 4
_v$ = 16						; size = 4
??D@YA?AUfloat3@@MAAU0@@Z PROC				; operator*

; 137  : float3 operator*(float f, float3& v) { return float3(v.x * f, v.y*f,v.z*f); }

	mov	ecx, DWORD PTR _v$[esp-4]

; 11   : 	float3(float _x, float _y, float _z) { x = _x; y = _y; z = _z; }

	mov	eax, DWORD PTR ___$ReturnUdt$[esp-4]

; 137  : float3 operator*(float f, float3& v) { return float3(v.x * f, v.y*f,v.z*f); }

	fld	DWORD PTR [ecx]
	fld	DWORD PTR _f$[esp-4]
	fmul	ST(1), ST(0)

; 11   : 	float3(float _x, float _y, float _z) { x = _x; y = _y; z = _z; }

	fxch	ST(1)
	fstp	DWORD PTR [eax]

; 137  : float3 operator*(float f, float3& v) { return float3(v.x * f, v.y*f,v.z*f); }

	fld	DWORD PTR [ecx+4]
	fmul	ST(0), ST(1)

; 11   : 	float3(float _x, float _y, float _z) { x = _x; y = _y; z = _z; }

	fstp	DWORD PTR [eax+4]

; 137  : float3 operator*(float f, float3& v) { return float3(v.x * f, v.y*f,v.z*f); }

	fmul	DWORD PTR [ecx+8]

; 11   : 	float3(float _x, float _y, float _z) { x = _x; y = _y; z = _z; }

	fstp	DWORD PTR [eax+8]

; 137  : float3 operator*(float f, float3& v) { return float3(v.x * f, v.y*f,v.z*f); }

	ret	0
??D@YA?AUfloat3@@MAAU0@@Z ENDP				; operator*
_TEXT	ENDS
; Function compile flags: /Ogspy
; File C:\Users\jose-remedy\Documents\GitHub\lazyengine\libmath.h
_TEXT	SEGMENT
___$ReturnUdt$ = 8					; size = 4
_v$ = 12						; size = 4
_f$ = 16						; size = 4
??D@YA?AUfloat3@@AAU0@M@Z PROC				; operator*

; 136  : float3 operator*(float3& v, float f) { return float3(v.x * f, v.y*f,v.z*f); }

	mov	ecx, DWORD PTR _v$[esp-4]

; 11   : 	float3(float _x, float _y, float _z) { x = _x; y = _y; z = _z; }

	mov	eax, DWORD PTR ___$ReturnUdt$[esp-4]

; 136  : float3 operator*(float3& v, float f) { return float3(v.x * f, v.y*f,v.z*f); }

	fld	DWORD PTR [ecx]
	fld	DWORD PTR _f$[esp-4]
	fmul	ST(1), ST(0)

; 11   : 	float3(float _x, float _y, float _z) { x = _x; y = _y; z = _z; }

	fxch	ST(1)
	fstp	DWORD PTR [eax]

; 136  : float3 operator*(float3& v, float f) { return float3(v.x * f, v.y*f,v.z*f); }

	fld	DWORD PTR [ecx+4]
	fmul	ST(0), ST(1)

; 11   : 	float3(float _x, float _y, float _z) { x = _x; y = _y; z = _z; }

	fstp	DWORD PTR [eax+4]

; 136  : float3 operator*(float3& v, float f) { return float3(v.x * f, v.y*f,v.z*f); }

	fmul	DWORD PTR [ecx+8]

; 11   : 	float3(float _x, float _y, float _z) { x = _x; y = _y; z = _z; }

	fstp	DWORD PTR [eax+8]

; 136  : float3 operator*(float3& v, float f) { return float3(v.x * f, v.y*f,v.z*f); }

	ret	0
??D@YA?AUfloat3@@AAU0@M@Z ENDP				; operator*
_TEXT	ENDS
; Function compile flags: /Ogspy
; File C:\Users\jose-remedy\Documents\GitHub\lazyengine\libmath.h
_TEXT	SEGMENT
___$ReturnUdt$ = 8					; size = 4
_v1$ = 12						; size = 4
_v2$ = 16						; size = 4
??G@YA?AUfloat3@@AAU0@0@Z PROC				; operator-

; 135  : float3 operator-(float3& v1, float3& v2) { return float3(v1.x - v2.x, v1.y - v2.y, v1.z - v2.z); }

	mov	edx, DWORD PTR _v1$[esp-4]
	mov	ecx, DWORD PTR _v2$[esp-4]

; 11   : 	float3(float _x, float _y, float _z) { x = _x; y = _y; z = _z; }

	mov	eax, DWORD PTR ___$ReturnUdt$[esp-4]

; 135  : float3 operator-(float3& v1, float3& v2) { return float3(v1.x - v2.x, v1.y - v2.y, v1.z - v2.z); }

	fld	DWORD PTR [edx]
	fsub	DWORD PTR [ecx]

; 11   : 	float3(float _x, float _y, float _z) { x = _x; y = _y; z = _z; }

	fstp	DWORD PTR [eax]

; 135  : float3 operator-(float3& v1, float3& v2) { return float3(v1.x - v2.x, v1.y - v2.y, v1.z - v2.z); }

	fld	DWORD PTR [edx+4]
	fsub	DWORD PTR [ecx+4]

; 11   : 	float3(float _x, float _y, float _z) { x = _x; y = _y; z = _z; }

	fstp	DWORD PTR [eax+4]

; 135  : float3 operator-(float3& v1, float3& v2) { return float3(v1.x - v2.x, v1.y - v2.y, v1.z - v2.z); }

	fld	DWORD PTR [edx+8]
	fsub	DWORD PTR [ecx+8]

; 11   : 	float3(float _x, float _y, float _z) { x = _x; y = _y; z = _z; }

	fstp	DWORD PTR [eax+8]

; 135  : float3 operator-(float3& v1, float3& v2) { return float3(v1.x - v2.x, v1.y - v2.y, v1.z - v2.z); }

	ret	0
??G@YA?AUfloat3@@AAU0@0@Z ENDP				; operator-
_TEXT	ENDS
; Function compile flags: /Ogspy
; File C:\Users\jose-remedy\Documents\GitHub\lazyengine\libmath.h
_TEXT	SEGMENT
___$ReturnUdt$ = 8					; size = 4
_v1$ = 12						; size = 4
_v2$ = 16						; size = 4
??H@YA?AUfloat3@@AAU0@0@Z PROC				; operator+

; 134  : float3 operator+(float3& v1, float3& v2) { return float3(v1.x + v2.x, v1.y + v2.y, v1.z + v2.z); }

	mov	edx, DWORD PTR _v1$[esp-4]
	mov	ecx, DWORD PTR _v2$[esp-4]

; 11   : 	float3(float _x, float _y, float _z) { x = _x; y = _y; z = _z; }

	mov	eax, DWORD PTR ___$ReturnUdt$[esp-4]

; 134  : float3 operator+(float3& v1, float3& v2) { return float3(v1.x + v2.x, v1.y + v2.y, v1.z + v2.z); }

	fld	DWORD PTR [edx]
	fadd	DWORD PTR [ecx]

; 11   : 	float3(float _x, float _y, float _z) { x = _x; y = _y; z = _z; }

	fstp	DWORD PTR [eax]

; 134  : float3 operator+(float3& v1, float3& v2) { return float3(v1.x + v2.x, v1.y + v2.y, v1.z + v2.z); }

	fld	DWORD PTR [edx+4]
	fadd	DWORD PTR [ecx+4]

; 11   : 	float3(float _x, float _y, float _z) { x = _x; y = _y; z = _z; }

	fstp	DWORD PTR [eax+4]

; 134  : float3 operator+(float3& v1, float3& v2) { return float3(v1.x + v2.x, v1.y + v2.y, v1.z + v2.z); }

	fld	DWORD PTR [edx+8]
	fadd	DWORD PTR [ecx+8]

; 11   : 	float3(float _x, float _y, float _z) { x = _x; y = _y; z = _z; }

	fstp	DWORD PTR [eax+8]

; 134  : float3 operator+(float3& v1, float3& v2) { return float3(v1.x + v2.x, v1.y + v2.y, v1.z + v2.z); }

	ret	0
??H@YA?AUfloat3@@AAU0@0@Z ENDP				; operator+
_TEXT	ENDS
; Function compile flags: /Ogspy
; File C:\Users\jose-remedy\Documents\GitHub\lazyengine\libmath.h
_TEXT	SEGMENT
___$ReturnUdt$ = 8					; size = 4
_f$ = 12						; size = 4
_v$ = 16						; size = 4
??K@YA?AUfloat2@@MAAU0@@Z PROC				; operator/

; 133  : float2 operator/(float f, float2& v) { return float2(f / v.x, f / v.y); }

	mov	ecx, DWORD PTR _v$[esp-4]
	fld	DWORD PTR _f$[esp-4]
	fld	ST(0)

; 7    : 	float x, y; float2(float _x, float _y) { x = _x; y = _y; }

	mov	eax, DWORD PTR ___$ReturnUdt$[esp-4]

; 133  : float2 operator/(float f, float2& v) { return float2(f / v.x, f / v.y); }

	fdiv	DWORD PTR [ecx]

; 7    : 	float x, y; float2(float _x, float _y) { x = _x; y = _y; }

	fstp	DWORD PTR [eax]

; 133  : float2 operator/(float f, float2& v) { return float2(f / v.x, f / v.y); }

	fdiv	DWORD PTR [ecx+4]

; 7    : 	float x, y; float2(float _x, float _y) { x = _x; y = _y; }

	fstp	DWORD PTR [eax+4]

; 133  : float2 operator/(float f, float2& v) { return float2(f / v.x, f / v.y); }

	ret	0
??K@YA?AUfloat2@@MAAU0@@Z ENDP				; operator/
_TEXT	ENDS
; Function compile flags: /Ogspy
; File C:\Users\jose-remedy\Documents\GitHub\lazyengine\libmath.h
_TEXT	SEGMENT
___$ReturnUdt$ = 8					; size = 4
_v$ = 12						; size = 4
_f$ = 16						; size = 4
??K@YA?AUfloat2@@AAU0@M@Z PROC				; operator/

; 132  : float2 operator/(float2& v, float f) { return float2(v.x / f, v.y / f); }

	mov	ecx, DWORD PTR _v$[esp-4]

; 7    : 	float x, y; float2(float _x, float _y) { x = _x; y = _y; }

	mov	eax, DWORD PTR ___$ReturnUdt$[esp-4]

; 132  : float2 operator/(float2& v, float f) { return float2(v.x / f, v.y / f); }

	fld	DWORD PTR [ecx]
	fld	DWORD PTR _f$[esp-4]
	fdiv	ST(1), ST(0)

; 7    : 	float x, y; float2(float _x, float _y) { x = _x; y = _y; }

	fxch	ST(1)
	fstp	DWORD PTR [eax]

; 132  : float2 operator/(float2& v, float f) { return float2(v.x / f, v.y / f); }

	fdivr	DWORD PTR [ecx+4]

; 7    : 	float x, y; float2(float _x, float _y) { x = _x; y = _y; }

	fstp	DWORD PTR [eax+4]

; 132  : float2 operator/(float2& v, float f) { return float2(v.x / f, v.y / f); }

	ret	0
??K@YA?AUfloat2@@AAU0@M@Z ENDP				; operator/
_TEXT	ENDS
; Function compile flags: /Ogspy
; File C:\Users\jose-remedy\Documents\GitHub\lazyengine\libmath.h
_TEXT	SEGMENT
___$ReturnUdt$ = 8					; size = 4
_f$ = 12						; size = 4
_v$ = 16						; size = 4
??D@YA?AUfloat2@@MAAU0@@Z PROC				; operator*

; 131  : float2 operator*(float f, float2& v) { return float2(v.x * f, v.y * f); }

	mov	ecx, DWORD PTR _v$[esp-4]

; 7    : 	float x, y; float2(float _x, float _y) { x = _x; y = _y; }

	mov	eax, DWORD PTR ___$ReturnUdt$[esp-4]

; 131  : float2 operator*(float f, float2& v) { return float2(v.x * f, v.y * f); }

	fld	DWORD PTR [ecx]
	fld	DWORD PTR _f$[esp-4]
	fmul	ST(1), ST(0)

; 7    : 	float x, y; float2(float _x, float _y) { x = _x; y = _y; }

	fxch	ST(1)
	fstp	DWORD PTR [eax]

; 131  : float2 operator*(float f, float2& v) { return float2(v.x * f, v.y * f); }

	fmul	DWORD PTR [ecx+4]

; 7    : 	float x, y; float2(float _x, float _y) { x = _x; y = _y; }

	fstp	DWORD PTR [eax+4]

; 131  : float2 operator*(float f, float2& v) { return float2(v.x * f, v.y * f); }

	ret	0
??D@YA?AUfloat2@@MAAU0@@Z ENDP				; operator*
_TEXT	ENDS
; Function compile flags: /Ogspy
; File C:\Users\jose-remedy\Documents\GitHub\lazyengine\libmath.h
_TEXT	SEGMENT
___$ReturnUdt$ = 8					; size = 4
_v$ = 12						; size = 4
_f$ = 16						; size = 4
??D@YA?AUfloat2@@AAU0@M@Z PROC				; operator*

; 130  : float2 operator*(float2& v, float f) { return float2(v.x * f, v.y * f); }

	mov	ecx, DWORD PTR _v$[esp-4]

; 7    : 	float x, y; float2(float _x, float _y) { x = _x; y = _y; }

	mov	eax, DWORD PTR ___$ReturnUdt$[esp-4]

; 130  : float2 operator*(float2& v, float f) { return float2(v.x * f, v.y * f); }

	fld	DWORD PTR [ecx]
	fld	DWORD PTR _f$[esp-4]
	fmul	ST(1), ST(0)

; 7    : 	float x, y; float2(float _x, float _y) { x = _x; y = _y; }

	fxch	ST(1)
	fstp	DWORD PTR [eax]

; 130  : float2 operator*(float2& v, float f) { return float2(v.x * f, v.y * f); }

	fmul	DWORD PTR [ecx+4]

; 7    : 	float x, y; float2(float _x, float _y) { x = _x; y = _y; }

	fstp	DWORD PTR [eax+4]

; 130  : float2 operator*(float2& v, float f) { return float2(v.x * f, v.y * f); }

	ret	0
??D@YA?AUfloat2@@AAU0@M@Z ENDP				; operator*
_TEXT	ENDS
; Function compile flags: /Ogspy
; File C:\Users\jose-remedy\Documents\GitHub\lazyengine\libmath.h
_TEXT	SEGMENT
___$ReturnUdt$ = 8					; size = 4
_v1$ = 12						; size = 4
_v2$ = 16						; size = 4
??G@YA?AUfloat2@@AAU0@0@Z PROC				; operator-

; 129  : float2 operator-(float2& v1, float2& v2) { return float2(v1.x - v2.x, v1.y - v2.y); }

	mov	edx, DWORD PTR _v1$[esp-4]
	mov	ecx, DWORD PTR _v2$[esp-4]

; 7    : 	float x, y; float2(float _x, float _y) { x = _x; y = _y; }

	mov	eax, DWORD PTR ___$ReturnUdt$[esp-4]

; 129  : float2 operator-(float2& v1, float2& v2) { return float2(v1.x - v2.x, v1.y - v2.y); }

	fld	DWORD PTR [edx]
	fsub	DWORD PTR [ecx]

; 7    : 	float x, y; float2(float _x, float _y) { x = _x; y = _y; }

	fstp	DWORD PTR [eax]

; 129  : float2 operator-(float2& v1, float2& v2) { return float2(v1.x - v2.x, v1.y - v2.y); }

	fld	DWORD PTR [edx+4]
	fsub	DWORD PTR [ecx+4]

; 7    : 	float x, y; float2(float _x, float _y) { x = _x; y = _y; }

	fstp	DWORD PTR [eax+4]

; 129  : float2 operator-(float2& v1, float2& v2) { return float2(v1.x - v2.x, v1.y - v2.y); }

	ret	0
??G@YA?AUfloat2@@AAU0@0@Z ENDP				; operator-
_TEXT	ENDS
; Function compile flags: /Ogspy
; File C:\Users\jose-remedy\Documents\GitHub\lazyengine\libmath.h
_TEXT	SEGMENT
___$ReturnUdt$ = 8					; size = 4
_v1$ = 12						; size = 4
_v2$ = 16						; size = 4
??H@YA?AUfloat2@@AAU0@0@Z PROC				; operator+

; 128  : float2 operator+(float2& v1, float2& v2) { return float2(v1.x + v2.x, v1.y + v2.y); }

	mov	edx, DWORD PTR _v1$[esp-4]
	mov	ecx, DWORD PTR _v2$[esp-4]

; 7    : 	float x, y; float2(float _x, float _y) { x = _x; y = _y; }

	mov	eax, DWORD PTR ___$ReturnUdt$[esp-4]

; 128  : float2 operator+(float2& v1, float2& v2) { return float2(v1.x + v2.x, v1.y + v2.y); }

	fld	DWORD PTR [edx]
	fadd	DWORD PTR [ecx]

; 7    : 	float x, y; float2(float _x, float _y) { x = _x; y = _y; }

	fstp	DWORD PTR [eax]

; 128  : float2 operator+(float2& v1, float2& v2) { return float2(v1.x + v2.x, v1.y + v2.y); }

	fld	DWORD PTR [edx+4]
	fadd	DWORD PTR [ecx+4]

; 7    : 	float x, y; float2(float _x, float _y) { x = _x; y = _y; }

	fstp	DWORD PTR [eax+4]

; 128  : float2 operator+(float2& v1, float2& v2) { return float2(v1.x + v2.x, v1.y + v2.y); }

	ret	0
??H@YA?AUfloat2@@AAU0@0@Z ENDP				; operator+
_TEXT	ENDS
; Function compile flags: /Ogspy
; File C:\Users\jose-remedy\Documents\GitHub\lazyengine\libmath.h
;	COMDAT ?row@float4x4@@QAE?AUfloat4@@H@Z
_TEXT	SEGMENT
___$ReturnUdt$ = 8					; size = 4
__row$ = 12						; size = 4
?row@float4x4@@QAE?AUfloat4@@H@Z PROC			; float4x4::row, COMDAT
; _this$ = ecx

; 119  : 		return float4(m[_row][0], m[_row][1], m[_row][2], m[_row][3]);

	mov	edx, DWORD PTR __row$[esp-4]

; 14   : 	float x, y, z, w; float4(float _x, float _y, float _z, float _w) { x = _x; y = _y; z = _z; w = _w; }

	mov	eax, DWORD PTR ___$ReturnUdt$[esp-4]

; 119  : 		return float4(m[_row][0], m[_row][1], m[_row][2], m[_row][3]);

	add	edx, edx

; 14   : 	float x, y, z, w; float4(float _x, float _y, float _z, float _w) { x = _x; y = _y; z = _z; w = _w; }

	fld	DWORD PTR [ecx+edx*8]
	fstp	DWORD PTR [eax]
	fld	DWORD PTR [ecx+edx*8+4]
	fstp	DWORD PTR [eax+4]
	fld	DWORD PTR [ecx+edx*8+8]
	fstp	DWORD PTR [eax+8]
	fld	DWORD PTR [ecx+edx*8+12]
	fstp	DWORD PTR [eax+12]

; 120  : 	}

	ret	8
?row@float4x4@@QAE?AUfloat4@@H@Z ENDP			; float4x4::row
_TEXT	ENDS
; Function compile flags: /Ogspy
; File C:\Users\jose-remedy\Documents\GitHub\lazyengine\libmath.h
;	COMDAT ??0float4x4@@QAE@MMMMMMMMMMMMMMMM@Z
_TEXT	SEGMENT
__m00$ = 8						; size = 4
__m01$ = 12						; size = 4
__m02$ = 16						; size = 4
__m03$ = 20						; size = 4
__m10$ = 24						; size = 4
__m11$ = 28						; size = 4
__m12$ = 32						; size = 4
__m13$ = 36						; size = 4
__m20$ = 40						; size = 4
__m21$ = 44						; size = 4
__m22$ = 48						; size = 4
__m23$ = 52						; size = 4
__m30$ = 56						; size = 4
__m31$ = 60						; size = 4
__m32$ = 64						; size = 4
__m33$ = 68						; size = 4
??0float4x4@@QAE@MMMMMMMMMMMMMMMM@Z PROC		; float4x4::float4x4, COMDAT
; _this$ = ecx

; 94   : 	float4x4(

	push	ebp
	mov	ebp, esp

; 95   : 		float _m00, float _m01, float _m02, float _m03,
; 96   : 		float _m10, float _m11, float _m12, float _m13,
; 97   : 		float _m20, float _m21, float _m22, float _m23,
; 98   : 		float _m30, float _m31, float _m32, float _m33
; 99   : 	)
; 100  : 	{
; 101  : 		m[0][0] = _m00; m[0][1] = _m01; m[0][2] = _m02; m[0][3] = _m03;

	fld	DWORD PTR __m00$[ebp]

; 102  : 		m[1][0] = _m10; m[1][1] = _m11; m[1][2] = _m12; m[1][3] = _m13;
; 103  : 		m[2][0] = _m20; m[2][1] = _m21; m[2][2] = _m22; m[2][3] = _m23;
; 104  : 		m[3][0] = _m30; m[3][1] = _m31; m[3][2] = _m32; m[3][3] = _m33;
; 105  : 	}

	mov	eax, ecx
	fstp	DWORD PTR [ecx]
	fld	DWORD PTR __m01$[ebp]
	fstp	DWORD PTR [ecx+4]
	fld	DWORD PTR __m02$[ebp]
	fstp	DWORD PTR [ecx+8]
	fld	DWORD PTR __m03$[ebp]
	fstp	DWORD PTR [ecx+12]
	fld	DWORD PTR __m10$[ebp]
	fstp	DWORD PTR [ecx+16]
	fld	DWORD PTR __m11$[ebp]
	fstp	DWORD PTR [ecx+20]
	fld	DWORD PTR __m12$[ebp]
	fstp	DWORD PTR [ecx+24]
	fld	DWORD PTR __m13$[ebp]
	fstp	DWORD PTR [ecx+28]
	fld	DWORD PTR __m20$[ebp]
	fstp	DWORD PTR [ecx+32]
	fld	DWORD PTR __m21$[ebp]
	fstp	DWORD PTR [ecx+36]
	fld	DWORD PTR __m22$[ebp]
	fstp	DWORD PTR [ecx+40]
	fld	DWORD PTR __m23$[ebp]
	fstp	DWORD PTR [ecx+44]
	fld	DWORD PTR __m30$[ebp]
	fstp	DWORD PTR [ecx+48]
	fld	DWORD PTR __m31$[ebp]
	fstp	DWORD PTR [ecx+52]
	fld	DWORD PTR __m32$[ebp]
	fstp	DWORD PTR [ecx+56]
	fld	DWORD PTR __m33$[ebp]
	fstp	DWORD PTR [ecx+60]
	pop	ebp
	ret	64					; 00000040H
??0float4x4@@QAE@MMMMMMMMMMMMMMMM@Z ENDP		; float4x4::float4x4
_TEXT	ENDS
; Function compile flags: /Ogspy
; File C:\Users\jose-remedy\Documents\GitHub\lazyengine\lib3d.h
_TEXT	SEGMENT
_rendertarget2d$ = 8					; size = 4
_renderdepth2d$ = 12					; size = 4
_uavs$ = 16						; size = 4
_offsetuavs$ = 20					; size = 4
_numuavs$ = 24						; size = 4
?set_renders_and_uavs@lib3d@@YAXPAURenderTarget2D@1@PAURenderDepth2D@1@QAPAUID3D11UnorderedAccessView@@HH@Z PROC ; lib3d::set_renders_and_uavs

; 2295 :         /*
; 2296 :         if (rendertarget2d != nullptr)
; 2297 :         {
; 2298 :             if (renderdepth2d != nullptr)
; 2299 :             {
; 2300 :                 inmediate->OMSetRenderTargetsAndUnorderedAccessViews(1, &rendertarget2d->rtv, renderdepth2d->dsv, offsetuavs, numuavs, uavs, nullptr);
; 2301 :             }
; 2302 :             else
; 2303 :             {
; 2304 :                 inmediate->OMSetRenderTargetsAndUnorderedAccessViews(1, &rendertarget2d->rtv, nullptr, offsetuavs, numuavs, uavs, nullptr);
; 2305 :             }
; 2306 :         }
; 2307 :         else
; 2308 :         {
; 2309 :             if (renderdepth2d != nullptr)
; 2310 :             {
; 2311 :                 inmediate->OMSetRenderTargetsAndUnorderedAccessViews(0, nullptr, renderdepth2d->dsv, offsetuavs, numuavs, uavs, nullptr);
; 2312 :             }
; 2313 :             else
; 2314 :             {
; 2315 :                 inmediate->OMSetRenderTargetsAndUnorderedAccessViews(0, nullptr, nullptr, offsetuavs, numuavs, uavs, nullptr);
; 2316 :             }
; 2317 :         }
; 2318 :         */
; 2319 :     }

	ret	0
?set_renders_and_uavs@lib3d@@YAXPAURenderTarget2D@1@PAURenderDepth2D@1@QAPAUID3D11UnorderedAccessView@@HH@Z ENDP ; lib3d::set_renders_and_uavs
_TEXT	ENDS
; Function compile flags: /Ogspy
; File C:\Users\jose-remedy\Documents\GitHub\lazyengine\lib3d.h
_TEXT	SEGMENT
__vertexcount$ = 8					; size = 4
__instancecount$ = 12					; size = 4
?emit_vertex@lib3d@@YAXHH@Z PROC			; lib3d::emit_vertex

; 2286 :         inmediate->IASetInputLayout(nullptr);

	mov	eax, DWORD PTR ?inmediate@lib3d@@3PAUID3D11DeviceContext@@A ; lib3d::inmediate
	push	esi
	xor	esi, esi
	push	esi
	mov	ecx, DWORD PTR [eax]
	push	eax
	call	DWORD PTR [ecx+68]

; 2287 :         inmediate->IASetVertexBuffers(0, 0, nullptr, 0, 0);

	mov	eax, DWORD PTR ?inmediate@lib3d@@3PAUID3D11DeviceContext@@A ; lib3d::inmediate
	push	esi
	push	esi
	push	esi
	mov	ecx, DWORD PTR [eax]
	push	esi
	push	esi
	push	eax
	call	DWORD PTR [ecx+72]

; 2288 :         inmediate->IASetIndexBuffer(0, DXGI_FORMAT_R32_UINT, 0);

	mov	eax, DWORD PTR ?inmediate@lib3d@@3PAUID3D11DeviceContext@@A ; lib3d::inmediate
	push	esi
	push	42					; 0000002aH
	push	esi
	mov	ecx, DWORD PTR [eax]
	push	eax
	call	DWORD PTR [ecx+76]

; 2289 :         inmediate->IASetPrimitiveTopology(D3D11_PRIMITIVE_TOPOLOGY_POINTLIST);

	mov	eax, DWORD PTR ?inmediate@lib3d@@3PAUID3D11DeviceContext@@A ; lib3d::inmediate
	push	1
	push	eax
	mov	ecx, DWORD PTR [eax]
	call	DWORD PTR [ecx+96]

; 2290 :         inmediate->DrawInstanced(_vertexcount, _instancecount, 0, 0);

	mov	eax, DWORD PTR ?inmediate@lib3d@@3PAUID3D11DeviceContext@@A ; lib3d::inmediate
	push	esi
	push	esi
	push	DWORD PTR __instancecount$[esp+8]
	mov	ecx, DWORD PTR [eax]
	push	DWORD PTR __vertexcount$[esp+12]
	push	eax
	call	DWORD PTR [ecx+84]
	pop	esi

; 2291 :     }

	ret	0
?emit_vertex@lib3d@@YAXHH@Z ENDP			; lib3d::emit_vertex
_TEXT	ENDS
; Function compile flags: /Ogspy
; File C:\Users\jose-remedy\Documents\GitHub\lazyengine\lib3d.h
_TEXT	SEGMENT
?clear_depthstencil@lib3d@@YAXXZ PROC			; lib3d::clear_depthstencil

; 2281 :         inmediate->OMSetDepthStencilState(nullptr, 0);

	mov	eax, DWORD PTR ?inmediate@lib3d@@3PAUID3D11DeviceContext@@A ; lib3d::inmediate
	push	0
	push	0
	push	eax
	mov	ecx, DWORD PTR [eax]
	call	DWORD PTR [ecx+144]

; 2282 :     }

	ret	0
?clear_depthstencil@lib3d@@YAXXZ ENDP			; lib3d::clear_depthstencil
_TEXT	ENDS
; Function compile flags: /Ogspy
; File C:\Users\jose-remedy\Documents\GitHub\lazyengine\lib3d.h
_TEXT	SEGMENT
?clear_blending@lib3d@@YAXXZ PROC			; lib3d::clear_blending

; 2277 :         inmediate->OMSetBlendState(nullptr, nullptr, 0xFFFFFFFF);

	mov	eax, DWORD PTR ?inmediate@lib3d@@3PAUID3D11DeviceContext@@A ; lib3d::inmediate
	push	-1
	push	0
	push	0
	mov	ecx, DWORD PTR [eax]
	push	eax
	call	DWORD PTR [ecx+140]

; 2278 :     }

	ret	0
?clear_blending@lib3d@@YAXXZ ENDP			; lib3d::clear_blending
_TEXT	ENDS
; Function compile flags: /Ogspy
; File C:\Users\jose-remedy\Documents\GitHub\lazyengine\lib3d.h
_TEXT	SEGMENT
__slot$ = 8						; size = 4
?clean_constantbuffers@lib3d@@YAXH@Z PROC		; lib3d::clean_constantbuffers

; 2269 :         inmediate->VSSetConstantBuffers(_slot, 1, &null_buffer);

	mov	eax, DWORD PTR ?inmediate@lib3d@@3PAUID3D11DeviceContext@@A ; lib3d::inmediate
	push	ebx
	mov	ebx, OFFSET ?null_buffer@lib3d@@3PAUID3D11Buffer@@A ; lib3d::null_buffer
	push	ebx
	mov	ecx, DWORD PTR [eax]
	push	1
	push	DWORD PTR __slot$[esp+8]
	push	eax
	call	DWORD PTR [ecx+28]

; 2270 :         inmediate->GSSetConstantBuffers(_slot, 1, &null_buffer);

	mov	eax, DWORD PTR ?inmediate@lib3d@@3PAUID3D11DeviceContext@@A ; lib3d::inmediate
	push	ebx
	push	1
	push	DWORD PTR __slot$[esp+8]
	mov	ecx, DWORD PTR [eax]
	push	eax
	call	DWORD PTR [ecx+88]

; 2271 :         inmediate->PSSetConstantBuffers(_slot, 1, &null_buffer);

	mov	eax, DWORD PTR ?inmediate@lib3d@@3PAUID3D11DeviceContext@@A ; lib3d::inmediate
	push	ebx
	push	1
	push	DWORD PTR __slot$[esp+8]
	mov	ecx, DWORD PTR [eax]
	push	eax
	call	DWORD PTR [ecx+64]

; 2272 :         inmediate->CSSetConstantBuffers(_slot, 1, &null_buffer);

	mov	eax, DWORD PTR ?inmediate@lib3d@@3PAUID3D11DeviceContext@@A ; lib3d::inmediate
	push	ebx
	push	1
	push	DWORD PTR __slot$[esp+8]
	mov	ecx, DWORD PTR [eax]
	push	eax
	call	DWORD PTR [ecx+284]
	pop	ebx

; 2273 :     }

	ret	0
?clean_constantbuffers@lib3d@@YAXH@Z ENDP		; lib3d::clean_constantbuffers
_TEXT	ENDS
; Function compile flags: /Ogspy
; File C:\Users\jose-remedy\Documents\GitHub\lazyengine\lib3d.h
_TEXT	SEGMENT
__slot$ = 8						; size = 4
?clean_uav@lib3d@@YAXH@Z PROC				; lib3d::clean_uav

; 2264 :         inmediate->CSSetUnorderedAccessViews(_slot, 1, &null_uav, nullptr);

	mov	eax, DWORD PTR ?inmediate@lib3d@@3PAUID3D11DeviceContext@@A ; lib3d::inmediate
	push	0
	push	OFFSET ?null_uav@lib3d@@3PAUID3D11UnorderedAccessView@@A ; lib3d::null_uav
	push	1
	push	DWORD PTR __slot$[esp+8]
	mov	ecx, DWORD PTR [eax]
	push	eax
	call	DWORD PTR [ecx+272]

; 2265 :     }

	ret	0
?clean_uav@lib3d@@YAXH@Z ENDP				; lib3d::clean_uav
_TEXT	ENDS
; Function compile flags: /Ogspy
; File C:\Users\jose-remedy\Documents\GitHub\lazyengine\lib3d.h
_TEXT	SEGMENT
__slot$ = 8						; size = 4
?clean_srv@lib3d@@YAXH@Z PROC				; lib3d::clean_srv

; 2257 :         inmediate->VSSetShaderResources(_slot, 1, &null_srv);

	mov	eax, DWORD PTR ?inmediate@lib3d@@3PAUID3D11DeviceContext@@A ; lib3d::inmediate
	push	ebx
	mov	ebx, OFFSET ?null_srv@lib3d@@3PAUID3D11ShaderResourceView@@A ; lib3d::null_srv
	push	ebx
	mov	ecx, DWORD PTR [eax]
	push	1
	push	DWORD PTR __slot$[esp+8]
	push	eax
	call	DWORD PTR [ecx+100]

; 2258 :         inmediate->GSSetShaderResources(_slot, 1, &null_srv);

	mov	eax, DWORD PTR ?inmediate@lib3d@@3PAUID3D11DeviceContext@@A ; lib3d::inmediate
	push	ebx
	push	1
	push	DWORD PTR __slot$[esp+8]
	mov	ecx, DWORD PTR [eax]
	push	eax
	call	DWORD PTR [ecx+124]

; 2259 :         inmediate->PSSetShaderResources(_slot, 1, &null_srv);

	mov	eax, DWORD PTR ?inmediate@lib3d@@3PAUID3D11DeviceContext@@A ; lib3d::inmediate
	push	ebx
	push	1
	push	DWORD PTR __slot$[esp+8]
	mov	ecx, DWORD PTR [eax]
	push	eax
	call	DWORD PTR [ecx+32]

; 2260 :         inmediate->CSSetShaderResources(_slot, 1, &null_srv);

	mov	eax, DWORD PTR ?inmediate@lib3d@@3PAUID3D11DeviceContext@@A ; lib3d::inmediate
	push	ebx
	push	1
	push	DWORD PTR __slot$[esp+8]
	mov	ecx, DWORD PTR [eax]
	push	eax
	call	DWORD PTR [ecx+268]
	pop	ebx

; 2261 :     }

	ret	0
?clean_srv@lib3d@@YAXH@Z ENDP				; lib3d::clean_srv
_TEXT	ENDS
; Function compile flags: /Ogspy
; File C:\Users\jose-remedy\Documents\GitHub\lazyengine\lib3d.h
_TEXT	SEGMENT
_inputlayoutsignature$1 = -192				; size = 4
_vs$2 = -188						; size = 4
_wc$ = -184						; size = 40
_swap_chain_desc$ = -144				; size = 60
_layout$3 = -84						; size = 84
_handle_instance$ = 8					; size = 4
?setup_device@lib3d@@YAXPAUHINSTANCE__@@@Z PROC		; lib3d::setup_device

; 2182 :         {

	sub	esp, 192				; 000000c0H
	push	ebx
	push	ebp
	push	esi
	push	edi

; 2183 :             WIDTH = 960 * 4 / 3; HEIGHT = 540 * 4 / 3;
; 2184 : 
; 2185 :             DXGI_SWAP_CHAIN_DESC swap_chain_desc = {};

	xor	ebx, ebx

; 2186 :             swap_chain_desc.BufferCount = 1;
; 2187 :             swap_chain_desc.BufferDesc.Width = WIDTH;
; 2188 :             swap_chain_desc.BufferDesc.Height = HEIGHT;
; 2189 :             swap_chain_desc.BufferDesc.Format = DXGI_FORMAT_R8G8B8A8_UNORM;

	mov	DWORD PTR _swap_chain_desc$[esp+224], 28 ; 0000001cH

; 2190 :             swap_chain_desc.BufferDesc.RefreshRate.Numerator = 60;
; 2191 :             swap_chain_desc.BufferDesc.RefreshRate.Denominator = 1;
; 2192 :             swap_chain_desc.BufferUsage = DXGI_USAGE_RENDER_TARGET_OUTPUT;
; 2193 :             swap_chain_desc.OutputWindow = 0;
; 2194 :             swap_chain_desc.SampleDesc.Count = 1;
; 2195 :             swap_chain_desc.SampleDesc.Quality = 0;
; 2196 :             swap_chain_desc.Windowed = TRUE;
; 2197 : 
; 2198 :             swap_chain_desc.BufferDesc.ScanlineOrdering = DXGI_MODE_SCANLINE_ORDER_UNSPECIFIED;
; 2199 :             swap_chain_desc.BufferDesc.Scaling = DXGI_MODE_SCALING_UNSPECIFIED;
; 2200 : 
; 2201 :             HICON hIcon = (HICON)LoadImage(NULL, "app.ico", IMAGE_ICON, 0, 0, LR_LOADFROMFILE);

	push	16					; 00000010H
	push	ebx
	push	ebx
	xor	ebp, ebp
	mov	DWORD PTR _swap_chain_desc$[esp+272], ebx
	inc	ebp
	mov	DWORD PTR _swap_chain_desc$[esp+276], ebx
	push	ebp
	mov	ecx, 1280				; 00000500H
	mov	DWORD PTR _swap_chain_desc$[esp+264], ebp
	mov	eax, 720				; 000002d0H
	mov	DWORD PTR ?WIDTH@lib3d@@3HA, ecx
	push	OFFSET ??_C@_07PBPNHGKE@app?4ico@
	push	ebx
	mov	DWORD PTR ?HEIGHT@lib3d@@3HA, eax
	mov	DWORD PTR _swap_chain_desc$[esp+232], ecx
	mov	DWORD PTR _swap_chain_desc$[esp+236], eax
	mov	DWORD PTR _swap_chain_desc$[esp+240], 60 ; 0000003cH
	mov	DWORD PTR _swap_chain_desc$[esp+244], ebp
	mov	DWORD PTR _swap_chain_desc$[esp+268], 32 ; 00000020H
	mov	DWORD PTR _swap_chain_desc$[esp+260], ebp
	mov	DWORD PTR _swap_chain_desc$[esp+264], ebx
	mov	DWORD PTR _swap_chain_desc$[esp+280], ebp
	mov	DWORD PTR _swap_chain_desc$[esp+252], ebx
	mov	DWORD PTR _swap_chain_desc$[esp+256], ebx
	call	DWORD PTR __imp__LoadImageA@24

; 2202 :             WNDCLASS wc = {};
; 2203 :             wc.hInstance = handle_instance;

	mov	esi, DWORD PTR _handle_instance$[esp+204]
	mov	edi, eax

; 2204 :             wc.lpszClassName = "custom_class";
; 2205 :             wc.lpfnWndProc = DefWindowProc;

	mov	eax, DWORD PTR __imp__DefWindowProcA@16
	mov	DWORD PTR _wc$[esp+208], ebx
	mov	DWORD PTR _wc$[esp+216], ebx
	mov	DWORD PTR _wc$[esp+220], ebx
	mov	DWORD PTR _wc$[esp+232], ebx
	mov	DWORD PTR _wc$[esp+240], ebx
	mov	ebx, OFFSET ??_C@_0N@HJANABLK@custom_class@

; 2206 :             wc.hbrBackground = CreateSolidBrush(RGB(0, 0, 0));

	push	0
	mov	DWORD PTR _wc$[esp+228], esi
	mov	DWORD PTR _wc$[esp+248], ebx
	mov	DWORD PTR _wc$[esp+216], eax
	call	DWORD PTR __imp__CreateSolidBrush@4
	mov	DWORD PTR _wc$[esp+236], eax

; 2207 :             wc.hIcon = hIcon;
; 2208 :             RegisterClass(&wc);

	lea	eax, DWORD PTR _wc$[esp+208]
	push	eax
	mov	DWORD PTR _wc$[esp+232], edi
	call	DWORD PTR __imp__RegisterClassA@4

; 2209 : 
; 2210 :             //Get refresh rate screen
; 2211 :             /*
; 2212 :             DEVMODE devMode;
; 2213 :             EnumDisplaySettings(NULL, ENUM_CURRENT_SETTINGS, &devMode);
; 2214 :             int refreshRate = devMode.dmDisplayFrequency;
; 2215 :             */
; 2216 : 
; 2217 :             // Creacin de la ventana
; 2218 :             window = CreateWindowA("custom_class", "lazy[E]ngine", WS_OVERLAPPEDWINDOW | WS_VISIBLE, 0, 0, WIDTH, HEIGHT, 0, 0, handle_instance, 0);

	xor	edi, edi
	push	edi
	push	esi
	push	edi
	push	edi
	push	DWORD PTR ?HEIGHT@lib3d@@3HA
	push	DWORD PTR ?WIDTH@lib3d@@3HA
	push	edi
	push	edi
	push	282001408				; 10cf0000H
	push	OFFSET ??_C@_0N@BHJNMBPJ@lazy?$FLE?$FNngine@
	push	ebx
	push	edi
	call	DWORD PTR __imp__CreateWindowExA@48

; 2219 :             //window = CreateWindowA("edit", "lazy[E]ngine", WS_OVERLAPPED, 0, 0, WIDTH, HEIGHT, 0, 0, handle_instance, 0);
; 2220 : 
; 2221 :             //Block resize window
; 2222 :             SetWindowLong(window, GWL_STYLE, GetWindowLong(window, GWL_STYLE) & ~WS_THICKFRAME);

	push	-16					; fffffff0H
	push	eax
	mov	DWORD PTR ?window@lib3d@@3PAUHWND__@@A, eax ; lib3d::window
	call	DWORD PTR __imp__GetWindowLongA@8
	and	eax, -262145				; fffbffffH
	push	eax
	push	-16					; fffffff0H
	push	DWORD PTR ?window@lib3d@@3PAUHWND__@@A	; lib3d::window
	call	DWORD PTR __imp__SetWindowLongA@12

; 2223 :             SetWindowPos(window, NULL, 0, 0, 0, 0, SWP_NOMOVE | SWP_NOSIZE | SWP_NOZORDER | SWP_FRAMECHANGED);

	push	39					; 00000027H
	push	edi
	push	edi
	push	edi
	push	edi
	push	edi
	push	DWORD PTR ?window@lib3d@@3PAUHWND__@@A	; lib3d::window
	call	DWORD PTR __imp__SetWindowPos@28

; 2224 : 
; 2225 :             ShowCursor(false);

	push	edi
	call	DWORD PTR __imp__ShowCursor@4

; 2226 :             swap_chain_desc.OutputWindow = window;

	mov	eax, DWORD PTR ?window@lib3d@@3PAUHWND__@@A ; lib3d::window

; 2227 : 
; 2228 :             D3D11CreateDeviceAndSwapChain(NULL, D3D_DRIVER_TYPE_HARDWARE, NULL, D3D11_CREATE_DEVICE_DEBUG, 0, 0, D3D11_SDK_VERSION, (DXGI_SWAP_CHAIN_DESC*)&swap_chain_desc, &swapchain, &device, NULL, &inmediate);

	push	OFFSET ?inmediate@lib3d@@3PAUID3D11DeviceContext@@A ; lib3d::inmediate
	push	edi
	push	OFFSET ?device@lib3d@@3PAUID3D11Device@@A ; lib3d::device
	push	OFFSET ?swapchain@lib3d@@3PAUIDXGISwapChain@@A ; lib3d::swapchain
	mov	DWORD PTR _swap_chain_desc$[esp+268], eax
	lea	eax, DWORD PTR _swap_chain_desc$[esp+224]
	push	eax
	push	7
	push	edi
	push	edi
	push	2
	push	edi
	push	ebp
	push	edi
	call	_D3D11CreateDeviceAndSwapChain@48

; 2229 :             //Here we define a common vertex layout for all meshes. Only accepted position (3f), texcoord (2f) and normal (3f)
; 2230 :             //It is possible to extend for other (maybe more general) layouts.
; 2231 :             
; 2232 :             {
; 2233 :                 ID3D11VertexShader* vs = nullptr;
; 2234 :                 ID3DBlob* inputlayoutsignature;
; 2235 :                 D3DCompileFromFile(L"./shaders/inputsignature.hlsl", 0, 0, "main", "vs_5_0", 0, 0, &inputlayoutsignature, nullptr);

	push	edi
	lea	eax, DWORD PTR _inputlayoutsignature$1[esp+212]
	mov	DWORD PTR _vs$2[esp+212], edi
	push	eax
	push	edi
	push	edi
	push	OFFSET ??_C@_06KFINLFAI@vs_5_0@
	push	OFFSET ??_C@_04GHJNJNPO@main@
	push	edi
	push	edi
	push	OFFSET ??_C@_1DM@GDLAFHJP@?$AA?4?$AA?1?$AAs?$AAh?$AAa?$AAd?$AAe?$AAr?$AAs?$AA?1?$AAi?$AAn?$AAp?$AAu?$AAt@
	call	_D3DCompileFromFile@36

; 2236 :                 device->CreateVertexShader((void*)(((int*)inputlayoutsignature)[3]), ((int*)inputlayoutsignature)[2], NULL, &vs);

	mov	ecx, DWORD PTR ?device@lib3d@@3PAUID3D11Device@@A ; lib3d::device
	lea	eax, DWORD PTR _vs$2[esp+208]
	push	eax
	mov	eax, DWORD PTR _inputlayoutsignature$1[esp+212]
	push	edi
	mov	edx, DWORD PTR [ecx]
	push	DWORD PTR [eax+8]
	push	DWORD PTR [eax+12]
	push	ecx
	call	DWORD PTR [edx+48]

; 2237 : 
; 2238 :                 D3D11_INPUT_ELEMENT_DESC layout[3] =
; 2239 :                 {
; 2240 :                      { "POSITION", 0, DXGI_FORMAT_R32G32B32_FLOAT, 0, 0, D3D11_INPUT_PER_VERTEX_DATA, 0 },

	push	6
	pop	eax
	mov	DWORD PTR _layout$3[esp+216], eax

; 2241 :                      { "TEXCOORD", 0, DXGI_FORMAT_R32G32_FLOAT, 0, 12, D3D11_INPUT_PER_VERTEX_DATA, 0 },
; 2242 :                      { "NORMAL", 0, DXGI_FORMAT_R32G32B32_FLOAT, 0, 20, D3D11_INPUT_PER_VERTEX_DATA, 0 }

	mov	DWORD PTR _layout$3[esp+272], eax

; 2243 :                 };
; 2244 : 
; 2245 :                 device->CreateInputLayout(layout, ARRAYSIZE(layout), inputlayoutsignature->GetBufferPointer(), inputlayoutsignature->GetBufferSize(), &common_vertex_layout);

	mov	eax, DWORD PTR ?device@lib3d@@3PAUID3D11Device@@A ; lib3d::device
	mov	DWORD PTR _layout$3[esp+208], OFFSET ??_C@_08JPMAAECC@POSITION@
	mov	DWORD PTR _layout$3[esp+212], edi
	mov	DWORD PTR _layout$3[esp+220], edi
	mov	DWORD PTR _layout$3[esp+224], edi
	mov	DWORD PTR _layout$3[esp+228], edi
	mov	DWORD PTR _layout$3[esp+232], edi
	mov	DWORD PTR _layout$3[esp+236], OFFSET ??_C@_08CMDKBPJM@TEXCOORD@
	mov	DWORD PTR _layout$3[esp+240], edi
	mov	DWORD PTR _layout$3[esp+244], 16	; 00000010H
	mov	DWORD PTR _layout$3[esp+248], edi
	mov	DWORD PTR _layout$3[esp+252], 12	; 0000000cH
	mov	DWORD PTR _layout$3[esp+256], edi
	mov	DWORD PTR _layout$3[esp+260], edi
	mov	DWORD PTR _layout$3[esp+264], OFFSET ??_C@_06IOJAGNKJ@NORMAL@
	mov	DWORD PTR _layout$3[esp+268], edi
	mov	DWORD PTR _layout$3[esp+276], edi
	mov	DWORD PTR _layout$3[esp+280], 20	; 00000014H
	mov	DWORD PTR _layout$3[esp+284], edi
	mov	DWORD PTR _layout$3[esp+288], edi
	mov	esi, DWORD PTR [eax]
	mov	eax, DWORD PTR _inputlayoutsignature$1[esp+208]
	push	OFFSET ?common_vertex_layout@lib3d@@3PAUID3D11InputLayout@@A ; lib3d::common_vertex_layout
	push	eax
	mov	ecx, DWORD PTR [eax]
	call	DWORD PTR [ecx+16]
	push	eax
	mov	eax, DWORD PTR _inputlayoutsignature$1[esp+216]
	push	eax
	mov	ecx, DWORD PTR [eax]
	call	DWORD PTR [ecx+12]
	push	eax
	push	3
	lea	eax, DWORD PTR _layout$3[esp+224]
	push	eax
	push	DWORD PTR ?device@lib3d@@3PAUID3D11Device@@A ; lib3d::device
	call	DWORD PTR [esi+44]

; 2246 :                 UINT numElements = sizeof(layout) / sizeof(layout[0]);
; 2247 :                 common_vertex_layout_stride = 8 * sizeof(float);

	pop	edi
	pop	esi
	pop	ebp
	mov	DWORD PTR ?common_vertex_layout_stride@lib3d@@3IA, 32 ; lib3d::common_vertex_layout_stride, 00000020H
	pop	ebx

; 2248 :             }
; 2249 : 
; 2250 : #ifdef _DEBUG
; 2251 :             QueryPerformanceFrequency(&li_timerfrequency);
; 2252 : #endif // _DEBUG
; 2253 :         }

	add	esp, 192				; 000000c0H
	ret	0
?setup_device@lib3d@@YAXPAUHINSTANCE__@@@Z ENDP		; lib3d::setup_device
_TEXT	ENDS
; Function compile flags: /Ogspy
; File C:\Users\jose-remedy\Documents\GitHub\lazyengine\lib3d.h
;	COMDAT ??0Mesh@lib3d@@QAE@QAMQAHHH@Z
_TEXT	SEGMENT
_initData$ = -72					; size = 12
_indexData$ = -60					; size = 12
_vertexBufferDesc$ = -48				; size = 24
_indexBufferDesc$ = -24					; size = 24
__vertices$ = 8						; size = 4
__indices$ = 12						; size = 4
__vertices_size$ = 16					; size = 4
__indices_size$ = 20					; size = 4
??0Mesh@lib3d@@QAE@QAMQAHHH@Z PROC			; lib3d::Mesh::Mesh, COMDAT
; _this$ = ecx

; 2128 :         Mesh(float _vertices[], int _indices[], int _vertices_size, int _indices_size)

	sub	esp, 72					; 00000048H

; 2129 :         {
; 2130 :             D3D11_BUFFER_DESC vertexBufferDesc = {};
; 2131 :             vertexBufferDesc.Usage = D3D11_USAGE_DEFAULT;
; 2132 :             vertexBufferDesc.ByteWidth = _vertices_size;

	mov	eax, DWORD PTR __vertices_size$[esp+68]

; 2133 :             vertexBufferDesc.BindFlags = D3D11_BIND_VERTEX_BUFFER;
; 2134 : 
; 2135 :             D3D11_SUBRESOURCE_DATA initData = {};
; 2136 :             initData.pSysMem = _vertices;
; 2137 :             device->CreateBuffer(&vertexBufferDesc, &initData, &vertex_buffer);

	lea	edx, DWORD PTR _initData$[esp+72]
	push	ebx
	push	ebp
	mov	ebx, ecx
	mov	DWORD PTR _vertexBufferDesc$[esp+80], eax
	mov	eax, DWORD PTR __vertices$[esp+76]
	xor	ebp, ebp
	push	esi
	push	edi
	mov	DWORD PTR [ebx], ebp
	lea	edi, DWORD PTR [ebx+4]
	mov	DWORD PTR [edi], ebp
	mov	DWORD PTR _initData$[esp+88], eax
	mov	eax, DWORD PTR ?device@lib3d@@3PAUID3D11Device@@A ; lib3d::device
	push	ebx
	push	edx
	mov	DWORD PTR _vertexBufferDesc$[esp+108], ebp
	lea	edx, DWORD PTR _vertexBufferDesc$[esp+96]
	mov	DWORD PTR _vertexBufferDesc$[esp+112], ebp
	mov	DWORD PTR _vertexBufferDesc$[esp+116], ebp
	mov	DWORD PTR _vertexBufferDesc$[esp+100], ebp
	mov	DWORD PTR _vertexBufferDesc$[esp+104], 1
	mov	DWORD PTR _initData$[esp+100], ebp
	mov	DWORD PTR _initData$[esp+104], ebp
	mov	ecx, DWORD PTR [eax]
	push	edx
	push	eax
	call	DWORD PTR [ecx+12]

; 2138 : 
; 2139 :             D3D11_BUFFER_DESC indexBufferDesc = {};
; 2140 :             indexBufferDesc.Usage = D3D11_USAGE_DEFAULT;
; 2141 :             indexBufferDesc.ByteWidth = _indices_size;
; 2142 :             indexBufferDesc.BindFlags = D3D11_BIND_INDEX_BUFFER;
; 2143 : 
; 2144 :             D3D11_SUBRESOURCE_DATA indexData = {};
; 2145 :             indexData.pSysMem = _indices;

	mov	eax, DWORD PTR __indices$[esp+84]

; 2146 :             device->CreateBuffer(&indexBufferDesc, &indexData, &index_buffer);

	lea	edx, DWORD PTR _indexData$[esp+88]
	mov	esi, DWORD PTR __indices_size$[esp+84]
	mov	DWORD PTR _indexData$[esp+88], eax
	mov	eax, DWORD PTR ?device@lib3d@@3PAUID3D11Device@@A ; lib3d::device
	push	edi
	push	edx
	mov	DWORD PTR _indexBufferDesc$[esp+108], ebp
	lea	edx, DWORD PTR _indexBufferDesc$[esp+96]
	mov	DWORD PTR _indexBufferDesc$[esp+112], ebp
	mov	DWORD PTR _indexBufferDesc$[esp+116], ebp
	mov	DWORD PTR _indexBufferDesc$[esp+100], ebp
	mov	DWORD PTR _indexBufferDesc$[esp+96], esi
	mov	DWORD PTR _indexBufferDesc$[esp+104], 2
	mov	DWORD PTR _indexData$[esp+100], ebp
	mov	DWORD PTR _indexData$[esp+104], ebp
	mov	ecx, DWORD PTR [eax]
	push	edx
	push	eax
	call	DWORD PTR [ecx+12]

; 2147 : 
; 2148 :             indices_count = _indices_size / sizeof(int);

	shr	esi, 2

; 2149 : 
; 2150 :             stride = 8 * sizeof(float);
; 2151 :             offset = 0;
; 2152 :         }

	mov	eax, ebx
	pop	edi
	mov	DWORD PTR [ebx+8], esi
	pop	esi
	mov	DWORD PTR [ebx+16], ebp
	pop	ebp
	mov	DWORD PTR [ebx+12], 32			; 00000020H
	pop	ebx
	add	esp, 72					; 00000048H
	ret	16					; 00000010H
??0Mesh@lib3d@@QAE@QAMQAHHH@Z ENDP			; lib3d::Mesh::Mesh
_TEXT	ENDS
; Function compile flags: /Ogspy
; File C:\Users\jose-remedy\Documents\GitHub\lazyengine\lib3d.h
;	COMDAT ??0DepthStencil@lib3d@@QAE@_NW4D3D11_DEPTH_WRITE_MASK@@W4D3D11_COMPARISON_FUNC@@@Z
_TEXT	SEGMENT
_depthstencil_desc$ = -52				; size = 52
__depth_enable$ = 8					; size = 1
__write_mask$ = 12					; size = 4
__comparison_func$ = 16					; size = 4
??0DepthStencil@lib3d@@QAE@_NW4D3D11_DEPTH_WRITE_MASK@@W4D3D11_COMPARISON_FUNC@@@Z PROC ; lib3d::DepthStencil::DepthStencil, COMDAT
; _this$ = ecx

; 2102 :         DepthStencil(bool _depth_enable, D3D11_DEPTH_WRITE_MASK _write_mask, D3D11_COMPARISON_FUNC _comparison_func)

	push	ebp
	mov	ebp, esp
	sub	esp, 52					; 00000034H
	push	esi
	mov	esi, ecx

; 2103 :         {
; 2104 :             D3D11_DEPTH_STENCIL_DESC depthstencil_desc = {};

	lea	eax, DWORD PTR _depthstencil_desc$[ebp]
	push	52					; 00000034H
	push	0
	push	eax
	and	DWORD PTR [esi], 0
	call	_memset

; 2105 :             {
; 2106 :                 depthstencil_desc.DepthEnable = _depth_enable;

	movzx	eax, BYTE PTR __depth_enable$[ebp]

; 2107 :                 depthstencil_desc.DepthWriteMask = _write_mask;
; 2108 :                 depthstencil_desc.DepthFunc = _comparison_func; 
; 2109 :             }
; 2110 : 
; 2111 :             device->CreateDepthStencilState(&depthstencil_desc, &depth_stencil);

	lea	edx, DWORD PTR _depthstencil_desc$[ebp]
	mov	DWORD PTR _depthstencil_desc$[ebp], eax
	add	esp, 12					; 0000000cH
	mov	eax, DWORD PTR __write_mask$[ebp]
	mov	DWORD PTR _depthstencil_desc$[ebp+4], eax
	mov	eax, DWORD PTR __comparison_func$[ebp]
	mov	DWORD PTR _depthstencil_desc$[ebp+8], eax
	mov	eax, DWORD PTR ?device@lib3d@@3PAUID3D11Device@@A ; lib3d::device
	push	esi
	push	edx
	push	eax
	mov	ecx, DWORD PTR [eax]
	call	DWORD PTR [ecx+84]

; 2112 :         }

	mov	eax, esi
	pop	esi
	leave
	ret	12					; 0000000cH
??0DepthStencil@lib3d@@QAE@_NW4D3D11_DEPTH_WRITE_MASK@@W4D3D11_COMPARISON_FUNC@@@Z ENDP ; lib3d::DepthStencil::DepthStencil
_TEXT	ENDS
; Function compile flags: /Ogspy
; File C:\Users\jose-remedy\Documents\GitHub\lazyengine\lib3d.h
;	COMDAT ??0AlphaBlending@lib3d@@QAE@XZ
_TEXT	SEGMENT
_blend_desc$ = -144					; size = 264
??0AlphaBlending@lib3d@@QAE@XZ PROC			; lib3d::AlphaBlending::AlphaBlending, COMDAT
; _this$ = ecx

; 2074 :         AlphaBlending()

	push	ebp
	lea	ebp, DWORD PTR [esp-120]
	sub	esp, 264				; 00000108H
	push	esi
	mov	esi, ecx

; 2075 :         {
; 2076 :             D3D11_BLEND_DESC blend_desc = {};

	lea	eax, DWORD PTR _blend_desc$[ebp]
	push	264					; 00000108H
	push	0
	push	eax
	and	DWORD PTR [esi], 0
	call	_memset

; 2077 :             {
; 2078 :                 blend_desc.RenderTarget[0].BlendEnable = TRUE;

	xor	eax, eax

; 2079 :                 blend_desc.RenderTarget[0].SrcBlend = D3D11_BLEND_SRC_ALPHA;

	mov	DWORD PTR _blend_desc$[ebp+12], 5
	inc	eax

; 2080 :                 blend_desc.RenderTarget[0].DestBlend = D3D11_BLEND_INV_SRC_ALPHA;

	mov	DWORD PTR _blend_desc$[ebp+16], 6
	add	esp, 12					; 0000000cH
	mov	DWORD PTR _blend_desc$[ebp+8], eax

; 2081 :                 blend_desc.RenderTarget[0].BlendOp = D3D11_BLEND_OP_ADD;

	mov	DWORD PTR _blend_desc$[ebp+20], eax

; 2082 :                 blend_desc.RenderTarget[0].SrcBlendAlpha = D3D11_BLEND_ONE;
; 2083 :                 blend_desc.RenderTarget[0].DestBlendAlpha = D3D11_BLEND_ZERO;
; 2084 :                 blend_desc.RenderTarget[0].BlendOpAlpha = D3D11_BLEND_OP_ADD;
; 2085 :                 blend_desc.RenderTarget[0].RenderTargetWriteMask = D3D11_COLOR_WRITE_ENABLE_ALL;
; 2086 :             }
; 2087 :             
; 2088 :             device->CreateBlendState(&blend_desc, &blending);

	lea	edx, DWORD PTR _blend_desc$[ebp]
	mov	DWORD PTR _blend_desc$[ebp+28], eax
	mov	DWORD PTR _blend_desc$[ebp+32], eax
	mov	eax, DWORD PTR ?device@lib3d@@3PAUID3D11Device@@A ; lib3d::device
	push	esi
	mov	DWORD PTR _blend_desc$[ebp+24], 2
	mov	BYTE PTR _blend_desc$[ebp+36], 15	; 0000000fH
	mov	ecx, DWORD PTR [eax]
	push	edx
	push	eax
	call	DWORD PTR [ecx+80]

; 2089 : 
; 2090 :         }

	mov	eax, esi
	pop	esi
	add	ebp, 120				; 00000078H
	leave
	ret	0
??0AlphaBlending@lib3d@@QAE@XZ ENDP			; lib3d::AlphaBlending::AlphaBlending
_TEXT	ENDS
; Function compile flags: /Ogspy
; File C:\Users\jose-remedy\Documents\GitHub\lazyengine\lib3d.h
;	COMDAT ??0Rasterizer@lib3d@@QAE@W4D3D11_FILL_MODE@@W4D3D11_CULL_MODE@@@Z
_TEXT	SEGMENT
_sceneRasterizerDesc$ = -40				; size = 40
__fill_mode$ = 8					; size = 4
__cull_mode$ = 12					; size = 4
??0Rasterizer@lib3d@@QAE@W4D3D11_FILL_MODE@@W4D3D11_CULL_MODE@@@Z PROC ; lib3d::Rasterizer::Rasterizer, COMDAT
; _this$ = ecx

; 2055 :         Rasterizer(D3D11_FILL_MODE _fill_mode, D3D11_CULL_MODE _cull_mode)

	push	ebp
	mov	ebp, esp
	sub	esp, 40					; 00000028H

; 2044 :         ID3D11RasterizerState* rasterizer = nullptr;

	xor	eax, eax

; 2056 :         {
; 2057 :             D3D11_RASTERIZER_DESC sceneRasterizerDesc = {};
; 2058 :             {
; 2059 :                 sceneRasterizerDesc.FillMode = _fill_mode;
; 2060 :                 sceneRasterizerDesc.CullMode = _cull_mode;
; 2061 :             }
; 2062 :             device->CreateRasterizerState(&sceneRasterizerDesc, &rasterizer);

	lea	edx, DWORD PTR _sceneRasterizerDesc$[ebp]
	push	esi
	mov	esi, ecx
	mov	DWORD PTR _sceneRasterizerDesc$[ebp+8], eax
	mov	DWORD PTR _sceneRasterizerDesc$[ebp+12], eax
	mov	DWORD PTR _sceneRasterizerDesc$[ebp+16], eax
	mov	DWORD PTR _sceneRasterizerDesc$[ebp+20], eax
	mov	DWORD PTR [esi], eax
	mov	DWORD PTR _sceneRasterizerDesc$[ebp+24], eax
	mov	DWORD PTR _sceneRasterizerDesc$[ebp+28], eax
	mov	DWORD PTR _sceneRasterizerDesc$[ebp+32], eax
	mov	DWORD PTR _sceneRasterizerDesc$[ebp+36], eax
	mov	eax, DWORD PTR __fill_mode$[ebp]
	mov	DWORD PTR _sceneRasterizerDesc$[ebp], eax
	mov	eax, DWORD PTR __cull_mode$[ebp]
	mov	DWORD PTR _sceneRasterizerDesc$[ebp+4], eax
	mov	eax, DWORD PTR ?device@lib3d@@3PAUID3D11Device@@A ; lib3d::device
	push	esi
	push	edx
	push	eax
	mov	ecx, DWORD PTR [eax]
	call	DWORD PTR [ecx+88]

; 2063 :         }

	mov	eax, esi
	pop	esi
	leave
	ret	8
??0Rasterizer@lib3d@@QAE@W4D3D11_FILL_MODE@@W4D3D11_CULL_MODE@@@Z ENDP ; lib3d::Rasterizer::Rasterizer
_TEXT	ENDS
; Function compile flags: /Ogspy
; File C:\Users\jose-remedy\Documents\GitHub\lazyengine\lib3d.h
;	COMDAT ??0Rasterizer@lib3d@@QAE@XZ
_TEXT	SEGMENT
_sceneRasterizerDesc$ = -40				; size = 40
??0Rasterizer@lib3d@@QAE@XZ PROC			; lib3d::Rasterizer::Rasterizer, COMDAT
; _this$ = ecx

; 2045 :         Rasterizer()

	push	ebp
	mov	ebp, esp
	sub	esp, 40					; 00000028H

; 2044 :         ID3D11RasterizerState* rasterizer = nullptr;

	xor	eax, eax

; 2046 :         {
; 2047 :             D3D11_RASTERIZER_DESC sceneRasterizerDesc = {};
; 2048 :             {
; 2049 :                 sceneRasterizerDesc.FillMode = D3D11_FILL_SOLID;
; 2050 :                 sceneRasterizerDesc.CullMode = D3D11_CULL_BACK;
; 2051 :             }
; 2052 :             device->CreateRasterizerState(&sceneRasterizerDesc, &rasterizer);

	lea	edx, DWORD PTR _sceneRasterizerDesc$[ebp]
	push	esi
	mov	esi, ecx
	mov	DWORD PTR _sceneRasterizerDesc$[ebp+8], eax
	push	3
	mov	DWORD PTR _sceneRasterizerDesc$[ebp+12], eax
	mov	DWORD PTR _sceneRasterizerDesc$[ebp+16], eax
	mov	DWORD PTR [esi], eax
	mov	DWORD PTR _sceneRasterizerDesc$[ebp+20], eax
	mov	DWORD PTR _sceneRasterizerDesc$[ebp+24], eax
	mov	DWORD PTR _sceneRasterizerDesc$[ebp+28], eax
	mov	DWORD PTR _sceneRasterizerDesc$[ebp+32], eax
	mov	DWORD PTR _sceneRasterizerDesc$[ebp+36], eax
	pop	eax
	mov	DWORD PTR _sceneRasterizerDesc$[ebp], eax
	mov	DWORD PTR _sceneRasterizerDesc$[ebp+4], eax
	mov	eax, DWORD PTR ?device@lib3d@@3PAUID3D11Device@@A ; lib3d::device
	push	esi
	push	edx
	push	eax
	mov	ecx, DWORD PTR [eax]
	call	DWORD PTR [ecx+88]

; 2053 :         }

	mov	eax, esi
	pop	esi
	leave
	ret	0
??0Rasterizer@lib3d@@QAE@XZ ENDP			; lib3d::Rasterizer::Rasterizer
_TEXT	ENDS
; Function compile flags: /Ogspy
; File C:\Users\jose-remedy\Documents\GitHub\lazyengine\lib3d.h
;	COMDAT ?attach@ConstantBuffer@lib3d@@QAEXH@Z
_TEXT	SEGMENT
__slot$ = 8						; size = 4
?attach@ConstantBuffer@lib3d@@QAEXH@Z PROC		; lib3d::ConstantBuffer::attach, COMDAT
; _this$ = ecx

; 1720 :             inmediate->VSSetConstantBuffers(_slot, 1, &buffer);

	mov	eax, DWORD PTR ?inmediate@lib3d@@3PAUID3D11DeviceContext@@A ; lib3d::inmediate
	push	edi
	mov	edi, ecx
	push	edi
	mov	edx, DWORD PTR [eax]
	push	1
	push	DWORD PTR __slot$[esp+8]
	push	eax
	call	DWORD PTR [edx+28]

; 1721 :             inmediate->GSSetConstantBuffers(_slot, 1, &buffer);

	mov	eax, DWORD PTR ?inmediate@lib3d@@3PAUID3D11DeviceContext@@A ; lib3d::inmediate
	push	edi
	push	1
	push	DWORD PTR __slot$[esp+8]
	mov	ecx, DWORD PTR [eax]
	push	eax
	call	DWORD PTR [ecx+88]

; 1722 :             inmediate->PSSetConstantBuffers(_slot, 1, &buffer);

	mov	eax, DWORD PTR ?inmediate@lib3d@@3PAUID3D11DeviceContext@@A ; lib3d::inmediate
	push	edi
	push	1
	push	DWORD PTR __slot$[esp+8]
	mov	ecx, DWORD PTR [eax]
	push	eax
	call	DWORD PTR [ecx+64]

; 1723 :             inmediate->CSSetConstantBuffers(_slot, 1, &buffer);

	mov	eax, DWORD PTR ?inmediate@lib3d@@3PAUID3D11DeviceContext@@A ; lib3d::inmediate
	push	edi
	push	1
	push	DWORD PTR __slot$[esp+8]
	mov	ecx, DWORD PTR [eax]
	push	eax
	call	DWORD PTR [ecx+284]
	pop	edi

; 1724 :         }

	ret	4
?attach@ConstantBuffer@lib3d@@QAEXH@Z ENDP		; lib3d::ConstantBuffer::attach
_TEXT	ENDS
; Function compile flags: /Ogspy
; File C:\Users\jose-remedy\Documents\GitHub\lazyengine\lib3d.h
;	COMDAT ??0ConstantBuffer@lib3d@@QAE@H@Z
_TEXT	SEGMENT
_bufferDesc$ = -24					; size = 24
__size$ = 8						; size = 4
??0ConstantBuffer@lib3d@@QAE@H@Z PROC			; lib3d::ConstantBuffer::ConstantBuffer, COMDAT
; _this$ = ecx

; 1703 :         ConstantBuffer(int _size)

	push	ebp
	mov	ebp, esp
	sub	esp, 24					; 00000018H
	push	esi

; 1704 :         {
; 1705 :             D3D11_BUFFER_DESC bufferDesc = {};
; 1706 : 
; 1707 :             bufferDesc.Usage = D3D11_USAGE_DYNAMIC;
; 1708 :             bufferDesc.BindFlags = D3D11_BIND_CONSTANT_BUFFER;
; 1709 :             bufferDesc.CPUAccessFlags = D3D11_CPU_ACCESS_WRITE;
; 1710 : 
; 1711 :             // Complete to 16 bytes. Not very dark-programming way
; 1712 :             bufferDesc.ByteWidth = _size + 0xf & 0xfffffff0;

	mov	esi, DWORD PTR __size$[ebp]
	xor	eax, eax
	push	edi
	mov	edi, ecx
	mov	DWORD PTR _bufferDesc$[ebp+16], eax

; 1713 : 
; 1714 :             device->CreateBuffer(&bufferDesc, nullptr, &buffer);

	push	edi
	lea	ecx, DWORD PTR [esi+15]
	mov	DWORD PTR _bufferDesc$[ebp+20], eax
	and	ecx, -16				; fffffff0H
	mov	DWORD PTR _bufferDesc$[ebp+4], 2
	mov	DWORD PTR [edi+16], eax
	mov	DWORD PTR _bufferDesc$[ebp], ecx
	mov	ecx, DWORD PTR ?device@lib3d@@3PAUID3D11Device@@A ; lib3d::device
	push	eax
	mov	DWORD PTR _bufferDesc$[ebp+8], 4
	lea	eax, DWORD PTR _bufferDesc$[ebp]
	mov	DWORD PTR _bufferDesc$[ebp+12], 65536	; 00010000H
	mov	edx, DWORD PTR [ecx]
	push	eax
	push	ecx
	call	DWORD PTR [edx+12]

; 1715 :             nelements = _size / 16;

	mov	eax, esi
	cdq
	and	edx, 15					; 0000000fH
	add	eax, edx
	sar	eax, 4
	mov	DWORD PTR [edi+16], eax

; 1716 :         }

	mov	eax, edi
	pop	edi
	pop	esi
	leave
	ret	4
??0ConstantBuffer@lib3d@@QAE@H@Z ENDP			; lib3d::ConstantBuffer::ConstantBuffer
_TEXT	ENDS
; Function compile flags: /Ogspy
; File C:\Users\jose-remedy\Documents\GitHub\lazyengine\lib3d.h
;	COMDAT ??0Backbuffer@lib3d@@QAE@XZ
_TEXT	SEGMENT
??0Backbuffer@lib3d@@QAE@XZ PROC			; lib3d::Backbuffer::Backbuffer, COMDAT
; _this$ = ecx

; 1623 :         {
; 1624 :             swapchain->GetBuffer(0, __uuidof(ID3D11Texture2D), (void**)&rendertarget);

	mov	eax, DWORD PTR ?swapchain@lib3d@@3PAUIDXGISwapChain@@A ; lib3d::swapchain
	push	esi
	mov	esi, ecx
	push	esi
	mov	edx, DWORD PTR [eax]
	push	OFFSET __GUID_6f15aaf2_d208_4e89_9ab4_489535d34f9c
	push	0
	push	eax
	call	DWORD PTR [edx+36]

; 1625 :             device->CreateRenderTargetView(rendertarget, nullptr, &rtv);

	mov	ecx, DWORD PTR ?device@lib3d@@3PAUID3D11Device@@A ; lib3d::device
	lea	eax, DWORD PTR [esi+4]
	push	eax
	push	0
	push	DWORD PTR [esi]
	mov	edx, DWORD PTR [ecx]
	push	ecx
	call	DWORD PTR [edx+36]

; 1626 :         }

	mov	eax, esi
	pop	esi
	ret	0
??0Backbuffer@lib3d@@QAE@XZ ENDP			; lib3d::Backbuffer::Backbuffer
_TEXT	ENDS
; Function compile flags: /Ogspy
; File C:\Users\jose-remedy\Documents\GitHub\lazyengine\lib3d.h
;	COMDAT ??0RenderDepth2D@lib3d@@QAE@HH@Z
_TEXT	SEGMENT
_depthDesc$ = -92					; size = 44
_srvdesc$ = -48						; size = 24
_dsvDesc$ = -24						; size = 24
__width$ = 8						; size = 4
__height$ = 12						; size = 4
??0RenderDepth2D@lib3d@@QAE@HH@Z PROC			; lib3d::RenderDepth2D::RenderDepth2D, COMDAT
; _this$ = ecx

; 1408 :         RenderDepth2D(int _width, int _height)

	push	ebp
	mov	ebp, esp
	sub	esp, 92					; 0000005cH

; 1409 :         {
; 1410 :             D3D11_TEXTURE2D_DESC depthDesc = {};
; 1411 :             depthDesc.Width = _width;

	mov	eax, DWORD PTR __width$[ebp]

; 1412 :             depthDesc.Height = _height;
; 1413 :             depthDesc.MipLevels = 1;
; 1414 :             depthDesc.ArraySize = 1;
; 1415 :             depthDesc.Format = DXGI_FORMAT_R32_TYPELESS;
; 1416 :             depthDesc.SampleDesc.Count = 1;
; 1417 :             depthDesc.Usage = D3D11_USAGE_DEFAULT;
; 1418 :             depthDesc.BindFlags = D3D11_BIND_DEPTH_STENCIL | D3D11_BIND_SHADER_RESOURCE;
; 1419 : 
; 1420 :             device->CreateTexture2D(&depthDesc, nullptr, &rendertarget);

	lea	edx, DWORD PTR _depthDesc$[ebp]
	push	ebx
	push	esi
	push	edi
	mov	DWORD PTR _depthDesc$[ebp], eax
	mov	esi, ecx
	mov	eax, DWORD PTR __height$[ebp]
	xor	ebx, ebx
	mov	DWORD PTR _depthDesc$[ebp+4], eax
	xor	edi, edi
	mov	eax, DWORD PTR ?device@lib3d@@3PAUID3D11Device@@A ; lib3d::device
	inc	edi
	push	esi
	push	ebx
	mov	DWORD PTR _depthDesc$[ebp+24], ebx
	mov	DWORD PTR _depthDesc$[ebp+36], ebx
	mov	DWORD PTR _depthDesc$[ebp+40], ebx
	mov	DWORD PTR _depthDesc$[ebp+8], edi
	mov	DWORD PTR _depthDesc$[ebp+12], edi
	mov	DWORD PTR _depthDesc$[ebp+16], 39	; 00000027H
	mov	DWORD PTR _depthDesc$[ebp+20], edi
	mov	DWORD PTR _depthDesc$[ebp+28], ebx
	mov	DWORD PTR _depthDesc$[ebp+32], 72	; 00000048H
	mov	ecx, DWORD PTR [eax]
	push	edx
	push	eax
	call	DWORD PTR [ecx+20]

; 1421 : 
; 1422 :             D3D11_DEPTH_STENCIL_VIEW_DESC dsvDesc = {};
; 1423 :             dsvDesc.Format = DXGI_FORMAT_D32_FLOAT;
; 1424 :             dsvDesc.ViewDimension = D3D11_DSV_DIMENSION_TEXTURE2D;
; 1425 :             device->CreateDepthStencilView(rendertarget, &dsvDesc, &dsv);

	mov	ecx, DWORD PTR ?device@lib3d@@3PAUID3D11Device@@A ; lib3d::device
	lea	eax, DWORD PTR [esi+4]
	push	eax
	lea	eax, DWORD PTR _dsvDesc$[ebp]
	mov	DWORD PTR _dsvDesc$[ebp+8], ebx
	push	eax
	push	DWORD PTR [esi]
	mov	DWORD PTR _dsvDesc$[ebp+12], ebx
	mov	DWORD PTR _dsvDesc$[ebp+16], ebx
	mov	DWORD PTR _dsvDesc$[ebp+20], ebx
	mov	DWORD PTR _dsvDesc$[ebp], 40		; 00000028H
	mov	DWORD PTR _dsvDesc$[ebp+4], 3
	mov	edx, DWORD PTR [ecx]
	push	ecx
	call	DWORD PTR [edx+40]

; 1426 : 
; 1427 :             D3D11_SHADER_RESOURCE_VIEW_DESC srvdesc = {};
; 1428 :             srvdesc.Format = DXGI_FORMAT_R32_FLOAT;
; 1429 :             srvdesc.ViewDimension = D3D11_SRV_DIMENSION_TEXTURE2D;
; 1430 :             srvdesc.Texture2D.MipLevels = 1;
; 1431 :             device->CreateShaderResourceView(rendertarget, &srvdesc, &srv);

	mov	ecx, DWORD PTR ?device@lib3d@@3PAUID3D11Device@@A ; lib3d::device
	lea	eax, DWORD PTR [esi+8]
	push	eax
	lea	eax, DWORD PTR _srvdesc$[ebp]
	mov	DWORD PTR _srvdesc$[ebp+8], ebx
	push	eax
	push	DWORD PTR [esi]
	mov	DWORD PTR _srvdesc$[ebp+16], ebx
	mov	DWORD PTR _srvdesc$[ebp+20], ebx
	mov	DWORD PTR _srvdesc$[ebp], 41		; 00000029H
	mov	DWORD PTR _srvdesc$[ebp+4], 4
	mov	DWORD PTR _srvdesc$[ebp+12], edi
	mov	edx, DWORD PTR [ecx]
	push	ecx
	call	DWORD PTR [edx+28]

; 1432 :             
; 1433 :         }

	pop	edi
	mov	eax, esi
	pop	esi
	pop	ebx
	leave
	ret	8
??0RenderDepth2D@lib3d@@QAE@HH@Z ENDP			; lib3d::RenderDepth2D::RenderDepth2D
_TEXT	ENDS
; Function compile flags: /Ogspy
; File C:\Users\jose-remedy\Documents\GitHub\lazyengine\libmem.h
_TEXT	SEGMENT
_size$ = 8						; size = 4
?allocate_object@@YAPAXI@Z PROC				; allocate_object

; 64   : 	void* ptr = &(static_memory[static_memory_pointer]);

	mov	ecx, DWORD PTR ?static_memory_pointer@@3IA
	lea	eax, DWORD PTR ?static_memory@@3PADA[ecx]

; 65   : 	static_memory_pointer += size;

	add	ecx, DWORD PTR _size$[esp-4]
	mov	DWORD PTR ?static_memory_pointer@@3IA, ecx

; 66   : 	return ptr;
; 67   : }

	ret	0
?allocate_object@@YAPAXI@Z ENDP				; allocate_object
_TEXT	ENDS
END
