; Listing generated by Microsoft (R) Optimizing Compiler Version 19.29.30140.0 

	TITLE	C:\Users\jose-remedy\Documents\GitHub\lazyengine\main.obj
	.686P
	.XMM
	include listing.inc
	.model	flat

INCLUDELIB LIBCMT
INCLUDELIB OLDNAMES

PUBLIC	?window@lib3d@@3PAUHWND__@@A			; lib3d::window
PUBLIC	?device@lib3d@@3PAUID3D11Device@@A		; lib3d::device
PUBLIC	?inmediate@lib3d@@3PAUID3D11DeviceContext@@A	; lib3d::inmediate
PUBLIC	?swapchain@lib3d@@3PAUIDXGISwapChain@@A		; lib3d::swapchain
PUBLIC	?is_focused@lib3d@@3_NA				; lib3d::is_focused
PUBLIC	?quad_vertices@lib3d@@3PAMA			; lib3d::quad_vertices
PUBLIC	?quad_indices@lib3d@@3PAHA			; lib3d::quad_indices
PUBLIC	?cube_vertices@lib3d@@3PAMA			; lib3d::cube_vertices
PUBLIC	?cube_indices@lib3d@@3PAHA			; lib3d::cube_indices
PUBLIC	?sphere_vertices@lib3d@@3PAMA			; lib3d::sphere_vertices
PUBLIC	?sphere_indices@lib3d@@3PAHA			; lib3d::sphere_indices
PUBLIC	?null_srv@lib3d@@3PAUID3D11ShaderResourceView@@A ; lib3d::null_srv
PUBLIC	?null_uav@lib3d@@3PAUID3D11UnorderedAccessView@@A ; lib3d::null_uav
PUBLIC	?null_rtv@lib3d@@3PAUID3D11RenderTargetView@@A	; lib3d::null_rtv
PUBLIC	?null_buffer@lib3d@@3PAUID3D11Buffer@@A		; lib3d::null_buffer
PUBLIC	?common_vertex_layout@lib3d@@3PAUID3D11InputLayout@@A ; lib3d::common_vertex_layout
PUBLIC	?common_vertex_layout_stride@lib3d@@3IA		; lib3d::common_vertex_layout_stride
PUBLIC	?renderdepth2D_list@lib3d@@3PAPAURenderDepth2D@1@A ; lib3d::renderdepth2D_list
PUBLIC	?rendertarget2D_list@lib3d@@3PAPAURenderTarget2D@1@A ; lib3d::rendertarget2D_list
PUBLIC	?rendertarget3D_list@lib3d@@3PAPAURenderTarget3D@1@A ; lib3d::rendertarget3D_list
PUBLIC	?buffer_list@lib3d@@3PAPAUBuffer@1@A		; lib3d::buffer_list
PUBLIC	?constantbuffer_list@lib3d@@3PAPAUConstantBuffer@1@A ; lib3d::constantbuffer_list
PUBLIC	?fx_list@lib3d@@3PAPAUFX@1@A			; lib3d::fx_list
PUBLIC	?computefx_list@lib3d@@3PAPAUComputeFX@1@A	; lib3d::computefx_list
PUBLIC	?mesh_list@lib3d@@3PAPAUMesh@1@A		; lib3d::mesh_list
PUBLIC	?BACKGROUND_COL@@3PAMA				; BACKGROUND_COL
PUBLIC	?gcb@@3PAUGlobalConstantsBuffer@@A		; gcb
PUBLIC	?tb@@3PAUTransformBuffer@@A			; tb
PUBLIC	?cdb@@3PAUCustomDataBuffer@@A			; cdb
PUBLIC	?viewport@@3PAUViewport@lib3d@@A		; viewport
PUBLIC	?rasterizer@@3PAURasterizer@lib3d@@A		; rasterizer
PUBLIC	?rasterizer_nocull@@3PAURasterizer@lib3d@@A	; rasterizer_nocull
PUBLIC	?rasterizer_wireframe@@3PAURasterizer@lib3d@@A	; rasterizer_wireframe
PUBLIC	?alpha_blending@@3PAUAlphaBlending@lib3d@@A	; alpha_blending
PUBLIC	?nowrite_depthstencil@@3PAUDepthStencil@lib3d@@A ; nowrite_depthstencil
PUBLIC	?write_depthstencil@@3PAUDepthStencil@lib3d@@A	; write_depthstencil
PUBLIC	?rendertarget_main@@3PAUBackbuffer@lib3d@@A	; rendertarget_main
PUBLIC	?depth_main@@3PAURenderDepth2D@lib3d@@A		; depth_main
PUBLIC	?mesh_quad@@3PAUMesh@lib3d@@A			; mesh_quad
PUBLIC	?mesh_cube@@3PAUMesh@lib3d@@A			; mesh_cube
PUBLIC	?mesh_sphere@@3PAUMesh@lib3d@@A			; mesh_sphere
PUBLIC	?constantbuffer_main@@3PAUConstantBuffer@lib3d@@A ; constantbuffer_main
PUBLIC	?transformbuffer_main@@3PAUConstantBuffer@lib3d@@A ; transformbuffer_main
PUBLIC	?customdatabuffer_main@@3PAUConstantBuffer@lib3d@@A ; customdatabuffer_main
PUBLIC	__fltused
_BSS	SEGMENT
?window@lib3d@@3PAUHWND__@@A DD 01H DUP (?)		; lib3d::window
?device@lib3d@@3PAUID3D11Device@@A DD 01H DUP (?)	; lib3d::device
?inmediate@lib3d@@3PAUID3D11DeviceContext@@A DD 01H DUP (?) ; lib3d::inmediate
?swapchain@lib3d@@3PAUIDXGISwapChain@@A DD 01H DUP (?)	; lib3d::swapchain
?null_srv@lib3d@@3PAUID3D11ShaderResourceView@@A DD 01H DUP (?) ; lib3d::null_srv
?null_uav@lib3d@@3PAUID3D11UnorderedAccessView@@A DD 01H DUP (?) ; lib3d::null_uav
?null_rtv@lib3d@@3PAUID3D11RenderTargetView@@A DD 01H DUP (?) ; lib3d::null_rtv
?null_buffer@lib3d@@3PAUID3D11Buffer@@A DD 01H DUP (?)	; lib3d::null_buffer
?common_vertex_layout@lib3d@@3PAUID3D11InputLayout@@A DD 01H DUP (?) ; lib3d::common_vertex_layout
?common_vertex_layout_stride@lib3d@@3IA DD 01H DUP (?)	; lib3d::common_vertex_layout_stride
?renderdepth2D_list@lib3d@@3PAPAURenderDepth2D@1@A DD 014H DUP (?) ; lib3d::renderdepth2D_list
?rendertarget2D_list@lib3d@@3PAPAURenderTarget2D@1@A DD 014H DUP (?) ; lib3d::rendertarget2D_list
?rendertarget3D_list@lib3d@@3PAPAURenderTarget3D@1@A DD 014H DUP (?) ; lib3d::rendertarget3D_list
?buffer_list@lib3d@@3PAPAUBuffer@1@A DD 014H DUP (?)	; lib3d::buffer_list
?constantbuffer_list@lib3d@@3PAPAUConstantBuffer@1@A DD 014H DUP (?) ; lib3d::constantbuffer_list
?fx_list@lib3d@@3PAPAUFX@1@A DD 014H DUP (?)		; lib3d::fx_list
?computefx_list@lib3d@@3PAPAUComputeFX@1@A DD 014H DUP (?) ; lib3d::computefx_list
?mesh_list@lib3d@@3PAPAUMesh@1@A DD 014H DUP (?)	; lib3d::mesh_list
?gcb@@3PAUGlobalConstantsBuffer@@A DD 01H DUP (?)	; gcb
?tb@@3PAUTransformBuffer@@A DD 01H DUP (?)		; tb
?cdb@@3PAUCustomDataBuffer@@A DD 01H DUP (?)		; cdb
?viewport@@3PAUViewport@lib3d@@A DD 01H DUP (?)		; viewport
?rasterizer@@3PAURasterizer@lib3d@@A DD 01H DUP (?)	; rasterizer
?rasterizer_nocull@@3PAURasterizer@lib3d@@A DD 01H DUP (?) ; rasterizer_nocull
?rasterizer_wireframe@@3PAURasterizer@lib3d@@A DD 01H DUP (?) ; rasterizer_wireframe
?alpha_blending@@3PAUAlphaBlending@lib3d@@A DD 01H DUP (?) ; alpha_blending
?nowrite_depthstencil@@3PAUDepthStencil@lib3d@@A DD 01H DUP (?) ; nowrite_depthstencil
?write_depthstencil@@3PAUDepthStencil@lib3d@@A DD 01H DUP (?) ; write_depthstencil
?rendertarget_main@@3PAUBackbuffer@lib3d@@A DD 01H DUP (?) ; rendertarget_main
?depth_main@@3PAURenderDepth2D@lib3d@@A DD 01H DUP (?)	; depth_main
?mesh_quad@@3PAUMesh@lib3d@@A DD 01H DUP (?)		; mesh_quad
?mesh_cube@@3PAUMesh@lib3d@@A DD 01H DUP (?)		; mesh_cube
?mesh_sphere@@3PAUMesh@lib3d@@A DD 01H DUP (?)		; mesh_sphere
?constantbuffer_main@@3PAUConstantBuffer@lib3d@@A DD 01H DUP (?) ; constantbuffer_main
?transformbuffer_main@@3PAUConstantBuffer@lib3d@@A DD 01H DUP (?) ; transformbuffer_main
?customdatabuffer_main@@3PAUConstantBuffer@lib3d@@A DD 01H DUP (?) ; customdatabuffer_main
__fltused DD	01H DUP (?)
_BSS	ENDS
_DATA	SEGMENT
?is_focused@lib3d@@3_NA DB 01H				; lib3d::is_focused
	ORG $+7
?quad_vertices@lib3d@@3PAMA DD 0bf000000r	; -0.5	; lib3d::quad_vertices
	DD	03f000000r			; 0.5
	DD	000000000r			; 0
	DD	000000000r			; 0
	DD	000000000r			; 0
	DD	000000000r			; 0
	DD	03f800000r			; 1
	DD	000000000r			; 0
	DD	03f000000r			; 0.5
	DD	03f000000r			; 0.5
	DD	000000000r			; 0
	DD	03f800000r			; 1
	DD	000000000r			; 0
	DD	000000000r			; 0
	DD	03f800000r			; 1
	DD	000000000r			; 0
	DD	0bf000000r			; -0.5
	DD	0bf000000r			; -0.5
	DD	000000000r			; 0
	DD	000000000r			; 0
	DD	03f800000r			; 1
	DD	000000000r			; 0
	DD	03f800000r			; 1
	DD	000000000r			; 0
	DD	03f000000r			; 0.5
	DD	0bf000000r			; -0.5
	DD	000000000r			; 0
	DD	03f800000r			; 1
	DD	03f800000r			; 1
	DD	000000000r			; 0
	DD	03f800000r			; 1
	DD	000000000r			; 0
?quad_indices@lib3d@@3PAHA DD 00H			; lib3d::quad_indices
	DD	01H
	DD	02H
	DD	02H
	DD	01H
	DD	03H
?cube_vertices@lib3d@@3PAMA DD 0bf000000r	; -0.5	; lib3d::cube_vertices
	DD	03f000000r			; 0.5
	DD	03f000000r			; 0.5
	DD	000000000r			; 0
	DD	000000000r			; 0
	DD	000000000r			; 0
	DD	000000000r			; 0
	DD	03f800000r			; 1
	DD	03f000000r			; 0.5
	DD	03f000000r			; 0.5
	DD	03f000000r			; 0.5
	DD	03f800000r			; 1
	DD	000000000r			; 0
	DD	000000000r			; 0
	DD	000000000r			; 0
	DD	03f800000r			; 1
	DD	0bf000000r			; -0.5
	DD	0bf000000r			; -0.5
	DD	03f000000r			; 0.5
	DD	000000000r			; 0
	DD	03f800000r			; 1
	DD	000000000r			; 0
	DD	000000000r			; 0
	DD	03f800000r			; 1
	DD	03f000000r			; 0.5
	DD	0bf000000r			; -0.5
	DD	03f000000r			; 0.5
	DD	03f800000r			; 1
	DD	03f800000r			; 1
	DD	000000000r			; 0
	DD	000000000r			; 0
	DD	03f800000r			; 1
	DD	0bf000000r			; -0.5
	DD	03f000000r			; 0.5
	DD	0bf000000r			; -0.5
	DD	03f800000r			; 1
	DD	000000000r			; 0
	DD	000000000r			; 0
	DD	000000000r			; 0
	DD	0bf800000r			; -1
	DD	03f000000r			; 0.5
	DD	03f000000r			; 0.5
	DD	0bf000000r			; -0.5
	DD	000000000r			; 0
	DD	000000000r			; 0
	DD	000000000r			; 0
	DD	000000000r			; 0
	DD	0bf800000r			; -1
	DD	0bf000000r			; -0.5
	DD	0bf000000r			; -0.5
	DD	0bf000000r			; -0.5
	DD	03f800000r			; 1
	DD	03f800000r			; 1
	DD	000000000r			; 0
	DD	000000000r			; 0
	DD	0bf800000r			; -1
	DD	03f000000r			; 0.5
	DD	0bf000000r			; -0.5
	DD	0bf000000r			; -0.5
	DD	000000000r			; 0
	DD	03f800000r			; 1
	DD	000000000r			; 0
	DD	000000000r			; 0
	DD	0bf800000r			; -1
	DD	0bf000000r			; -0.5
	DD	03f000000r			; 0.5
	DD	0bf000000r			; -0.5
	DD	000000000r			; 0
	DD	03f800000r			; 1
	DD	000000000r			; 0
	DD	03f800000r			; 1
	DD	000000000r			; 0
	DD	03f000000r			; 0.5
	DD	03f000000r			; 0.5
	DD	0bf000000r			; -0.5
	DD	03f800000r			; 1
	DD	03f800000r			; 1
	DD	000000000r			; 0
	DD	03f800000r			; 1
	DD	000000000r			; 0
	DD	0bf000000r			; -0.5
	DD	03f000000r			; 0.5
	DD	03f000000r			; 0.5
	DD	000000000r			; 0
	DD	000000000r			; 0
	DD	000000000r			; 0
	DD	03f800000r			; 1
	DD	000000000r			; 0
	DD	03f000000r			; 0.5
	DD	03f000000r			; 0.5
	DD	03f000000r			; 0.5
	DD	03f800000r			; 1
	DD	000000000r			; 0
	DD	000000000r			; 0
	DD	03f800000r			; 1
	DD	000000000r			; 0
	DD	0bf000000r			; -0.5
	DD	0bf000000r			; -0.5
	DD	0bf000000r			; -0.5
	DD	000000000r			; 0
	DD	000000000r			; 0
	DD	000000000r			; 0
	DD	0bf800000r			; -1
	DD	000000000r			; 0
	DD	03f000000r			; 0.5
	DD	0bf000000r			; -0.5
	DD	0bf000000r			; -0.5
	DD	03f800000r			; 1
	DD	000000000r			; 0
	DD	000000000r			; 0
	DD	0bf800000r			; -1
	DD	000000000r			; 0
	DD	0bf000000r			; -0.5
	DD	0bf000000r			; -0.5
	DD	03f000000r			; 0.5
	DD	000000000r			; 0
	DD	03f800000r			; 1
	DD	000000000r			; 0
	DD	0bf800000r			; -1
	DD	000000000r			; 0
	DD	03f000000r			; 0.5
	DD	0bf000000r			; -0.5
	DD	03f000000r			; 0.5
	DD	03f800000r			; 1
	DD	03f800000r			; 1
	DD	000000000r			; 0
	DD	0bf800000r			; -1
	DD	000000000r			; 0
	DD	0bf000000r			; -0.5
	DD	03f000000r			; 0.5
	DD	0bf000000r			; -0.5
	DD	000000000r			; 0
	DD	03f800000r			; 1
	DD	0bf800000r			; -1
	DD	000000000r			; 0
	DD	000000000r			; 0
	DD	0bf000000r			; -0.5
	DD	03f000000r			; 0.5
	DD	03f000000r			; 0.5
	DD	03f800000r			; 1
	DD	03f800000r			; 1
	DD	0bf800000r			; -1
	DD	000000000r			; 0
	DD	000000000r			; 0
	DD	0bf000000r			; -0.5
	DD	0bf000000r			; -0.5
	DD	0bf000000r			; -0.5
	DD	000000000r			; 0
	DD	000000000r			; 0
	DD	0bf800000r			; -1
	DD	000000000r			; 0
	DD	000000000r			; 0
	DD	0bf000000r			; -0.5
	DD	0bf000000r			; -0.5
	DD	03f000000r			; 0.5
	DD	03f800000r			; 1
	DD	000000000r			; 0
	DD	0bf800000r			; -1
	DD	000000000r			; 0
	DD	000000000r			; 0
	DD	03f000000r			; 0.5
	DD	03f000000r			; 0.5
	DD	0bf000000r			; -0.5
	DD	000000000r			; 0
	DD	03f800000r			; 1
	DD	03f800000r			; 1
	DD	000000000r			; 0
	DD	000000000r			; 0
	DD	03f000000r			; 0.5
	DD	03f000000r			; 0.5
	DD	03f000000r			; 0.5
	DD	03f800000r			; 1
	DD	03f800000r			; 1
	DD	03f800000r			; 1
	DD	000000000r			; 0
	DD	000000000r			; 0
	DD	03f000000r			; 0.5
	DD	0bf000000r			; -0.5
	DD	0bf000000r			; -0.5
	DD	000000000r			; 0
	DD	000000000r			; 0
	DD	03f800000r			; 1
	DD	000000000r			; 0
	DD	000000000r			; 0
	DD	03f000000r			; 0.5
	DD	0bf000000r			; -0.5
	DD	03f000000r			; 0.5
	DD	03f800000r			; 1
	DD	000000000r			; 0
	DD	03f800000r			; 1
	DD	000000000r			; 0
	DD	000000000r			; 0
?cube_indices@lib3d@@3PAHA DD 00H			; lib3d::cube_indices
	DD	02H
	DD	01H
	DD	01H
	DD	02H
	DD	03H
	DD	04H
	DD	05H
	DD	06H
	DD	06H
	DD	05H
	DD	07H
	DD	09H
	DD	08H
	DD	0aH
	DD	09H
	DD	0aH
	DD	0bH
	DD	0cH
	DD	0dH
	DD	0eH
	DD	0eH
	DD	0dH
	DD	0fH
	DD	011H
	DD	010H
	DD	012H
	DD	011H
	DD	012H
	DD	013H
	DD	014H
	DD	015H
	DD	016H
	DD	016H
	DD	015H
	DD	017H
?sphere_vertices@lib3d@@3PAMA DD 03e051074r	; 0.129946 ; lib3d::sphere_vertices
	DD	03d2cf0ebr			; 0.0422219
	DD	0bef6419cr			; -0.480969
	DD	03e54fec3r			; 0.208003
	DD	03f06e3aar			; 0.526911
	DD	03dcc3e3ar			; 0.0997281
	DD	03e0c8eebr			; 0.137264
	DD	0bf7c49d1r			; -0.985501
	DD	000000000r			; 0
	DD	000000000r			; 0
	DD	0bf000000r			; -0.5
	DD	03e800000r			; 0.25
	DD	03f000000r			; 0.5
	DD	03dcc3e38r			; 0.099728
	DD	03e0c8eear			; 0.137264
	DD	0bf7c49d0r			; -0.985501
	DD	000000000r			; 0
	DD	03e0be97fr			; 0.136633
	DD	0bef6419cr			; -0.480969
	DD	03e800000r			; 0.25
	DD	03f168dfar			; 0.588104
	DD	03dcc3e39r			; 0.0997281
	DD	03e0c8eebr			; 0.137264
	DD	0bf7c49d1r			; -0.985501
	DD	03e0c596br			; 0.13706
	DD	03e412ca1r			; 0.188647
	DD	0bee274cdr			; -0.442297
	DD	03e4f06c8r			; 0.202174
	DD	03f1f8672r			; 0.623145
	DD	03dd61643r			; 0.104535
	DD	03ecd62e9r			; 0.401145
	DD	0bf68f7ber			; -0.91003
	DD	000000000r			; 0
	DD	03e0be97fr			; 0.136633
	DD	0bef6419cr			; -0.480969
	DD	03e800000r			; 0.25
	DD	03f168dfar			; 0.588104
	DD	03dd61644r			; 0.104535
	DD	03ecd62e9r			; 0.401145
	DD	0bf68f7ber			; -0.91003
	DD	000000000r			; 0
	DD	03e869652r			; 0.262866
	DD	0bed9c440r			; -0.425325
	DD	03e800000r			; 0.25
	DD	03f2d1bfcr			; 0.676208
	DD	03dd61643r			; 0.104535
	DD	03ecd62e8r			; 0.401145
	DD	0bf68f7bfr			; -0.91003
	DD	03e7fffffr			; 0.25
	DD	03da65bf1r			; 0.0812301
	DD	0bed9c440r			; -0.425325
	DD	03e29659fr			; 0.165427
	DD	03f0d4c21r			; 0.551943
	DD	03eb2cb7cr			; 0.349209
	DD	03e64bd85r			; 0.223379
	DD	0bf68f7bfr			; -0.91003
	DD	03e051074r			; 0.129946
	DD	03d2cf0ebr			; 0.0422219
	DD	0bef6419cr			; -0.480969
	DD	03e54fec3r			; 0.208003
	DD	03f06e3aar			; 0.526911
	DD	03eb2cb7cr			; 0.349209
	DD	03e64bd85r			; 0.223379
	DD	0bf68f7ber			; -0.91003
	DD	03e0c596br			; 0.13706
	DD	03e412ca1r			; 0.188647
	DD	0bee274cdr			; -0.442297
	DD	03e4f06c8r			; 0.202174
	DD	03f1f8672r			; 0.623145
	DD	03eb2cb7br			; 0.349209
	DD	03e64bd82r			; 0.223379
	DD	0bf68f7bdr			; -0.91003
	DD	03e0c596cr			; 0.13706
	DD	03e9f5a87r			; 0.311238
	DD	0bebbaa17r			; -0.366532
	DD	03e45ae72r			; 0.193048
	DD	03f36c05fr			; 0.713873
	DD	03dd61649r			; 0.104535
	DD	03f22726er			; 0.634559
	DD	0bf4409afr			; -0.765773
	DD	000000000r			; 0
	DD	03e869652r			; 0.262866
	DD	0bed9c440r			; -0.425325
	DD	03e800000r			; 0.25
	DD	03f2d1bfcr			; 0.676208
	DD	03dd61648r			; 0.104535
	DD	03f22726er			; 0.634559
	DD	0bf4409aer			; -0.765773
	DD	000000000r			; 0
	DD	03ebcf91ar			; 0.369088
	DD	0beacb31fr			; -0.337304
	DD	03e800000r			; 0.25
	DD	03f43a9fdr			; 0.764313
	DD	03dd61649r			; 0.104535
	DD	03f22726er			; 0.634559
	DD	0bf4409afr			; -0.765773
	DD	03e81de7dr			; 0.253651
	DD	03e67f75br			; 0.22653
	DD	0bebbaa17r			; -0.366532
	DD	03e1d57a3r			; 0.153655
	DD	03f265099r			; 0.649667
	DD	03eb6b15fr			; 0.356822
	DD	03efb7493r			; 0.491124
	DD	0bf4b6e78r			; -0.794654
	DD	03e0c596br			; 0.13706
	DD	03e412ca1r			; 0.188647
	DD	0bee274cdr			; -0.442297
	DD	03e4f06c8r			; 0.202174
	DD	03f1f8672r			; 0.623145
	DD	03eb6b15er			; 0.356822
	DD	03efb7493r			; 0.491124
	DD	0bf4b6e76r			; -0.794654
	DD	03e0c596cr			; 0.13706
	DD	03e9f5a87r			; 0.311238
	DD	0bebbaa17r			; -0.366532
	DD	03e45ae72r			; 0.193048
	DD	03f36c05fr			; 0.713873
	DD	03eb6b15fr			; 0.356822
	DD	03efb7494r			; 0.491124
	DD	0bf4b6e78r			; -0.794654
	DD	03eb3b959r			; 0.351023
	DD	03de99579r			; 0.114055
	DD	0beacb320r			; -0.337304
	DD	03df98117r			; 0.121828
	DD	03f12c0ccr			; 0.573254
	DD	03f123a06r			; 0.571198
	DD	03e974ccer			; 0.295508
	DD	0bf4409b2r			; -0.765773
	DD	03e7fffffr			; 0.25
	DD	03da65bf1r			; 0.0812301
	DD	0bed9c440r			; -0.425325
	DD	03e29659fr			; 0.165427
	DD	03f0d4c21r			; 0.551943
	DD	03f123a06r			; 0.571198
	DD	03e974ccer			; 0.295508
	DD	0bf4409b2r			; -0.765773
	DD	03e81de7dr			; 0.253651
	DD	03e67f75br			; 0.22653
	DD	0bebbaa17r			; -0.366532
	DD	03e1d57a3r			; 0.153655
	DD	03f265099r			; 0.649667
	DD	03f123a06r			; 0.571198
	DD	03e974ccer			; 0.295508
	DD	0bf4409b2r			; -0.765773
	DD	03e051077r			; 0.129946
	DD	03ed29738r			; 0.41131
	DD	0be8176e3r			; -0.25286
	DD	03e32a274r			; 0.174448
	DD	03f4eb791r			; 0.807489
	DD	03dcc3e37r			; 0.099728
	DD	03f51f050r			; 0.820073
	DD	0bf1041abr			; -0.563502
	DD	000000000r			; 0
	DD	03ebcf91ar			; 0.369088
	DD	0beacb31fr			; -0.337304
	DD	03e800000r			; 0.25
	DD	03f43a9fdr			; 0.764313
	DD	03dcc3e37r			; 0.099728
	DD	03f51f04fr			; 0.820073
	DD	0bf1041aar			; -0.563502
	DD	000000000r			; 0
	DD	03ee4f931r			; 0.447214
	DD	0be64f91fr			; -0.223607
	DD	03e800000r			; 0.25
	DD	03f5a37f9r			; 0.852417
	DD	03dcc3e35r			; 0.099728
	DD	03f51f04fr			; 0.820073
	DD	0bf1041aar			; -0.563502
	DD	03e7fffffr			; 0.25
	DD	03eb02d4fr			; 0.344096
	DD	0be869648r			; -0.262865
	DD	03e041660r			; 0.128992
	DD	03f3dd92dr			; 0.741595
	DD	03eb2cb7br			; 0.349209
	DD	03f36cc80r			; 0.714058
	DD	0bf1b558ar			; -0.606774
	DD	03e0c596cr			; 0.13706
	DD	03e9f5a87r			; 0.311238
	DD	0bebbaa17r			; -0.366532
	DD	03e45ae72r			; 0.193048
	DD	03f36c05fr			; 0.713873
	DD	03eb2cb7ar			; 0.349209
	DD	03f36cc7fr			; 0.714058
	DD	0bf1b558ar			; -0.606774
	DD	03e051077r			; 0.129946
	DD	03ed29738r			; 0.41131
	DD	0be8176e3r			; -0.25286
	DD	03e32a274r			; 0.174448
	DD	03f4eb791r			; 0.807489
	DD	03eb2cb7br			; 0.349209
	DD	03f36cc80r			; 0.714058
	DD	0bf1b558ar			; -0.606774
	DD	03eb3b959r			; 0.351023
	DD	03e805a1fr			; 0.250688
	DD	0be8176e4r			; -0.25286
	DD	03dcb79adr			; 0.0993532
	DD	03f2acbcfr			; 0.667172
	DD	03f123a05r			; 0.571198
	DD	03f0d8293r			; 0.552774
	DD	0bf1b5587r			; -0.606774
	DD	03e81de7dr			; 0.253651
	DD	03e67f75br			; 0.22653
	DD	0bebbaa17r			; -0.366532
	DD	03e1d57a3r			; 0.153655
	DD	03f265099r			; 0.649667
	DD	03f123a05r			; 0.571198
	DD	03f0d8294r			; 0.552774
	DD	0bf1b5587r			; -0.606774
	DD	03e7fffffr			; 0.25
	DD	03eb02d4fr			; 0.344096
	DD	0be869648r			; -0.262865
	DD	03e041660r			; 0.128992
	DD	03f3dd92dr			; 0.741595
	DD	03f123a04r			; 0.571198
	DD	03f0d8293r			; 0.552774
	DD	0bf1b5586r			; -0.606774
	DD	03ed9c441r			; 0.425325
	DD	03e0d8379r			; 0.138197
	DD	0be64f921r			; -0.223607
	DD	03d9dc411r			; 0.0770341
	DD	03f16d1d6r			; 0.589139
	DD	03f3fc632r			; 0.749118
	DD	03eb24fa8r			; 0.348264
	DD	0bf1041adr			; -0.563502
	DD	03eb3b959r			; 0.351023
	DD	03de99579r			; 0.114055
	DD	0beacb320r			; -0.337304
	DD	03df98117r			; 0.121828
	DD	03f12c0ccr			; 0.573254
	DD	03f3fc630r			; 0.749118
	DD	03eb24fa8r			; 0.348264
	DD	0bf1041acr			; -0.563502
	DD	03eb3b959r			; 0.351023
	DD	03e805a1fr			; 0.250688
	DD	0be8176e4r			; -0.25286
	DD	03dcb79adr			; 0.0993532
	DD	03f2acbcfr			; 0.667172
	DD	03f3fc630r			; 0.749118
	DD	03eb24fa8r			; 0.348264
	DD	0bf1041adr			; -0.563502
	DD	03e051074r			; 0.129946
	DD	03d2cf0ebr			; 0.0422219
	DD	0bef6419cr			; -0.480969
	DD	03e54fec3r			; 0.208003
	DD	03f06e3aar			; 0.526911
	DD	03e35016er			; 0.176763
	DD	03e792208r			; 0.243294
	DD	0bf742656r			; -0.95371
	DD	000000000r			; 0
	DD	03e0be97fr			; 0.136633
	DD	0bef6419cr			; -0.480969
	DD	03e800000r			; 0.25
	DD	03f168dfar			; 0.588104
	DD	03e35016er			; 0.176763
	DD	03e792208r			; 0.243294
	DD	0bf742656r			; -0.95371
	DD	03e0c596br			; 0.13706
	DD	03e412ca1r			; 0.188647
	DD	0bee274cdr			; -0.442297
	DD	03e4f06c8r			; 0.202174
	DD	03f1f8672r			; 0.623145
	DD	03e35016fr			; 0.176763
	DD	03e792208r			; 0.243294
	DD	0bf742658r			; -0.95371
	DD	03e0c596br			; 0.13706
	DD	03e412ca1r			; 0.188647
	DD	0bee274cdr			; -0.442297
	DD	03e4f06c8r			; 0.202174
	DD	03f1f8672r			; 0.623145
	DD	03e34c594r			; 0.176535
	DD	03f047935r			; 0.517474
	DD	0bf5658acr			; -0.837291
	DD	000000000r			; 0
	DD	03e869652r			; 0.262866
	DD	0bed9c440r			; -0.425325
	DD	03e800000r			; 0.25
	DD	03f2d1bfcr			; 0.676208
	DD	03e34c596r			; 0.176535
	DD	03f047936r			; 0.517475
	DD	0bf5658aer			; -0.837291
	DD	03e0c596cr			; 0.13706
	DD	03e9f5a87r			; 0.311238
	DD	0bebbaa17r			; -0.366532
	DD	03e45ae72r			; 0.193048
	DD	03f36c05fr			; 0.713873
	DD	03e34c595r			; 0.176535
	DD	03f047936r			; 0.517475
	DD	0bf5658adr			; -0.837291
	DD	03e7fffffr			; 0.25
	DD	03da65bf1r			; 0.0812301
	DD	0bed9c440r			; -0.425325
	DD	03e29659fr			; 0.165427
	DD	03f0d4c21r			; 0.551943
	DD	03ee00c73r			; 0.437595
	DD	03ea7d5d3r			; 0.327803
	DD	0bf5658afr			; -0.837291
	DD	03e0c596br			; 0.13706
	DD	03e412ca1r			; 0.188647
	DD	0bee274cdr			; -0.442297
	DD	03e4f06c8r			; 0.202174
	DD	03f1f8672r			; 0.623145
	DD	03ee00c73r			; 0.437595
	DD	03ea7d5d4r			; 0.327803
	DD	0bf5658b0r			; -0.837291
	DD	03e81de7dr			; 0.253651
	DD	03e67f75br			; 0.22653
	DD	0bebbaa17r			; -0.366532
	DD	03e1d57a3r			; 0.153655
	DD	03f265099r			; 0.649667
	DD	03ee00c73r			; 0.437595
	DD	03ea7d5d5r			; 0.327803
	DD	0bf5658afr			; -0.837291
	DD	03e0c596cr			; 0.13706
	DD	03e9f5a87r			; 0.311238
	DD	0bebbaa17r			; -0.366532
	DD	03e45ae72r			; 0.193048
	DD	03f36c05fr			; 0.713873
	DD	03e35016br			; 0.176763
	DD	03f3e8538r			; 0.74422
	DD	0bf24e512r			; -0.64412
	DD	000000000r			; 0
	DD	03ebcf91ar			; 0.369088
	DD	0beacb31fr			; -0.337304
	DD	03e800000r			; 0.25
	DD	03f43a9fdr			; 0.764313
	DD	03e35016br			; 0.176763
	DD	03f3e8538r			; 0.74422
	DD	0bf24e512r			; -0.64412
	DD	03e051077r			; 0.129946
	DD	03ed29738r			; 0.41131
	DD	0be8176e3r			; -0.25286
	DD	03e32a274r			; 0.174448
	DD	03f4eb791r			; 0.807489
	DD	03e35016br			; 0.176763
	DD	03f3e8538r			; 0.74422
	DD	0bf24e513r			; -0.64412
	DD	03e81de7dr			; 0.253651
	DD	03e67f75br			; 0.22653
	DD	0bebbaa17r			; -0.366532
	DD	03e1d57a3r			; 0.153655
	DD	03f265099r			; 0.649667
	DD	03ee00c70r			; 0.437595
	DD	03f1a3038r			; 0.602298
	DD	0bf2aeaacr			; -0.667643
	DD	03e0c596cr			; 0.13706
	DD	03e9f5a87r			; 0.311238
	DD	0bebbaa17r			; -0.366532
	DD	03e45ae72r			; 0.193048
	DD	03f36c05fr			; 0.713873
	DD	03ee00c70r			; 0.437595
	DD	03f1a3038r			; 0.602298
	DD	0bf2aeaacr			; -0.667643
	DD	03e7fffffr			; 0.25
	DD	03eb02d4fr			; 0.344096
	DD	0be869648r			; -0.262865
	DD	03e041660r			; 0.128992
	DD	03f3dd92dr			; 0.741595
	DD	03ee00c6fr			; 0.437595
	DD	03f1a3037r			; 0.602298
	DD	0bf2aeaacr			; -0.667643
	DD	03eb3b959r			; 0.351023
	DD	03de99579r			; 0.114055
	DD	0beacb320r			; -0.337304
	DD	03df98117r			; 0.121828
	DD	03f12c0ccr			; 0.573254
	DD	03f273651r			; 0.653173
	DD	03ecbd24br			; 0.398089
	DD	0bf24e510r			; -0.64412
	DD	03e81de7dr			; 0.253651
	DD	03e67f75br			; 0.22653
	DD	0bebbaa17r			; -0.366532
	DD	03e1d57a3r			; 0.153655
	DD	03f265099r			; 0.649667
	DD	03f273652r			; 0.653173
	DD	03ecbd24br			; 0.398089
	DD	0bf24e512r			; -0.64412
	DD	03eb3b959r			; 0.351023
	DD	03e805a1fr			; 0.250688
	DD	0be8176e4r			; -0.25286
	DD	03dcb79adr			; 0.0993532
	DD	03f2acbcfr			; 0.667172
	DD	03f273652r			; 0.653173
	DD	03ecbd24br			; 0.398089
	DD	0bf24e511r			; -0.64412
	DD	03da479fbr			; 0.0803108
	DD	0bde261ear			; -0.110538
	DD	0bef6419cr			; -0.480969
	DD	03e650928r			; 0.223668
	DD	03edbab84r			; 0.429043
	DD	03e253c79r			; 0.161363
	DD	0bd56c101r			; -0.0524302
	DD	0bf7c49d1r			; -0.985501
	DD	000000000r			; 0
	DD	000000000r			; 0
	DD	0bf000000r			; -0.5
	DD	03e800000r			; 0.25
	DD	03f000000r			; 0.5
	DD	03e253c7ar			; 0.161364
	DD	0bd56c101r			; -0.0524302
	DD	0bf7c49d1r			; -0.985501
	DD	03e051074r			; 0.129946
	DD	03d2cf0ebr			; 0.0422219
	DD	0bef6419cr			; -0.480969
	DD	03e54fec3r			; 0.208003
	DD	03f06e3aar			; 0.526911
	DD	03e253c79r			; 0.161363
	DD	0bd56c100r			; -0.0524302
	DD	0bf7c49d0r			; -0.985501
	DD	03e631708r			; 0.221768
	DD	0bd939266r			; -0.0720566
	DD	0bee274cfr			; -0.442297
	DD	03e344140r			; 0.17603
	DD	03ee86e60r			; 0.453967
	DD	03ed3df86r			; 0.413815
	DD	03cc90dbfr			; 0.0245427
	DD	0bf68f7ber			; -0.91003
	DD	03e051074r			; 0.129946
	DD	03d2cf0ebr			; 0.0422219
	DD	0bef6419cr			; -0.480969
	DD	03e54fec3r			; 0.208003
	DD	03f06e3aar			; 0.526911
	DD	03ed3df86r			; 0.413815
	DD	03cc90dbfr			; 0.0245427
	DD	0bf68f7ber			; -0.91003
	DD	03e7fffffr			; 0.25
	DD	03da65bf1r			; 0.0812301
	DD	0bed9c440r			; -0.425325
	DD	03e29659fr			; 0.165427
	DD	03f0d4c21r			; 0.551943
	DD	03ed3df85r			; 0.413815
	DD	03cc90dber			; 0.0245427
	DD	0bf68f7bdr			; -0.91003
	DD	03e1e377ar			; 0.154509
	DD	0be59c441r			; -0.212663
	DD	0bed9c441r			; -0.425325
	DD	03e473633r			; 0.194543
	DD	03eb866d8r			; 0.36016
	DD	03ea405e2r			; 0.320357
	DD	0be86b3a4r			; -0.263089
	DD	0bf68f7bfr			; -0.91003
	DD	03da479fbr			; 0.0803108
	DD	0bde261ear			; -0.110538
	DD	0bef6419cr			; -0.480969
	DD	03e650928r			; 0.223668
	DD	03edbab84r			; 0.429043
	DD	03ea405e2r			; 0.320357
	DD	0be86b3a3r			; -0.263089
	DD	0bf68f7bfr			; -0.91003
	DD	03e631708r			; 0.221768
	DD	0bd939266r			; -0.0720566
	DD	0bee274cfr			; -0.442297
	DD	03e344140r			; 0.17603
	DD	03ee86e60r			; 0.453967
	DD	03ea405e2r			; 0.320357
	DD	0be86b3a4r			; -0.263089
	DD	0bf68f7ber			; -0.91003
	DD	03ead3d4br			; 0.338358
	DD	0bd0bf9f0r			; -0.0341739
	DD	0bebbaa1ar			; -0.366532
	DD	03e0682b1r			; 0.131358
	DD	03ef4da33r			; 0.478227
	DD	03f22c40ar			; 0.635804
	DD	03dc5fb9ar			; 0.0966713
	DD	0bf4409b1r			; -0.765773
	DD	03e7fffffr			; 0.25
	DD	03da65bf1r			; 0.0812301
	DD	0bed9c440r			; -0.425325
	DD	03e29659fr			; 0.165427
	DD	03f0d4c21r			; 0.551943
	DD	03f22c40br			; 0.635804
	DD	03dc5fb9br			; 0.0966713
	DD	0bf4409b2r			; -0.765773
	DD	03eb3b959r			; 0.351023
	DD	03de99579r			; 0.114055
	DD	0beacb320r			; -0.337304
	DD	03df98117r			; 0.121828
	DD	03f12c0ccr			; 0.573254
	DD	03f22c40br			; 0.635804
	DD	03dc5fb9ar			; 0.0966713
	DD	0bf4409b2r			; -0.765773
	DD	03e96702er			; 0.293825
	DD	0be2f581er			; -0.171235
	DD	0bebbaa1ar			; -0.366532
	DD	03e11df42r			; 0.142453
	DD	03ec70881r			; 0.388737
	DD	03f13cd3fr			; 0.577351
	DD	0be40182fr			; -0.187592
	DD	0bf4b6e78r			; -0.794654
	DD	03e631708r			; 0.221768
	DD	0bd939266r			; -0.0720566
	DD	0bee274cfr			; -0.442297
	DD	03e344140r			; 0.17603
	DD	03ee86e60r			; 0.453967
	DD	03f13cd3fr			; 0.577351
	DD	0be401830r			; -0.187592
	DD	0bf4b6e79r			; -0.794654
	DD	03ead3d4br			; 0.338358
	DD	0bd0bf9f0r			; -0.0341739
	DD	0bebbaa1ar			; -0.366532
	DD	03e0682b1r			; 0.131358
	DD	03ef4da33r			; 0.478227
	DD	03f13cd3er			; 0.57735
	DD	0be40182er			; -0.187592
	DD	0bf4b6e77r			; -0.794654
	DD	03e5e26b0r			; 0.216944
	DD	0be98e1e6r			; -0.298598
	DD	0beacb321r			; -0.337304
	DD	03e22d9a6r			; 0.159033
	DD	03e97b227r			; 0.296281
	DD	03eea4490r			; 0.457554
	DD	0bee762a6r			; -0.451925
	DD	0bf4409b3r			; -0.765773
	DD	03e1e377ar			; 0.154509
	DD	0be59c441r			; -0.212663
	DD	0bed9c441r			; -0.425325
	DD	03e473633r			; 0.194543
	DD	03eb866d8r			; 0.36016
	DD	03eea4490r			; 0.457554
	DD	0bee762a6r			; -0.451925
	DD	0bf4409b3r			; -0.765773
	DD	03e96702er			; 0.293825
	DD	0be2f581er			; -0.171235
	DD	0bebbaa1ar			; -0.366532
	DD	03e11df42r			; 0.142453
	DD	03ec70881r			; 0.388737
	DD	03eea4490r			; 0.457554
	DD	0bee762a6r			; -0.451925
	DD	0bf4409b3r			; -0.765773
	DD	03edcd7dcr			; 0.431334
	DD	03b667124r			; 0.00351627
	DD	0be8176e5r			; -0.25286
	DD	03dacd41dr			; 0.0843889
	DD	03f0092b4r			; 0.502239
	DD	03f4f8d89r			; 0.810753
	DD	03e226017r			; 0.15857
	DD	0bf1041abr			; -0.563502
	DD	03eb3b959r			; 0.351023
	DD	03de99579r			; 0.114055
	DD	0beacb320r			; -0.337304
	DD	03df98117r			; 0.121828
	DD	03f12c0ccr			; 0.573254
	DD	03f4f8d89r			; 0.810753
	DD	03e226015r			; 0.15857
	DD	0bf1041abr			; -0.563502
	DD	03ed9c441r			; 0.425325
	DD	03e0d8379r			; 0.138197
	DD	0be64f921r			; -0.223607
	DD	03d9dc411r			; 0.0770341
	DD	03f16d1d6r			; 0.589139
	DD	03f4f8d8ar			; 0.810753
	DD	03e226018r			; 0.15857
	DD	0bf1041acr			; -0.563502
	DD	03ecf1bc1r			; 0.404509
	DD	0be06964br			; -0.131433
	DD	0be86964br			; -0.262865
	DD	03dbbd50ar			; 0.0917149
	DD	03ed4a676r			; 0.415332
	DD	03f497a32r			; 0.787021
	DD	0bde445adr			; -0.111461
	DD	0bf1b558ar			; -0.606774
	DD	03ead3d4br			; 0.338358
	DD	0bd0bf9f0r			; -0.0341739
	DD	0bebbaa1ar			; -0.366532
	DD	03e0682b1r			; 0.131358
	DD	03ef4da33r			; 0.478227
	DD	03f497a33r			; 0.787021
	DD	0bde445aer			; -0.111461
	DD	0bf1b558ar			; -0.606774
	DD	03edcd7dcr			; 0.431334
	DD	03b667124r			; 0.00351627
	DD	0be8176e5r			; -0.25286
	DD	03dacd41dr			; 0.0843889
	DD	03f0092b4r			; 0.502239
	DD	03f497a33r			; 0.787021
	DD	0bde445adr			; -0.111461
	DD	0bf1b558ar			; -0.606774
	DD	03eb19b96r			; 0.34689
	DD	0be8343c9r			; -0.256377
	DD	0be8176e5r			; -0.25286
	DD	03dcd4f48r			; 0.100249
	DD	03ea8419fr			; 0.328626
	DD	03f33c543r			; 0.702229
	DD	0bebeae80r			; -0.372425
	DD	0bf1b5586r			; -0.606774
	DD	03e96702er			; 0.293825
	DD	0be2f581er			; -0.171235
	DD	0bebbaa1ar			; -0.366532
	DD	03e11df42r			; 0.142453
	DD	03ec70881r			; 0.388737
	DD	03f33c543r			; 0.702229
	DD	0bebeae80r			; -0.372425
	DD	0bf1b5587r			; -0.606774
	DD	03ecf1bc1r			; 0.404509
	DD	0be06964br			; -0.131433
	DD	0be86964br			; -0.262865
	DD	03dbbd50ar			; 0.0917149
	DD	03ed4a676r			; 0.415332
	DD	03f33c543r			; 0.702229
	DD	0bebeae81r			; -0.372425
	DD	0bf1b5586r			; -0.606774
	DD	03e869652r			; 0.262866
	DD	0beb93e4er			; -0.361803
	DD	0be64f923r			; -0.223607
	DD	03de5c099r			; 0.112184
	DD	03e784d6dr			; 0.242483
	DD	03f100dafr			; 0.562709
	DD	0bf1ad668r			; -0.604834
	DD	0bf1041abr			; -0.563502
	DD	03e5e26b0r			; 0.216944
	DD	0be98e1e6r			; -0.298598
	DD	0beacb321r			; -0.337304
	DD	03e22d9a6r			; 0.159033
	DD	03e97b227r			; 0.296281
	DD	03f100dafr			; 0.562709
	DD	0bf1ad668r			; -0.604834
	DD	0bf1041abr			; -0.563502
	DD	03eb19b96r			; 0.34689
	DD	0be8343c9r			; -0.256377
	DD	0be8176e5r			; -0.25286
	DD	03dcd4f48r			; 0.100249
	DD	03ea8419fr			; 0.328626
	DD	03f100db0r			; 0.562709
	DD	0bf1ad668r			; -0.604834
	DD	0bf1041abr			; -0.563502
	DD	03da479fbr			; 0.0803108
	DD	0bde261ear			; -0.110538
	DD	0bef6419cr			; -0.480969
	DD	03e650928r			; 0.223668
	DD	03edbab84r			; 0.429043
	DD	03e926fbbr			; 0.286009
	DD	0bdbe51fbr			; -0.0929298
	DD	0bf74265ar			; -0.95371
	DD	03e051074r			; 0.129946
	DD	03d2cf0ebr			; 0.0422219
	DD	0bef6419cr			; -0.480969
	DD	03e54fec3r			; 0.208003
	DD	03f06e3aar			; 0.526911
	DD	03e926fbbr			; 0.286009
	DD	0bdbe51fbr			; -0.0929298
	DD	0bf74265ar			; -0.95371
	DD	03e631708r			; 0.221768
	DD	0bd939266r			; -0.0720566
	DD	0bee274cfr			; -0.442297
	DD	03e344140r			; 0.17603
	DD	03ee86e60r			; 0.453967
	DD	03e926fbbr			; 0.286009
	DD	0bdbe51fbr			; -0.0929298
	DD	0bf742659r			; -0.95371
	DD	03e631708r			; 0.221768
	DD	0bd939266r			; -0.0720566
	DD	0bee274cfr			; -0.442297
	DD	03e344140r			; 0.17603
	DD	03ee86e60r			; 0.453967
	DD	03f0bf482r			; 0.5467
	DD	0bc02d773r			; -0.00798594
	DD	0bf5658b1r			; -0.837291
	DD	03e7fffffr			; 0.25
	DD	03da65bf1r			; 0.0812301
	DD	0bed9c440r			; -0.425325
	DD	03e29659fr			; 0.165427
	DD	03f0d4c21r			; 0.551943
	DD	03f0bf481r			; 0.5467
	DD	0bc02d773r			; -0.00798594
	DD	0bf5658afr			; -0.837291
	DD	03ead3d4br			; 0.338358
	DD	0bd0bf9f0r			; -0.0341739
	DD	0bebbaa1ar			; -0.366532
	DD	03e0682b1r			; 0.131358
	DD	03ef4da33r			; 0.478227
	DD	03f0bf481r			; 0.5467
	DD	0bc02d772r			; -0.00798594
	DD	0bf5658aer			; -0.837291
	DD	03e1e377ar			; 0.154509
	DD	0be59c441r			; -0.212663
	DD	0bed9c441r			; -0.425325
	DD	03e473633r			; 0.194543
	DD	03eb866d8r			; 0.36016
	DD	03ee4db02r			; 0.446983
	DD	0bea1380fr			; -0.314881
	DD	0bf5658afr			; -0.837291
	DD	03e631708r			; 0.221768
	DD	0bd939266r			; -0.0720566
	DD	0bee274cfr			; -0.442297
	DD	03e344140r			; 0.17603
	DD	03ee86e60r			; 0.453967
	DD	03ee4db03r			; 0.446983
	DD	0bea13810r			; -0.314881
	DD	0bf5658b0r			; -0.837291
	DD	03e96702er			; 0.293825
	DD	0be2f581er			; -0.171235
	DD	0bebbaa1ar			; -0.366532
	DD	03e11df42r			; 0.142453
	DD	03ec70881r			; 0.388737
	DD	03ee4db03r			; 0.446983
	DD	0bea13810r			; -0.314881
	DD	0bf5658b1r			; -0.837291
	DD	03ead3d4br			; 0.338358
	DD	0bd0bf9f0r			; -0.0341739
	DD	0bebbaa1ar			; -0.366532
	DD	03e0682b1r			; 0.131358
	DD	03ef4da33r			; 0.478227
	DD	03f432dd9r			; 0.762418
	DD	03d7d664er			; 0.0618651
	DD	0bf24e512r			; -0.64412
	DD	03eb3b959r			; 0.351023
	DD	03de99579r			; 0.114055
	DD	0beacb320r			; -0.337304
	DD	03df98117r			; 0.121828
	DD	03f12c0ccr			; 0.573254
	DD	03f432dd9r			; 0.762418
	DD	03d7d664er			; 0.0618651
	DD	0bf24e512r			; -0.64412
	DD	03edcd7dcr			; 0.431334
	DD	03b667124r			; 0.00351627
	DD	0be8176e5r			; -0.25286
	DD	03dacd41dr			; 0.0843889
	DD	03f0092b4r			; 0.502239
	DD	03f432dd9r			; 0.762418
	DD	03d7d664er			; 0.0618651
	DD	0bf24e512r			; -0.64412
	DD	03e96702er			; 0.293825
	DD	0be2f581er			; -0.171235
	DD	0bebbaa1ar			; -0.366532
	DD	03e11df42r			; 0.142453
	DD	03ec70881r			; 0.388737
	DD	03f35425dr			; 0.708044
	DD	0be6b9412r			; -0.230057
	DD	0bf2aeaaer			; -0.667643
	DD	03ead3d4br			; 0.338358
	DD	0bd0bf9f0r			; -0.0341739
	DD	0bebbaa1ar			; -0.366532
	DD	03e0682b1r			; 0.131358
	DD	03ef4da33r			; 0.478227
	DD	03f35425cr			; 0.708044
	DD	0be6b9411r			; -0.230057
	DD	0bf2aeaaer			; -0.667643
	DD	03ecf1bc1r			; 0.404509
	DD	0be06964br			; -0.131433
	DD	0be86964br			; -0.262865
	DD	03dbbd50ar			; 0.0917149
	DD	03ed4a676r			; 0.415332
	DD	03f35425cr			; 0.708044
	DD	0be6b9411r			; -0.230057
	DD	0bf2aeaadr			; -0.667643
	DD	03e5e26b0r			; 0.216944
	DD	0be98e1e6r			; -0.298598
	DD	0beacb321r			; -0.337304
	DD	03e22d9a6r			; 0.159033
	DD	03e97b227r			; 0.296281
	DD	03f149821r			; 0.580446
	DD	0beff127cr			; -0.498188
	DD	0bf24e510r			; -0.64412
	DD	03e96702er			; 0.293825
	DD	0be2f581er			; -0.171235
	DD	0bebbaa1ar			; -0.366532
	DD	03e11df42r			; 0.142453
	DD	03ec70881r			; 0.388737
	DD	03f149821r			; 0.580446
	DD	0beff127dr			; -0.498188
	DD	0bf24e511r			; -0.64412
	DD	03eb19b96r			; 0.34689
	DD	0be8343c9r			; -0.256377
	DD	0be8176e5r			; -0.25286
	DD	03dcd4f48r			; 0.100249
	DD	03ea8419fr			; 0.328626
	DD	03f149821r			; 0.580446
	DD	0beff127cr			; -0.498188
	DD	0bf24e511r			; -0.64412
	DD	0bda479fbr			; -0.0803108
	DD	0bde261ear			; -0.110538
	DD	0bef6419cr			; -0.480969
	DD	03e8d7b6cr			; 0.276332
	DD	03edbab84r			; 0.429043
	DD	080000000r			; -0
	DD	0be2dbd57r			; -0.169668
	DD	0bf7c49d1r			; -0.985501
	DD	000000000r			; 0
	DD	000000000r			; 0
	DD	0bf000000r			; -0.5
	DD	03e800000r			; 0.25
	DD	03f000000r			; 0.5
	DD	080000000r			; -0
	DD	0be2dbd56r			; -0.169668
	DD	0bf7c49d2r			; -0.985501
	DD	03da479fbr			; 0.0803108
	DD	0bde261ear			; -0.110538
	DD	0bef6419cr			; -0.480969
	DD	03e650928r			; 0.223668
	DD	03edbab84r			; 0.429043
	DD	080000000r			; -0
	DD	0be2dbd57r			; -0.169668
	DD	0bf7c49d1r			; -0.985501
	DD	000000000r			; 0
	DD	0be6ec6c9r			; -0.23318
	DD	0bee274cer			; -0.442297
	DD	03e800000r			; 0.25
	DD	03eb0ede5r			; 0.345565
	DD	03e1ad896r			; 0.151217
	DD	0bec59ecar			; -0.385977
	DD	0bf68f7ber			; -0.91003
	DD	03da479fbr			; 0.0803108
	DD	0bde261ear			; -0.110538
	DD	0bef6419cr			; -0.480969
	DD	03e650928r			; 0.223668
	DD	03edbab84r			; 0.429043
	DD	03e1ad897r			; 0.151217
	DD	0bec59ecbr			; -0.385977
	DD	0bf68f7ber			; -0.91003
	DD	03e1e377ar			; 0.154509
	DD	0be59c441r			; -0.212663
	DD	0bed9c441r			; -0.425325
	DD	03e473633r			; 0.194543
	DD	03eb866d8r			; 0.36016
	DD	03e1ad897r			; 0.151217
	DD	0bec59eccr			; -0.385977
	DD	0bf68f7bfr			; -0.91003
	DD	0be1e377ar			; -0.154509
	DD	0be59c441r			; -0.212663
	DD	0bed9c441r			; -0.425325
	DD	03e9c64e6r			; 0.305457
	DD	03eb866d8r			; 0.36016
	DD	0be1ad897r			; -0.151217
	DD	0bec59eccr			; -0.385977
	DD	0bf68f7bfr			; -0.91003
	DD	0bda479fbr			; -0.0803108
	DD	0bde261ear			; -0.110538
	DD	0bef6419cr			; -0.480969
	DD	03e8d7b6cr			; 0.276332
	DD	03edbab84r			; 0.429043
	DD	0be1ad897r			; -0.151217
	DD	0bec59ecbr			; -0.385977
	DD	0bf68f7ber			; -0.91003
	DD	000000000r			; 0
	DD	0be6ec6c9r			; -0.23318
	DD	0bee274cer			; -0.442297
	DD	03e800000r			; 0.25
	DD	03eb0ede5r			; 0.345565
	DD	0be1ad896r			; -0.151217
	DD	0bec59ecar			; -0.385977
	DD	0bf68f7ber			; -0.91003
	DD	03d9392a1r			; 0.072057
	DD	0beaa2adbr			; -0.332358
	DD	0bebbaa1ar			; -0.366532
	DD	03e605d32r			; 0.219106
	DD	03e897fb2r			; 0.268552
	DD	03e93aaf7r			; 0.288414
	DD	0bf1326e5r			; -0.574812
	DD	0bf4409b3r			; -0.765773
	DD	03e1e377ar			; 0.154509
	DD	0be59c441r			; -0.212663
	DD	0bed9c441r			; -0.425325
	DD	03e473633r			; 0.194543
	DD	03eb866d8r			; 0.36016
	DD	03e93aaf8r			; 0.288414
	DD	0bf1326e6r			; -0.574812
	DD	0bf4409b4r			; -0.765773
	DD	03e5e26b0r			; 0.216944
	DD	0be98e1e6r			; -0.298598
	DD	0beacb321r			; -0.337304
	DD	03e22d9a6r			; 0.159033
	DD	03e97b227r			; 0.296281
	DD	03e93aaf8r			; 0.288414
	DD	0bf1326e6r			; -0.574812
	DD	0bf4409b3r			; -0.765773
	DD	0bd9392a2r			; -0.072057
	DD	0beaa2adcr			; -0.332358
	DD	0bebbaa1ar			; -0.366532
	DD	03e8fd167r			; 0.280894
	DD	03e897fb1r			; 0.268552
	DD	0340831ffr			; 1.26842e-07
	DD	0bf1b6867r			; -0.607062
	DD	0bf4b6e7ar			; -0.794654
	DD	000000000r			; 0
	DD	0be6ec6c9r			; -0.23318
	DD	0bee274cer			; -0.442297
	DD	03e800000r			; 0.25
	DD	03eb0ede5r			; 0.345565
	DD	034083200r			; 1.26842e-07
	DD	0bf1b6868r			; -0.607062
	DD	0bf4b6e7dr			; -0.794655
	DD	03d9392a1r			; 0.072057
	DD	0beaa2adbr			; -0.332358
	DD	0bebbaa1ar			; -0.366532
	DD	03e605d32r			; 0.219106
	DD	03e897fb2r			; 0.268552
	DD	0340831ffr			; 1.26842e-07
	DD	0bf1b6868r			; -0.607062
	DD	0bf4b6e7cr			; -0.794655
	DD	0be5e26b0r			; -0.216944
	DD	0be98e1e6r			; -0.298598
	DD	0beacb321r			; -0.337304
	DD	03eae932cr			; 0.340967
	DD	03e97b227r			; 0.296281
	DD	0be93aafbr			; -0.288414
	DD	0bf1326e6r			; -0.574812
	DD	0bf4409b3r			; -0.765773
	DD	0be1e377ar			; -0.154509
	DD	0be59c441r			; -0.212663
	DD	0bed9c441r			; -0.425325
	DD	03e9c64e6r			; 0.305457
	DD	03eb866d8r			; 0.36016
	DD	0be93aafcr			; -0.288414
	DD	0bf1326e6r			; -0.574812
	DD	0bf4409b4r			; -0.765773
	DD	0bd9392a2r			; -0.072057
	DD	0beaa2adcr			; -0.332358
	DD	0bebbaa1ar			; -0.366532
	DD	03e8fd167r			; 0.280894
	DD	03e897fb1r			; 0.268552
	DD	0be93aafbr			; -0.288414
	DD	0bf1326e5r			; -0.574812
	DD	0bf4409b3r			; -0.765773
	DD	03e0be9b0r			; 0.136634
	DD	0bed17a63r			; -0.409137
	DD	0be8176e5r			; -0.25286
	DD	03e2f42e9r			; 0.171154
	DD	03e479c15r			; 0.194931
	DD	03ecd7d17r			; 0.401345
	DD	0bf38d9b5r			; -0.722072
	DD	0bf1041abr			; -0.563502
	DD	03e5e26b0r			; 0.216944
	DD	0be98e1e6r			; -0.298598
	DD	0beacb321r			; -0.337304
	DD	03e22d9a6r			; 0.159033
	DD	03e97b227r			; 0.296281
	DD	03ecd7d14r			; 0.401345
	DD	0bf38d9b2r			; -0.722072
	DD	0bf1041aar			; -0.563502
	DD	03e869652r			; 0.262866
	DD	0beb93e4er			; -0.361803
	DD	0be64f923r			; -0.223607
	DD	03de5c099r			; 0.112184
	DD	03e784d6dr			; 0.242483
	DD	03ecd7d15r			; 0.401345
	DD	0bf38d9b3r			; -0.722072
	DD	0bf1041abr			; -0.563502
	DD	000000000r			; 0
	DD	0bed9c444r			; -0.425326
	DD	0be86964ar			; -0.262865
	DD	03e800000r			; 0.25
	DD	03e346fe3r			; 0.176208
	DD	03e0c7d4ar			; 0.137197
	DD	0bf486f14r			; -0.782945
	DD	0bf1b5587r			; -0.606774
	DD	03d9392a1r			; 0.072057
	DD	0beaa2adbr			; -0.332358
	DD	0bebbaa1ar			; -0.366532
	DD	03e605d32r			; 0.219106
	DD	03e897fb2r			; 0.268552
	DD	03e0c7d4br			; 0.137197
	DD	0bf486f13r			; -0.782945
	DD	0bf1b5587r			; -0.606774
	DD	03e0be9b0r			; 0.136634
	DD	0bed17a63r			; -0.409137
	DD	0be8176e5r			; -0.25286
	DD	03e2f42e9r			; 0.171154
	DD	03e479c15r			; 0.194931
	DD	03e0c7d4ar			; 0.137197
	DD	0bf486f13r			; -0.782945
	DD	0bf1b5587r			; -0.606774
	DD	0be0be9b0r			; -0.136634
	DD	0bed17a63r			; -0.409137
	DD	0be8176e5r			; -0.25286
	DD	03ea85e8cr			; 0.328846
	DD	03e479c15r			; 0.194931
	DD	0be0c7d4ar			; -0.137197
	DD	0bf486f15r			; -0.782945
	DD	0bf1b5585r			; -0.606774
	DD	0bd9392a2r			; -0.072057
	DD	0beaa2adcr			; -0.332358
	DD	0bebbaa1ar			; -0.366532
	DD	03e8fd167r			; 0.280894
	DD	03e897fb1r			; 0.268552
	DD	0be0c7d4br			; -0.137197
	DD	0bf486f15r			; -0.782945
	DD	0bf1b5585r			; -0.606774
	DD	000000000r			; 0
	DD	0bed9c444r			; -0.425326
	DD	0be86964ar			; -0.262865
	DD	03e800000r			; 0.25
	DD	03e346fe3r			; 0.176208
	DD	0be0c7d49r			; -0.137197
	DD	0bf486f14r			; -0.782945
	DD	0bf1b5584r			; -0.606774
	DD	0be869652r			; -0.262866
	DD	0beb93e4er			; -0.361803
	DD	0be64f923r			; -0.223607
	DD	03ec68fdar			; 0.387816
	DD	03e784d6dr			; 0.242483
	DD	0becd7d15r			; -0.401345
	DD	0bf38d9b3r			; -0.722072
	DD	0bf1041abr			; -0.563502
	DD	0be5e26b0r			; -0.216944
	DD	0be98e1e6r			; -0.298598
	DD	0beacb321r			; -0.337304
	DD	03eae932cr			; 0.340967
	DD	03e97b227r			; 0.296281
	DD	0becd7d14r			; -0.401345
	DD	0bf38d9b2r			; -0.722072
	DD	0bf1041aar			; -0.563502
	DD	0be0be9b0r			; -0.136634
	DD	0bed17a63r			; -0.409137
	DD	0be8176e5r			; -0.25286
	DD	03ea85e8cr			; 0.328846
	DD	03e479c15r			; 0.194931
	DD	0becd7d17r			; -0.401345
	DD	0bf38d9b5r			; -0.722072
	DD	0bf1041abr			; -0.563502
	DD	0bda479fbr			; -0.0803108
	DD	0bde261ear			; -0.110538
	DD	0bef6419cr			; -0.480969
	DD	03e8d7b6cr			; 0.276332
	DD	03edbab84r			; 0.429043
	DD	000000000r			; 0
	DD	0be99f8f6r			; -0.300728
	DD	0bf742658r			; -0.95371
	DD	03da479fbr			; 0.0803108
	DD	0bde261ear			; -0.110538
	DD	0bef6419cr			; -0.480969
	DD	03e650928r			; 0.223668
	DD	03edbab84r			; 0.429043
	DD	000000000r			; 0
	DD	0be99f8f6r			; -0.300728
	DD	0bf742658r			; -0.95371
	DD	000000000r			; 0
	DD	0be6ec6c9r			; -0.23318
	DD	0bee274cer			; -0.442297
	DD	03e800000r			; 0.25
	DD	03eb0ede5r			; 0.345565
	DD	000000000r			; 0
	DD	0be99f8f7r			; -0.300728
	DD	0bf742659r			; -0.95371
	DD	000000000r			; 0
	DD	0be6ec6c9r			; -0.23318
	DD	0bee274cer			; -0.442297
	DD	03e800000r			; 0.25
	DD	03eb0ede5r			; 0.345565
	DD	03e253758r			; 0.161344
	DD	0bf05bca7r			; -0.52241
	DD	0bf5658b2r			; -0.837291
	DD	03e1e377ar			; 0.154509
	DD	0be59c441r			; -0.212663
	DD	0bed9c441r			; -0.425325
	DD	03e473633r			; 0.194543
	DD	03eb866d8r			; 0.36016
	DD	03e253759r			; 0.161344
	DD	0bf05bca8r			; -0.52241
	DD	0bf5658b3r			; -0.837291
	DD	03d9392a1r			; 0.072057
	DD	0beaa2adbr			; -0.332358
	DD	0bebbaa1ar			; -0.366532
	DD	03e605d32r			; 0.219106
	DD	03e897fb2r			; 0.268552
	DD	03e253758r			; 0.161344
	DD	0bf05bca7r			; -0.52241
	DD	0bf5658b2r			; -0.837291
	DD	0be1e377ar			; -0.154509
	DD	0be59c441r			; -0.212663
	DD	0bed9c441r			; -0.425325
	DD	03e9c64e6r			; 0.305457
	DD	03eb866d8r			; 0.36016
	DD	0be253758r			; -0.161344
	DD	0bf05bca7r			; -0.52241
	DD	0bf5658b4r			; -0.837291
	DD	000000000r			; 0
	DD	0be6ec6c9r			; -0.23318
	DD	0bee274cer			; -0.442297
	DD	03e800000r			; 0.25
	DD	03eb0ede5r			; 0.345565
	DD	0be253757r			; -0.161344
	DD	0bf05bca6r			; -0.52241
	DD	0bf5658b3r			; -0.837291
	DD	0bd9392a2r			; -0.072057
	DD	0beaa2adcr			; -0.332358
	DD	0bebbaa1ar			; -0.366532
	DD	03e8fd167r			; 0.280894
	DD	03e897fb1r			; 0.268552
	DD	0be253757r			; -0.161344
	DD	0bf05bca6r			; -0.52241
	DD	0bf5658b3r			; -0.837291
	DD	03d9392a1r			; 0.072057
	DD	0beaa2adbr			; -0.332358
	DD	0bebbaa1ar			; -0.366532
	DD	03e605d32r			; 0.219106
	DD	03e897fb2r			; 0.268552
	DD	03e96c077r			; 0.294437
	DD	0bf34bb7ar			; -0.705986
	DD	0bf24e510r			; -0.64412
	DD	03e5e26b0r			; 0.216944
	DD	0be98e1e6r			; -0.298598
	DD	0beacb321r			; -0.337304
	DD	03e22d9a6r			; 0.159033
	DD	03e97b227r			; 0.296281
	DD	03e96c078r			; 0.294437
	DD	0bf34bb7br			; -0.705986
	DD	0bf24e511r			; -0.64412
	DD	03e0be9b0r			; 0.136634
	DD	0bed17a63r			; -0.409137
	DD	0be8176e5r			; -0.25286
	DD	03e2f42e9r			; 0.171154
	DD	03e479c15r			; 0.194931
	DD	03e96c077r			; 0.294437
	DD	0bf34bb7br			; -0.705986
	DD	0bf24e510r			; -0.64412
	DD	0bd9392a2r			; -0.072057
	DD	0beaa2adcr			; -0.332358
	DD	0bebbaa1ar			; -0.366532
	DD	03e8fd167r			; 0.280894
	DD	03e897fb1r			; 0.268552
	DD	03430a61cr			; 1.64517e-07
	DD	0bf3e9656r			; -0.744481
	DD	0bf2aeaabr			; -0.667643
	DD	03d9392a1r			; 0.072057
	DD	0beaa2adbr			; -0.332358
	DD	0bebbaa1ar			; -0.366532
	DD	03e605d32r			; 0.219106
	DD	03e897fb2r			; 0.268552
	DD	03430a61cr			; 1.64517e-07
	DD	0bf3e9656r			; -0.744481
	DD	0bf2aeaaar			; -0.667643
	DD	000000000r			; 0
	DD	0bed9c444r			; -0.425326
	DD	0be86964ar			; -0.262865
	DD	03e800000r			; 0.25
	DD	03e346fe3r			; 0.176208
	DD	03430a61cr			; 1.64517e-07
	DD	0bf3e9656r			; -0.744481
	DD	0bf2aeaaar			; -0.667643
	DD	0be5e26b0r			; -0.216944
	DD	0be98e1e6r			; -0.298598
	DD	0beacb321r			; -0.337304
	DD	03eae932cr			; 0.340967
	DD	03e97b227r			; 0.296281
	DD	0be96c07dr			; -0.294437
	DD	0bf34bb7br			; -0.705986
	DD	0bf24e50er			; -0.64412
	DD	0bd9392a2r			; -0.072057
	DD	0beaa2adcr			; -0.332358
	DD	0bebbaa1ar			; -0.366532
	DD	03e8fd167r			; 0.280894
	DD	03e897fb1r			; 0.268552
	DD	0be96c07er			; -0.294437
	DD	0bf34bb7cr			; -0.705986
	DD	0bf24e50fr			; -0.64412
	DD	0be0be9b0r			; -0.136634
	DD	0bed17a63r			; -0.409137
	DD	0be8176e5r			; -0.25286
	DD	03ea85e8cr			; 0.328846
	DD	03e479c15r			; 0.194931
	DD	0be96c07er			; -0.294437
	DD	0bf34bb7dr			; -0.705986
	DD	0bf24e50fr			; -0.64412
	DD	0be051074r			; -0.129946
	DD	03d2cf0ebr			; 0.0422219
	DD	0bef6419cr			; -0.480969
	DD	03e95809er			; 0.291997
	DD	03f06e3aar			; 0.526911
	DD	0be253c79r			; -0.161363
	DD	0bd56c100r			; -0.0524302
	DD	0bf7c49d0r			; -0.985501
	DD	000000000r			; 0
	DD	000000000r			; 0
	DD	0bf000000r			; -0.5
	DD	03e800000r			; 0.25
	DD	03f000000r			; 0.5
	DD	0be253c7ar			; -0.161364
	DD	0bd56c101r			; -0.0524302
	DD	0bf7c49d1r			; -0.985501
	DD	0bda479fbr			; -0.0803108
	DD	0bde261ear			; -0.110538
	DD	0bef6419cr			; -0.480969
	DD	03e8d7b6cr			; 0.276332
	DD	03edbab84r			; 0.429043
	DD	0be253c79r			; -0.161363
	DD	0bd56c101r			; -0.0524302
	DD	0bf7c49d1r			; -0.985501
	DD	0be631708r			; -0.221768
	DD	0bd939266r			; -0.0720566
	DD	0bee274cfr			; -0.442297
	DD	03ea5df61r			; 0.32397
	DD	03ee86e60r			; 0.453967
	DD	0bea405e2r			; -0.320357
	DD	0be86b3a4r			; -0.263089
	DD	0bf68f7ber			; -0.91003
	DD	0bda479fbr			; -0.0803108
	DD	0bde261ear			; -0.110538
	DD	0bef6419cr			; -0.480969
	DD	03e8d7b6cr			; 0.276332
	DD	03edbab84r			; 0.429043
	DD	0bea405e2r			; -0.320357
	DD	0be86b3a3r			; -0.263089
	DD	0bf68f7bfr			; -0.91003
	DD	0be1e377ar			; -0.154509
	DD	0be59c441r			; -0.212663
	DD	0bed9c441r			; -0.425325
	DD	03e9c64e6r			; 0.305457
	DD	03eb866d8r			; 0.36016
	DD	0bea405e2r			; -0.320357
	DD	0be86b3a4r			; -0.263089
	DD	0bf68f7bfr			; -0.91003
	DD	0be7fffffr			; -0.25
	DD	03da65bf1r			; 0.0812301
	DD	0bed9c440r			; -0.425325
	DD	03eab4d31r			; 0.334573
	DD	03f0d4c21r			; 0.551943
	DD	0bed3df85r			; -0.413815
	DD	03cc90dbdr			; 0.0245427
	DD	0bf68f7bdr			; -0.91003
	DD	0be051074r			; -0.129946
	DD	03d2cf0ebr			; 0.0422219
	DD	0bef6419cr			; -0.480969
	DD	03e95809er			; 0.291997
	DD	03f06e3aar			; 0.526911
	DD	0bed3df86r			; -0.413815
	DD	03cc90dber			; 0.0245427
	DD	0bf68f7ber			; -0.91003
	DD	0be631708r			; -0.221768
	DD	0bd939266r			; -0.0720566
	DD	0bee274cfr			; -0.442297
	DD	03ea5df61r			; 0.32397
	DD	03ee86e60r			; 0.453967
	DD	0bed3df86r			; -0.413815
	DD	03cc90dber			; 0.0245427
	DD	0bf68f7ber			; -0.91003
	DD	0be96702dr			; -0.293825
	DD	0be2f581dr			; -0.171235
	DD	0bebbaa1ar			; -0.366532
	DD	03eb7105fr			; 0.357547
	DD	03ec70881r			; 0.388737
	DD	0beea4493r			; -0.457554
	DD	0bee762a3r			; -0.451924
	DD	0bf4409b3r			; -0.765773
	DD	0be1e377ar			; -0.154509
	DD	0be59c441r			; -0.212663
	DD	0bed9c441r			; -0.425325
	DD	03e9c64e6r			; 0.305457
	DD	03eb866d8r			; 0.36016
	DD	0beea4494r			; -0.457554
	DD	0bee762a3r			; -0.451924
	DD	0bf4409b3r			; -0.765773
	DD	0be5e26b0r			; -0.216944
	DD	0be98e1e6r			; -0.298598
	DD	0beacb321r			; -0.337304
	DD	03eae932cr			; 0.340967
	DD	03e97b227r			; 0.296281
	DD	0beea4493r			; -0.457554
	DD	0bee762a3r			; -0.451924
	DD	0bf4409b3r			; -0.765773
	DD	0bead3d4cr			; -0.338358
	DD	0bd0bf9f1r			; -0.0341739
	DD	0bebbaa1ar			; -0.366532
	DD	03ebcbea8r			; 0.368642
	DD	03ef4da33r			; 0.478227
	DD	0bf13cd3dr			; -0.57735
	DD	0be40183fr			; -0.187592
	DD	0bf4b6e77r			; -0.794654
	DD	0be631708r			; -0.221768
	DD	0bd939266r			; -0.0720566
	DD	0bee274cfr			; -0.442297
	DD	03ea5df61r			; 0.32397
	DD	03ee86e60r			; 0.453967
	DD	0bf13cd3dr			; -0.57735
	DD	0be40183fr			; -0.187592
	DD	0bf4b6e77r			; -0.794654
	DD	0be96702dr			; -0.293825
	DD	0be2f581dr			; -0.171235
	DD	0bebbaa1ar			; -0.366532
	DD	03eb7105fr			; 0.357547
	DD	03ec70881r			; 0.388737
	DD	0bf13cd3dr			; -0.57735
	DD	0be40183fr			; -0.187592
	DD	0bf4b6e77r			; -0.794654
	DD	0beb3b959r			; -0.351023
	DD	03de99579r			; 0.114055
	DD	0beacb320r			; -0.337304
	DD	03ec19fbbr			; 0.378172
	DD	03f12c0ccr			; 0.573254
	DD	0bf22c409r			; -0.635804
	DD	03dc5fba9r			; 0.0966714
	DD	0bf4409b2r			; -0.765773
	DD	0be7fffffr			; -0.25
	DD	03da65bf1r			; 0.0812301
	DD	0bed9c440r			; -0.425325
	DD	03eab4d31r			; 0.334573
	DD	03f0d4c21r			; 0.551943
	DD	0bf22c40ar			; -0.635804
	DD	03dc5fbabr			; 0.0966714
	DD	0bf4409b3r			; -0.765773
	DD	0bead3d4cr			; -0.338358
	DD	0bd0bf9f1r			; -0.0341739
	DD	0bebbaa1ar			; -0.366532
	DD	03ebcbea8r			; 0.368642
	DD	03ef4da33r			; 0.478227
	DD	0bf22c409r			; -0.635804
	DD	03dc5fbabr			; 0.0966714
	DD	0bf4409b3r			; -0.765773
	DD	0beb19b96r			; -0.34689
	DD	0be8343c9r			; -0.256377
	DD	0be8176e5r			; -0.25286
	DD	03eccac2er			; 0.399751
	DD	03ea8419fr			; 0.328626
	DD	0bf100db0r			; -0.562709
	DD	0bf1ad668r			; -0.604834
	DD	0bf1041abr			; -0.563502
	DD	0be5e26b0r			; -0.216944
	DD	0be98e1e6r			; -0.298598
	DD	0beacb321r			; -0.337304
	DD	03eae932cr			; 0.340967
	DD	03e97b227r			; 0.296281
	DD	0bf100dafr			; -0.562709
	DD	0bf1ad668r			; -0.604834
	DD	0bf1041abr			; -0.563502
	DD	0be869652r			; -0.262866
	DD	0beb93e4er			; -0.361803
	DD	0be64f923r			; -0.223607
	DD	03ec68fdar			; 0.387816
	DD	03e784d6dr			; 0.242483
	DD	0bf100dafr			; -0.562709
	DD	0bf1ad668r			; -0.604834
	DD	0bf1041abr			; -0.563502
	DD	0becf1bc1r			; -0.404509
	DD	0be06964br			; -0.131433
	DD	0be86964br			; -0.262865
	DD	03ed10aber			; 0.408285
	DD	03ed4a676r			; 0.415332
	DD	0bf33c53fr			; -0.702228
	DD	0bebeae7fr			; -0.372425
	DD	0bf1b5589r			; -0.606774
	DD	0be96702dr			; -0.293825
	DD	0be2f581dr			; -0.171235
	DD	0bebbaa1ar			; -0.366532
	DD	03eb7105fr			; 0.357547
	DD	03ec70881r			; 0.388737
	DD	0bf33c53fr			; -0.702228
	DD	0bebeae7er			; -0.372425
	DD	0bf1b5589r			; -0.606774
	DD	0beb19b96r			; -0.34689
	DD	0be8343c9r			; -0.256377
	DD	0be8176e5r			; -0.25286
	DD	03eccac2er			; 0.399751
	DD	03ea8419fr			; 0.328626
	DD	0bf33c53fr			; -0.702228
	DD	0bebeae80r			; -0.372425
	DD	0bf1b558ar			; -0.606774
	DD	0bedcd7dcr			; -0.431334
	DD	03b667124r			; 0.00351627
	DD	0be8176e5r			; -0.25286
	DD	03ed4caf9r			; 0.415611
	DD	03f0092b4r			; 0.502239
	DD	0bf497a35r			; -0.787021
	DD	0bde445afr			; -0.111461
	DD	0bf1b5587r			; -0.606774
	DD	0bead3d4cr			; -0.338358
	DD	0bd0bf9f1r			; -0.0341739
	DD	0bebbaa1ar			; -0.366532
	DD	03ebcbea8r			; 0.368642
	DD	03ef4da33r			; 0.478227
	DD	0bf497a35r			; -0.787021
	DD	0bde445afr			; -0.111461
	DD	0bf1b5587r			; -0.606774
	DD	0becf1bc1r			; -0.404509
	DD	0be06964br			; -0.131433
	DD	0be86964br			; -0.262865
	DD	03ed10aber			; 0.408285
	DD	03ed4a676r			; 0.415332
	DD	0bf497a35r			; -0.787021
	DD	0bde445aer			; -0.111461
	DD	0bf1b5588r			; -0.606774
	DD	0bed9c441r			; -0.425325
	DD	03e0d8379r			; 0.138197
	DD	0be64f921r			; -0.223607
	DD	03ed88efcr			; 0.422966
	DD	03f16d1d6r			; 0.589139
	DD	0bf4f8d8ar			; -0.810753
	DD	03e226018r			; 0.15857
	DD	0bf1041acr			; -0.563502
	DD	0beb3b959r			; -0.351023
	DD	03de99579r			; 0.114055
	DD	0beacb320r			; -0.337304
	DD	03ec19fbbr			; 0.378172
	DD	03f12c0ccr			; 0.573254
	DD	0bf4f8d89r			; -0.810753
	DD	03e226015r			; 0.15857
	DD	0bf1041abr			; -0.563502
	DD	0bedcd7dcr			; -0.431334
	DD	03b667124r			; 0.00351627
	DD	0be8176e5r			; -0.25286
	DD	03ed4caf9r			; 0.415611
	DD	03f0092b4r			; 0.502239
	DD	0bf4f8d89r			; -0.810753
	DD	03e226017r			; 0.15857
	DD	0bf1041abr			; -0.563502
	DD	0be051074r			; -0.129946
	DD	03d2cf0ebr			; 0.0422219
	DD	0bef6419cr			; -0.480969
	DD	03e95809er			; 0.291997
	DD	03f06e3aar			; 0.526911
	DD	0be926fbbr			; -0.286009
	DD	0bdbe51fbr			; -0.0929298
	DD	0bf74265ar			; -0.95371
	DD	0bda479fbr			; -0.0803108
	DD	0bde261ear			; -0.110538
	DD	0bef6419cr			; -0.480969
	DD	03e8d7b6cr			; 0.276332
	DD	03edbab84r			; 0.429043
	DD	0be926fbbr			; -0.286009
	DD	0bdbe51fbr			; -0.0929298
	DD	0bf74265ar			; -0.95371
	DD	0be631708r			; -0.221768
	DD	0bd939266r			; -0.0720566
	DD	0bee274cfr			; -0.442297
	DD	03ea5df61r			; 0.32397
	DD	03ee86e60r			; 0.453967
	DD	0be926fbbr			; -0.286009
	DD	0bdbe51fbr			; -0.0929298
	DD	0bf742659r			; -0.95371
	DD	0be631708r			; -0.221768
	DD	0bd939266r			; -0.0720566
	DD	0bee274cfr			; -0.442297
	DD	03ea5df61r			; 0.32397
	DD	03ee86e60r			; 0.453967
	DD	0bee4db09r			; -0.446984
	DD	0bea13813r			; -0.314881
	DD	0bf5658afr			; -0.837291
	DD	0be1e377ar			; -0.154509
	DD	0be59c441r			; -0.212663
	DD	0bed9c441r			; -0.425325
	DD	03e9c64e6r			; 0.305457
	DD	03eb866d8r			; 0.36016
	DD	0bee4db09r			; -0.446984
	DD	0bea13812r			; -0.314881
	DD	0bf5658aer			; -0.837291
	DD	0be96702dr			; -0.293825
	DD	0be2f581dr			; -0.171235
	DD	0bebbaa1ar			; -0.366532
	DD	03eb7105fr			; 0.357547
	DD	03ec70881r			; 0.388737
	DD	0bee4db09r			; -0.446984
	DD	0bea13813r			; -0.314881
	DD	0bf5658afr			; -0.837291
	DD	0be7fffffr			; -0.25
	DD	03da65bf1r			; 0.0812301
	DD	0bed9c440r			; -0.425325
	DD	03eab4d31r			; 0.334573
	DD	03f0d4c21r			; 0.551943
	DD	0bf0bf480r			; -0.5467
	DD	0bc02d74fr			; -0.0079859
	DD	0bf5658b0r			; -0.837291
	DD	0be631708r			; -0.221768
	DD	0bd939266r			; -0.0720566
	DD	0bee274cfr			; -0.442297
	DD	03ea5df61r			; 0.32397
	DD	03ee86e60r			; 0.453967
	DD	0bf0bf480r			; -0.5467
	DD	0bc02d74fr			; -0.0079859
	DD	0bf5658b1r			; -0.837291
	DD	0bead3d4cr			; -0.338358
	DD	0bd0bf9f1r			; -0.0341739
	DD	0bebbaa1ar			; -0.366532
	DD	03ebcbea8r			; 0.368642
	DD	03ef4da33r			; 0.478227
	DD	0bf0bf480r			; -0.5467
	DD	0bc02d74fr			; -0.0079859
	DD	0bf5658b0r			; -0.837291
	DD	0be96702dr			; -0.293825
	DD	0be2f581dr			; -0.171235
	DD	0bebbaa1ar			; -0.366532
	DD	03eb7105fr			; 0.357547
	DD	03ec70881r			; 0.388737
	DD	0bf149821r			; -0.580446
	DD	0beff1276r			; -0.498188
	DD	0bf24e512r			; -0.64412
	DD	0be5e26b0r			; -0.216944
	DD	0be98e1e6r			; -0.298598
	DD	0beacb321r			; -0.337304
	DD	03eae932cr			; 0.340967
	DD	03e97b227r			; 0.296281
	DD	0bf149822r			; -0.580446
	DD	0beff1276r			; -0.498188
	DD	0bf24e513r			; -0.64412
	DD	0beb19b96r			; -0.34689
	DD	0be8343c9r			; -0.256377
	DD	0be8176e5r			; -0.25286
	DD	03eccac2er			; 0.399751
	DD	03ea8419fr			; 0.328626
	DD	0bf149821r			; -0.580446
	DD	0beff1274r			; -0.498188
	DD	0bf24e512r			; -0.64412
	DD	0bead3d4cr			; -0.338358
	DD	0bd0bf9f1r			; -0.0341739
	DD	0bebbaa1ar			; -0.366532
	DD	03ebcbea8r			; 0.368642
	DD	03ef4da33r			; 0.478227
	DD	0bf35425br			; -0.708044
	DD	0be6b9426r			; -0.230057
	DD	0bf2aeaafr			; -0.667643
	DD	0be96702dr			; -0.293825
	DD	0be2f581dr			; -0.171235
	DD	0bebbaa1ar			; -0.366532
	DD	03eb7105fr			; 0.357547
	DD	03ec70881r			; 0.388737
	DD	0bf35425ar			; -0.708044
	DD	0be6b9424r			; -0.230057
	DD	0bf2aeaaer			; -0.667643
	DD	0becf1bc1r			; -0.404509
	DD	0be06964br			; -0.131433
	DD	0be86964br			; -0.262865
	DD	03ed10aber			; 0.408285
	DD	03ed4a676r			; 0.415332
	DD	0bf35425ar			; -0.708044
	DD	0be6b9424r			; -0.230057
	DD	0bf2aeaaer			; -0.667643
	DD	0beb3b959r			; -0.351023
	DD	03de99579r			; 0.114055
	DD	0beacb320r			; -0.337304
	DD	03ec19fbbr			; 0.378172
	DD	03f12c0ccr			; 0.573254
	DD	0bf432ddar			; -0.762418
	DD	03d7d6672r			; 0.0618653
	DD	0bf24e511r			; -0.64412
	DD	0bead3d4cr			; -0.338358
	DD	0bd0bf9f1r			; -0.0341739
	DD	0bebbaa1ar			; -0.366532
	DD	03ebcbea8r			; 0.368642
	DD	03ef4da33r			; 0.478227
	DD	0bf432ddar			; -0.762418
	DD	03d7d6673r			; 0.0618653
	DD	0bf24e511r			; -0.64412
	DD	0bedcd7dcr			; -0.431334
	DD	03b667124r			; 0.00351627
	DD	0be8176e5r			; -0.25286
	DD	03ed4caf9r			; 0.415611
	DD	03f0092b4r			; 0.502239
	DD	0bf432ddar			; -0.762418
	DD	03d7d6672r			; 0.0618653
	DD	0bf24e511r			; -0.64412
	DD	000000000r			; 0
	DD	03e0be97fr			; 0.136633
	DD	0bef6419cr			; -0.480969
	DD	03e800000r			; 0.25
	DD	03f168dfar			; 0.588104
	DD	0bdcc3e39r			; -0.0997281
	DD	03e0c8eebr			; 0.137264
	DD	0bf7c49d1r			; -0.985501
	DD	000000000r			; 0
	DD	000000000r			; 0
	DD	0bf000000r			; -0.5
	DD	03e800000r			; 0.25
	DD	03f000000r			; 0.5
	DD	0bdcc3e38r			; -0.099728
	DD	03e0c8eear			; 0.137264
	DD	0bf7c49d0r			; -0.985501
	DD	0be051074r			; -0.129946
	DD	03d2cf0ebr			; 0.0422219
	DD	0bef6419cr			; -0.480969
	DD	03e95809er			; 0.291997
	DD	03f06e3aar			; 0.526911
	DD	0bdcc3e3ar			; -0.0997281
	DD	03e0c8eebr			; 0.137264
	DD	0bf7c49d1r			; -0.985501
	DD	0be0c596br			; -0.13706
	DD	03e412ca1r			; 0.188647
	DD	0bee274cdr			; -0.442297
	DD	03e987c9cr			; 0.297826
	DD	03f1f8672r			; 0.623145
	DD	0beb2cb7br			; -0.349209
	DD	03e64bd84r			; 0.223379
	DD	0bf68f7ber			; -0.91003
	DD	0be051074r			; -0.129946
	DD	03d2cf0ebr			; 0.0422219
	DD	0bef6419cr			; -0.480969
	DD	03e95809er			; 0.291997
	DD	03f06e3aar			; 0.526911
	DD	0beb2cb7br			; -0.349209
	DD	03e64bd85r			; 0.223379
	DD	0bf68f7ber			; -0.91003
	DD	0be7fffffr			; -0.25
	DD	03da65bf1r			; 0.0812301
	DD	0bed9c440r			; -0.425325
	DD	03eab4d31r			; 0.334573
	DD	03f0d4c21r			; 0.551943
	DD	0beb2cb7br			; -0.349209
	DD	03e64bd85r			; 0.223379
	DD	0bf68f7bfr			; -0.91003
	DD	000000000r			; 0
	DD	03e869652r			; 0.262866
	DD	0bed9c440r			; -0.425325
	DD	03e800000r			; 0.25
	DD	03f2d1bfcr			; 0.676208
	DD	0bdd61643r			; -0.104535
	DD	03ecd62e8r			; 0.401145
	DD	0bf68f7bfr			; -0.91003
	DD	000000000r			; 0
	DD	03e0be97fr			; 0.136633
	DD	0bef6419cr			; -0.480969
	DD	03e800000r			; 0.25
	DD	03f168dfar			; 0.588104
	DD	0bdd61644r			; -0.104535
	DD	03ecd62e9r			; 0.401145
	DD	0bf68f7ber			; -0.91003
	DD	0be0c596br			; -0.13706
	DD	03e412ca1r			; 0.188647
	DD	0bee274cdr			; -0.442297
	DD	03e987c9cr			; 0.297826
	DD	03f1f8672r			; 0.623145
	DD	0bdd61643r			; -0.104535
	DD	03ecd62e9r			; 0.401145
	DD	0bf68f7ber			; -0.91003
	DD	0be81de7dr			; -0.253651
	DD	03e67f75br			; 0.22653
	DD	0bebbaa19r			; -0.366532
	DD	03eb1542er			; 0.346345
	DD	03f265099r			; 0.649667
	DD	0bf123a06r			; -0.571198
	DD	03e974cc3r			; 0.295508
	DD	0bf4409b2r			; -0.765773
	DD	0be7fffffr			; -0.25
	DD	03da65bf1r			; 0.0812301
	DD	0bed9c440r			; -0.425325
	DD	03eab4d31r			; 0.334573
	DD	03f0d4c21r			; 0.551943
	DD	0bf123a07r			; -0.571198
	DD	03e974cc4r			; 0.295508
	DD	0bf4409b3r			; -0.765773
	DD	0beb3b959r			; -0.351023
	DD	03de99579r			; 0.114055
	DD	0beacb320r			; -0.337304
	DD	03ec19fbbr			; 0.378172
	DD	03f12c0ccr			; 0.573254
	DD	0bf123a06r			; -0.571198
	DD	03e974cc3r			; 0.295508
	DD	0bf4409b2r			; -0.765773
	DD	0be0c596dr			; -0.13706
	DD	03e9f5a88r			; 0.311238
	DD	0bebbaa17r			; -0.366532
	DD	03e9d28c7r			; 0.306952
	DD	03f36c05fr			; 0.713873
	DD	0beb6b155r			; -0.356822
	DD	03efb748fr			; 0.491124
	DD	0bf4b6e79r			; -0.794654
	DD	0be0c596br			; -0.13706
	DD	03e412ca1r			; 0.188647
	DD	0bee274cdr			; -0.442297
	DD	03e987c9cr			; 0.297826
	DD	03f1f8672r			; 0.623145
	DD	0beb6b155r			; -0.356822
	DD	03efb7491r			; 0.491124
	DD	0bf4b6e79r			; -0.794654
	DD	0be81de7dr			; -0.253651
	DD	03e67f75br			; 0.22653
	DD	0bebbaa19r			; -0.366532
	DD	03eb1542er			; 0.346345
	DD	03f265099r			; 0.649667
	DD	0beb6b156r			; -0.356822
	DD	03efb7492r			; 0.491124
	DD	0bf4b6e7br			; -0.794655
	DD	000000000r			; 0
	DD	03ebcf91ar			; 0.369088
	DD	0beacb31fr			; -0.337304
	DD	03e800000r			; 0.25
	DD	03f43a9fdr			; 0.764313
	DD	0bdd61633r			; -0.104535
	DD	03f22726dr			; 0.634558
	DD	0bf4409afr			; -0.765773
	DD	000000000r			; 0
	DD	03e869652r			; 0.262866
	DD	0bed9c440r			; -0.425325
	DD	03e800000r			; 0.25
	DD	03f2d1bfcr			; 0.676208
	DD	0bdd61634r			; -0.104535
	DD	03f22726er			; 0.634559
	DD	0bf4409b0r			; -0.765773
	DD	0be0c596dr			; -0.13706
	DD	03e9f5a88r			; 0.311238
	DD	0bebbaa17r			; -0.366532
	DD	03e9d28c7r			; 0.306952
	DD	03f36c05fr			; 0.713873
	DD	0bdd61634r			; -0.104535
	DD	03f22726fr			; 0.634559
	DD	0bf4409b0r			; -0.765773
	DD	0beb3b959r			; -0.351023
	DD	03e805a1fr			; 0.250688
	DD	0be8176e4r			; -0.25286
	DD	03ecd2195r			; 0.400647
	DD	03f2acbcfr			; 0.667172
	DD	0bf3fc62fr			; -0.749118
	DD	03eb24fa7r			; 0.348264
	DD	0bf1041adr			; -0.563502
	DD	0beb3b959r			; -0.351023
	DD	03de99579r			; 0.114055
	DD	0beacb320r			; -0.337304
	DD	03ec19fbbr			; 0.378172
	DD	03f12c0ccr			; 0.573254
	DD	0bf3fc62fr			; -0.749118
	DD	03eb24fa7r			; 0.348264
	DD	0bf1041acr			; -0.563502
	DD	0bed9c441r			; -0.425325
	DD	03e0d8379r			; 0.138197
	DD	0be64f921r			; -0.223607
	DD	03ed88efcr			; 0.422966
	DD	03f16d1d6r			; 0.589139
	DD	0bf3fc630r			; -0.749118
	DD	03eb24fa7r			; 0.348264
	DD	0bf1041adr			; -0.563502
	DD	0be7fffffr			; -0.25
	DD	03eb02d4fr			; 0.344096
	DD	0be869648r			; -0.262865
	DD	03ebdf4d0r			; 0.371008
	DD	03f3dd92dr			; 0.741595
	DD	0bf123a06r			; -0.571198
	DD	03f0d8296r			; 0.552774
	DD	0bf1b5583r			; -0.606774
	DD	0be81de7dr			; -0.253651
	DD	03e67f75br			; 0.22653
	DD	0bebbaa19r			; -0.366532
	DD	03eb1542er			; 0.346345
	DD	03f265099r			; 0.649667
	DD	0bf123a07r			; -0.571198
	DD	03f0d8297r			; 0.552774
	DD	0bf1b5583r			; -0.606774
	DD	0beb3b959r			; -0.351023
	DD	03e805a1fr			; 0.250688
	DD	0be8176e4r			; -0.25286
	DD	03ecd2195r			; 0.400647
	DD	03f2acbcfr			; 0.667172
	DD	0bf123a06r			; -0.571198
	DD	03f0d8296r			; 0.552774
	DD	0bf1b5583r			; -0.606774
	DD	0be051077r			; -0.129946
	DD	03ed29738r			; 0.41131
	DD	0be8176e3r			; -0.25286
	DD	03ea6aec5r			; 0.325552
	DD	03f4eb791r			; 0.807489
	DD	0beb2cb7er			; -0.349209
	DD	03f36cc82r			; 0.714058
	DD	0bf1b5586r			; -0.606774
	DD	0be0c596dr			; -0.13706
	DD	03e9f5a88r			; 0.311238
	DD	0bebbaa17r			; -0.366532
	DD	03e9d28c7r			; 0.306952
	DD	03f36c05fr			; 0.713873
	DD	0beb2cb7er			; -0.349209
	DD	03f36cc82r			; 0.714058
	DD	0bf1b5586r			; -0.606774
	DD	0be7fffffr			; -0.25
	DD	03eb02d4fr			; 0.344096
	DD	0be869648r			; -0.262865
	DD	03ebdf4d0r			; 0.371008
	DD	03f3dd92dr			; 0.741595
	DD	0beb2cb7fr			; -0.349209
	DD	03f36cc83r			; 0.714058
	DD	0bf1b5586r			; -0.606774
	DD	000000000r			; 0
	DD	03ee4f931r			; 0.447214
	DD	0be64f91fr			; -0.223607
	DD	03e800000r			; 0.25
	DD	03f5a37f9r			; 0.852417
	DD	0bdcc3e36r			; -0.099728
	DD	03f51f04fr			; 0.820073
	DD	0bf1041aar			; -0.563502
	DD	000000000r			; 0
	DD	03ebcf91ar			; 0.369088
	DD	0beacb31fr			; -0.337304
	DD	03e800000r			; 0.25
	DD	03f43a9fdr			; 0.764313
	DD	0bdcc3e38r			; -0.099728
	DD	03f51f04fr			; 0.820073
	DD	0bf1041aar			; -0.563502
	DD	0be051077r			; -0.129946
	DD	03ed29738r			; 0.41131
	DD	0be8176e3r			; -0.25286
	DD	03ea6aec5r			; 0.325552
	DD	03f4eb791r			; 0.807489
	DD	0bdcc3e38r			; -0.099728
	DD	03f51f050r			; 0.820073
	DD	0bf1041abr			; -0.563502
	DD	000000000r			; 0
	DD	03e0be97fr			; 0.136633
	DD	0bef6419cr			; -0.480969
	DD	03e800000r			; 0.25
	DD	03f168dfar			; 0.588104
	DD	0be35016er			; -0.176763
	DD	03e792208r			; 0.243294
	DD	0bf742656r			; -0.95371
	DD	0be051074r			; -0.129946
	DD	03d2cf0ebr			; 0.0422219
	DD	0bef6419cr			; -0.480969
	DD	03e95809er			; 0.291997
	DD	03f06e3aar			; 0.526911
	DD	0be35016er			; -0.176763
	DD	03e792208r			; 0.243294
	DD	0bf742656r			; -0.95371
	DD	0be0c596br			; -0.13706
	DD	03e412ca1r			; 0.188647
	DD	0bee274cdr			; -0.442297
	DD	03e987c9cr			; 0.297826
	DD	03f1f8672r			; 0.623145
	DD	0be35016fr			; -0.176763
	DD	03e792208r			; 0.243294
	DD	0bf742658r			; -0.95371
	DD	0be0c596br			; -0.13706
	DD	03e412ca1r			; 0.188647
	DD	0bee274cdr			; -0.442297
	DD	03e987c9cr			; 0.297826
	DD	03f1f8672r			; 0.623145
	DD	0bee00c6cr			; -0.437595
	DD	03ea7d5car			; 0.327803
	DD	0bf5658b3r			; -0.837291
	DD	0be7fffffr			; -0.25
	DD	03da65bf1r			; 0.0812301
	DD	0bed9c440r			; -0.425325
	DD	03eab4d31r			; 0.334573
	DD	03f0d4c21r			; 0.551943
	DD	0bee00c6cr			; -0.437595
	DD	03ea7d5c9r			; 0.327803
	DD	0bf5658b2r			; -0.837291
	DD	0be81de7dr			; -0.253651
	DD	03e67f75br			; 0.22653
	DD	0bebbaa19r			; -0.366532
	DD	03eb1542er			; 0.346345
	DD	03f265099r			; 0.649667
	DD	0bee00c6cr			; -0.437595
	DD	03ea7d5c9r			; 0.327803
	DD	0bf5658b3r			; -0.837291
	DD	000000000r			; 0
	DD	03e869652r			; 0.262866
	DD	0bed9c440r			; -0.425325
	DD	03e800000r			; 0.25
	DD	03f2d1bfcr			; 0.676208
	DD	0be34c592r			; -0.176535
	DD	03f047934r			; 0.517474
	DD	0bf5658aer			; -0.837291
	DD	0be0c596br			; -0.13706
	DD	03e412ca1r			; 0.188647
	DD	0bee274cdr			; -0.442297
	DD	03e987c9cr			; 0.297826
	DD	03f1f8672r			; 0.623145
	DD	0be34c593r			; -0.176535
	DD	03f047934r			; 0.517474
	DD	0bf5658aer			; -0.837291
	DD	0be0c596dr			; -0.13706
	DD	03e9f5a88r			; 0.311238
	DD	0bebbaa17r			; -0.366532
	DD	03e9d28c7r			; 0.306952
	DD	03f36c05fr			; 0.713873
	DD	0be34c593r			; -0.176535
	DD	03f047934r			; 0.517474
	DD	0bf5658aer			; -0.837291
	DD	0be81de7dr			; -0.253651
	DD	03e67f75br			; 0.22653
	DD	0bebbaa19r			; -0.366532
	DD	03eb1542er			; 0.346345
	DD	03f265099r			; 0.649667
	DD	0bf273655r			; -0.653173
	DD	03ecbd247r			; 0.398089
	DD	0bf24e50dr			; -0.64412
	DD	0beb3b959r			; -0.351023
	DD	03de99579r			; 0.114055
	DD	0beacb320r			; -0.337304
	DD	03ec19fbbr			; 0.378172
	DD	03f12c0ccr			; 0.573254
	DD	0bf273655r			; -0.653173
	DD	03ecbd246r			; 0.398089
	DD	0bf24e50dr			; -0.64412
	DD	0beb3b959r			; -0.351023
	DD	03e805a1fr			; 0.250688
	DD	0be8176e4r			; -0.25286
	DD	03ecd2195r			; 0.400647
	DD	03f2acbcfr			; 0.667172
	DD	0bf273656r			; -0.653173
	DD	03ecbd249r			; 0.398089
	DD	0bf24e50er			; -0.64412
	DD	0be0c596dr			; -0.13706
	DD	03e9f5a88r			; 0.311238
	DD	0bebbaa17r			; -0.366532
	DD	03e9d28c7r			; 0.306952
	DD	03f36c05fr			; 0.713873
	DD	0bee00c70r			; -0.437595
	DD	03f1a303br			; 0.602298
	DD	0bf2aeaa8r			; -0.667643
	DD	0be81de7dr			; -0.253651
	DD	03e67f75br			; 0.22653
	DD	0bebbaa19r			; -0.366532
	DD	03eb1542er			; 0.346345
	DD	03f265099r			; 0.649667
	DD	0bee00c72r			; -0.437595
	DD	03f1a303cr			; 0.602298
	DD	0bf2aeaa9r			; -0.667643
	DD	0be7fffffr			; -0.25
	DD	03eb02d4fr			; 0.344096
	DD	0be869648r			; -0.262865
	DD	03ebdf4d0r			; 0.371008
	DD	03f3dd92dr			; 0.741595
	DD	0bee00c70r			; -0.437595
	DD	03f1a303br			; 0.602298
	DD	0bf2aeaa8r			; -0.667643
	DD	000000000r			; 0
	DD	03ebcf91ar			; 0.369088
	DD	0beacb31fr			; -0.337304
	DD	03e800000r			; 0.25
	DD	03f43a9fdr			; 0.764313
	DD	0be350164r			; -0.176763
	DD	03f3e8539r			; 0.74422
	DD	0bf24e50er			; -0.64412
	DD	0be0c596dr			; -0.13706
	DD	03e9f5a88r			; 0.311238
	DD	0bebbaa17r			; -0.366532
	DD	03e9d28c7r			; 0.306952
	DD	03f36c05fr			; 0.713873
	DD	0be350165r			; -0.176763
	DD	03f3e8539r			; 0.74422
	DD	0bf24e50fr			; -0.64412
	DD	0be051077r			; -0.129946
	DD	03ed29738r			; 0.41131
	DD	0be8176e3r			; -0.25286
	DD	03ea6aec5r			; 0.325552
	DD	03f4eb791r			; 0.807489
	DD	0be350166r			; -0.176763
	DD	03f3e853br			; 0.74422
	DD	0bf24e510r			; -0.64412
	DD	0bda479fdr			; -0.0803108
	DD	03ef59195r			; 0.479626
	DD	0bdee089er			; -0.116227
	DD	03eb14563r			; 0.346233
	DD	03f68a86ar			; 0.90882
	DD	0be253c69r			; -0.161363
	DD	03f67a7f7r			; 0.904907
	DD	0bec9a4afr			; -0.393835
	DD	000000000r			; 0
	DD	03ee4f931r			; 0.447214
	DD	0be64f91fr			; -0.223607
	DD	03e800000r			; 0.25
	DD	03f5a37f9r			; 0.852417
	DD	0be253c69r			; -0.161363
	DD	03f67a7f8r			; 0.904907
	DD	0bec9a4afr			; -0.393835
	DD	0be051077r			; -0.129946
	DD	03ed29738r			; 0.41131
	DD	0be8176e3r			; -0.25286
	DD	03ea6aec5r			; 0.325552
	DD	03f4eb791r			; 0.807489
	DD	0be253c6ar			; -0.161363
	DD	03f67a7f9r			; 0.904907
	DD	0bec9a4afr			; -0.393835
	DD	0be631705r			; -0.221768
	DD	03edb0c39r			; 0.427828
	DD	0be088d63r			; -0.133352
	DD	03ed3e24dr			; 0.413836
	DD	03f53ac26r			; 0.826846
	DD	0bed3df81r			; -0.413815
	DD	03f4d901er			; 0.80298
	DD	0bedb9c99r			; -0.428929
	DD	0be051077r			; -0.129946
	DD	03ed29738r			; 0.41131
	DD	0be8176e3r			; -0.25286
	DD	03ea6aec5r			; 0.325552
	DD	03f4eb791r			; 0.807489
	DD	0bed3df81r			; -0.413815
	DD	03f4d901dr			; 0.80298
	DD	0bedb9c99r			; -0.428929
	DD	0be7fffffr			; -0.25
	DD	03eb02d4fr			; 0.344096
	DD	0be869648r			; -0.262865
	DD	03ebdf4d0r			; 0.371008
	DD	03f3dd92dr			; 0.741595
	DD	0bed3df82r			; -0.413815
	DD	03f4d901er			; 0.80298
	DD	0bedb9c9ar			; -0.428929
	DD	0be1e3779r			; -0.154508
	DD	03ef37872r			; 0.475528
	DD	000000000r			; 0
	DD	03f000000r			; 0.5
	DD	03f666667r			; 0.9
	DD	0bea405e2r			; -0.320357
	DD	03f6e7e31r			; 0.931613
	DD	0be2fc890r			; -0.171664
	DD	0bda479fdr			; -0.0803108
	DD	03ef59195r			; 0.479626
	DD	0bdee089er			; -0.116227
	DD	03eb14563r			; 0.346233
	DD	03f68a86ar			; 0.90882
	DD	0bea405e3r			; -0.320357
	DD	03f6e7e32r			; 0.931613
	DD	0be2fc891r			; -0.171664
	DD	0be631705r			; -0.221768
	DD	03edb0c39r			; 0.427828
	DD	0be088d63r			; -0.133352
	DD	03ed3e24dr			; 0.413836
	DD	03f53ac26r			; 0.826846
	DD	0bea405e1r			; -0.320357
	DD	03f6e7e30r			; 0.931613
	DD	0be2fc88fr			; -0.171664
	DD	0bead3d48r			; -0.338358
	DD	03eafad5er			; 0.34312
	DD	0be088d63r			; -0.133352
	DD	03ee16868r			; 0.44025
	DD	03f3da11dr			; 0.74074
	DD	0bf22c407r			; -0.635804
	DD	03f24462fr			; 0.641696
	DD	0bedb9c95r			; -0.428929
	DD	0be7fffffr			; -0.25
	DD	03eb02d4fr			; 0.344096
	DD	0be869648r			; -0.262865
	DD	03ebdf4d0r			; 0.371008
	DD	03f3dd92dr			; 0.741595
	DD	0bf22c406r			; -0.635804
	DD	03f244630r			; 0.641696
	DD	0bedb9c94r			; -0.428929
	DD	0beb3b959r			; -0.351023
	DD	03e805a1fr			; 0.250688
	DD	0be8176e4r			; -0.25286
	DD	03ecd2195r			; 0.400647
	DD	03f2acbcfr			; 0.667172
	DD	0bf22c406r			; -0.635804
	DD	03f24462fr			; 0.641696
	DD	0bedb9c94r			; -0.428929
	DD	0be967029r			; -0.293824
	DD	03ecf0f76r			; 0.404415
	DD	0bc305010r			; -0.0107613
	DD	03efd0452r			; 0.494174
	DD	03f4cc628r			; 0.799899
	DD	0bf13cd3ar			; -0.57735
	DD	03f4b6e7cr			; 0.794655
	DD	0be401826r			; -0.187592
	DD	0be631705r			; -0.221768
	DD	03edb0c39r			; 0.427828
	DD	0be088d63r			; -0.133352
	DD	03ed3e24dr			; 0.413836
	DD	03f53ac26r			; 0.826846
	DD	0bf13cd39r			; -0.57735
	DD	03f4b6e7br			; 0.794655
	DD	0be401824r			; -0.187592
	DD	0bead3d48r			; -0.338358
	DD	03eafad5er			; 0.34312
	DD	0be088d63r			; -0.133352
	DD	03ee16868r			; 0.44025
	DD	03f3da11dr			; 0.74074
	DD	0bf13cd3ar			; -0.57735
	DD	03f4b6e7cr			; 0.794655
	DD	0be401826r			; -0.187592
	DD	0be5e26aer			; -0.216944
	DD	03eded6a5r			; 0.435231
	DD	03dee089fr			; 0.116227
	DD	03f140a06r			; 0.578278
	DD	03f560fe9r			; 0.83618
	DD	0beea4492r			; -0.457554
	DD	03f6314bar			; 0.887035
	DD	03d7cecd8r			; 0.0617493
	DD	0be1e3779r			; -0.154508
	DD	03ef37872r			; 0.475528
	DD	000000000r			; 0
	DD	03f000000r			; 0.5
	DD	03f666667r			; 0.9
	DD	0beea4492r			; -0.457554
	DD	03f6314bar			; 0.887035
	DD	03d7cecd7r			; 0.0617493
	DD	0be967029r			; -0.293824
	DD	03ecf0f76r			; 0.404415
	DD	0bc305010r			; -0.0107613
	DD	03efd0452r			; 0.494174
	DD	03f4cc628r			; 0.799899
	DD	0beea4492r			; -0.457554
	DD	03f6314bar			; 0.887035
	DD	03d7cecd9r			; 0.0617493
	DD	0bedcd7d6r			; -0.431334
	DD	03e65fbb1r			; 0.224593
	DD	0bdee089er			; -0.116227
	DD	03eea8d45r			; 0.458109
	DD	03f25f610r			; 0.648286
	DD	0bf4f8d87r			; -0.810753
	DD	03eddbf03r			; 0.433098
	DD	0bec9a49er			; -0.393834
	DD	0beb3b959r			; -0.351023
	DD	03e805a1fr			; 0.250688
	DD	0be8176e4r			; -0.25286
	DD	03ecd2195r			; 0.400647
	DD	03f2acbcfr			; 0.667172
	DD	0bf4f8d87r			; -0.810753
	DD	03eddbf03r			; 0.433098
	DD	0bec9a49fr			; -0.393834
	DD	0bed9c441r			; -0.425325
	DD	03e0d8379r			; 0.138197
	DD	0be64f921r			; -0.223607
	DD	03ed88efcr			; 0.422966
	DD	03f16d1d6r			; 0.589139
	DD	0bf4f8d87r			; -0.810753
	DD	03eddbf03r			; 0.433098
	DD	0bec9a49er			; -0.393834
	DD	0becf1bbar			; -0.404508
	DD	03e96791br			; 0.293893
	DD	000000000r			; 0
	DD	03f000000r			; 0.5
	DD	03f333334r			; 0.7
	DD	0bf497a2er			; -0.787021
	DD	03f17b22br			; 0.592562
	DD	0be2fc889r			; -0.171663
	DD	0bead3d48r			; -0.338358
	DD	03eafad5er			; 0.34312
	DD	0be088d63r			; -0.133352
	DD	03ee16868r			; 0.44025
	DD	03f3da11dr			; 0.74074
	DD	0bf497a2fr			; -0.787021
	DD	03f17b22br			; 0.592562
	DD	0be2fc888r			; -0.171663
	DD	0bedcd7d6r			; -0.431334
	DD	03e65fbb1r			; 0.224593
	DD	0bdee089er			; -0.116227
	DD	03eea8d45r			; 0.458109
	DD	03f25f610r			; 0.648286
	DD	0bf497a2fr			; -0.787021
	DD	03f17b22br			; 0.592562
	DD	0be2fc888r			; -0.171663
	DD	0beb19b92r			; -0.34689
	DD	03eae8001r			; 0.34082
	DD	03dee089er			; 0.116227
	DD	03f0d2c23r			; 0.551455
	DD	03f3d1d9fr			; 0.738733
	DD	0bf33c53cr			; -0.702228
	DD	03f3592a6r			; 0.709269
	DD	03d7cecber			; 0.0617492
	DD	0be967029r			; -0.293824
	DD	03ecf0f76r			; 0.404415
	DD	0bc305010r			; -0.0107613
	DD	03efd0452r			; 0.494174
	DD	03f4cc628r			; 0.799899
	DD	0bf33c53dr			; -0.702228
	DD	03f3592a7r			; 0.709269
	DD	03d7cecc0r			; 0.0617492
	DD	0becf1bbar			; -0.404508
	DD	03e96791br			; 0.293893
	DD	000000000r			; 0
	DD	03f000000r			; 0.5
	DD	03f333334r			; 0.7
	DD	0bf33c53cr			; -0.702228
	DD	03f3592a6r			; 0.709269
	DD	03d7cecbdr			; 0.0617492
	DD	0be869652r			; -0.262866
	DD	03eb93e4er			; 0.361803
	DD	03e64f923r			; 0.223607
	DD	03f1cb813r			; 0.612184
	DD	03f41eca5r			; 0.757517
	DD	0bf100dacr			; -0.562709
	DD	03f4645c3r			; 0.774502
	DD	03e93f462r			; 0.288974
	DD	0be5e26aer			; -0.216944
	DD	03eded6a5r			; 0.435231
	DD	03dee089fr			; 0.116227
	DD	03f140a06r			; 0.578278
	DD	03f560fe9r			; 0.83618
	DD	0bf100dabr			; -0.562709
	DD	03f4645c1r			; 0.774502
	DD	03e93f461r			; 0.288974
	DD	0beb19b92r			; -0.34689
	DD	03eae8001r			; 0.34082
	DD	03dee089er			; 0.116227
	DD	03f0d2c23r			; 0.551455
	DD	03f3d1d9fr			; 0.738733
	DD	0bf100dacr			; -0.562709
	DD	03f4645c1r			; 0.774502
	DD	03e93f462r			; 0.288974
	DD	0bda479fdr			; -0.0803108
	DD	03ef59195r			; 0.479626
	DD	0bdee089er			; -0.116227
	DD	03eb14563r			; 0.346233
	DD	03f68a86ar			; 0.90882
	DD	0be926fber			; -0.286009
	DD	03f650373r			; 0.894584
	DD	0beafd132r			; -0.343393
	DD	0be051077r			; -0.129946
	DD	03ed29738r			; 0.41131
	DD	0be8176e3r			; -0.25286
	DD	03ea6aec5r			; 0.325552
	DD	03f4eb791r			; 0.807489
	DD	0be926fbdr			; -0.286009
	DD	03f650373r			; 0.894584
	DD	0beafd132r			; -0.343393
	DD	0be631705r			; -0.221768
	DD	03edb0c39r			; 0.427828
	DD	0be088d63r			; -0.133352
	DD	03ed3e24dr			; 0.413836
	DD	03f53ac26r			; 0.826846
	DD	0be926fber			; -0.286009
	DD	03f650373r			; 0.894584
	DD	0beafd132r			; -0.343393
	DD	0be631705r			; -0.221768
	DD	03edb0c39r			; 0.427828
	DD	0be088d63r			; -0.133352
	DD	03ed3e24dr			; 0.413836
	DD	03f53ac26r			; 0.826846
	DD	0bf0bf47fr			; -0.546699
	DD	03f40a1b2r			; 0.752467
	DD	0bebc0f56r			; -0.367305
	DD	0be7fffffr			; -0.25
	DD	03eb02d4fr			; 0.344096
	DD	0be869648r			; -0.262865
	DD	03ebdf4d0r			; 0.371008
	DD	03f3dd92dr			; 0.741595
	DD	0bf0bf47fr			; -0.546699
	DD	03f40a1b2r			; 0.752467
	DD	0bebc0f56r			; -0.367305
	DD	0bead3d48r			; -0.338358
	DD	03eafad5er			; 0.34312
	DD	0be088d63r			; -0.133352
	DD	03ee16868r			; 0.44025
	DD	03f3da11dr			; 0.74074
	DD	0bf0bf47fr			; -0.546699
	DD	03f40a1b2r			; 0.752467
	DD	0bebc0f55r			; -0.367304
	DD	0be1e3779r			; -0.154508
	DD	03ef37872r			; 0.475528
	DD	000000000r			; 0
	DD	03f000000r			; 0.5
	DD	03f666667r			; 0.9
	DD	0bee4db05r			; -0.446983
	DD	03f63c456r			; 0.889715
	DD	0bdbe12e6r			; -0.0928095
	DD	0be631705r			; -0.221768
	DD	03edb0c39r			; 0.427828
	DD	0be088d63r			; -0.133352
	DD	03ed3e24dr			; 0.413836
	DD	03f53ac26r			; 0.826846
	DD	0bee4db06r			; -0.446984
	DD	03f63c457r			; 0.889715
	DD	0bdbe12e7r			; -0.0928095
	DD	0be967029r			; -0.293824
	DD	03ecf0f76r			; 0.404415
	DD	0bc305010r			; -0.0107613
	DD	03efd0452r			; 0.494174
	DD	03f4cc628r			; 0.799899
	DD	0bee4db04r			; -0.446983
	DD	03f63c455r			; 0.889715
	DD	0bdbe12e5r			; -0.0928095
	DD	0bead3d48r			; -0.338358
	DD	03eafad5er			; 0.34312
	DD	0be088d63r			; -0.133352
	DD	03ee16868r			; 0.44025
	DD	03f3da11dr			; 0.74074
	DD	0bf432dd8r			; -0.762418
	DD	03f0c6760r			; 0.548452
	DD	0beafd129r			; -0.343393
	DD	0beb3b959r			; -0.351023
	DD	03e805a1fr			; 0.250688
	DD	0be8176e4r			; -0.25286
	DD	03ecd2195r			; 0.400647
	DD	03f2acbcfr			; 0.667172
	DD	0bf432dd7r			; -0.762418
	DD	03f0c675er			; 0.548452
	DD	0beafd128r			; -0.343393
	DD	0bedcd7d6r			; -0.431334
	DD	03e65fbb1r			; 0.224593
	DD	0bdee089er			; -0.116227
	DD	03eea8d45r			; 0.458109
	DD	03f25f610r			; 0.648286
	DD	0bf432dd7r			; -0.762418
	DD	03f0c675fr			; 0.548452
	DD	0beafd128r			; -0.343393
	DD	0be967029r			; -0.293824
	DD	03ecf0f76r			; 0.404415
	DD	0bc305010r			; -0.0107613
	DD	03efd0452r			; 0.494174
	DD	03f4cc628r			; 0.799899
	DD	0bf354256r			; -0.708043
	DD	03f33360er			; 0.700044
	DD	0bdbe12e2r			; -0.0928095
	DD	0bead3d48r			; -0.338358
	DD	03eafad5er			; 0.34312
	DD	0be088d63r			; -0.133352
	DD	03ee16868r			; 0.44025
	DD	03f3da11dr			; 0.74074
	DD	0bf354255r			; -0.708043
	DD	03f33360dr			; 0.700043
	DD	0bdbe12e1r			; -0.0928094
	DD	0becf1bbar			; -0.404508
	DD	03e96791br			; 0.293893
	DD	000000000r			; 0
	DD	03f000000r			; 0.5
	DD	03f333334r			; 0.7
	DD	0bf354255r			; -0.708043
	DD	03f33360dr			; 0.700043
	DD	0bdbe12e1r			; -0.0928094
	DD	0be5e26aer			; -0.216944
	DD	03eded6a5r			; 0.435231
	DD	03dee089fr			; 0.116227
	DD	03f140a06r			; 0.578278
	DD	03f560fe9r			; 0.83618
	DD	0bf14981cr			; -0.580446
	DD	03f4c85b7r			; 0.798915
	DD	03e21505cr			; 0.157533
	DD	0be967029r			; -0.293824
	DD	03ecf0f76r			; 0.404415
	DD	0bc305010r			; -0.0107613
	DD	03efd0452r			; 0.494174
	DD	03f4cc628r			; 0.799899
	DD	0bf14981cr			; -0.580446
	DD	03f4c85b6r			; 0.798915
	DD	03e21505cr			; 0.157533
	DD	0beb19b92r			; -0.34689
	DD	03eae8001r			; 0.34082
	DD	03dee089er			; 0.116227
	DD	03f0d2c23r			; 0.551455
	DD	03f3d1d9fr			; 0.738733
	DD	0bf14981cr			; -0.580446
	DD	03f4c85b7r			; 0.798915
	DD	03e21505cr			; 0.157533
	DD	0bef64193r			; -0.480969
	DD	03d931d00r			; 0.0718327
	DD	0bdee089fr			; -0.116227
	DD	03eecadc5r			; 0.462263
	DD	03f0bbf5fr			; 0.545889
	DD	0bf691555r			; -0.910482
	DD	03e0131aar			; 0.126166
	DD	0bec9a4a0r			; -0.393834
	DD	0bed9c441r			; -0.425325
	DD	03e0d8379r			; 0.138197
	DD	0be64f921r			; -0.223607
	DD	03ed88efcr			; 0.422966
	DD	03f16d1d6r			; 0.589139
	DD	0bf691553r			; -0.910482
	DD	03e0131aar			; 0.126166
	DD	0bec9a49fr			; -0.393834
	DD	0bedcd7dcr			; -0.431334
	DD	03b667124r			; 0.00351627
	DD	0be8176e5r			; -0.25286
	DD	03ed4caf9r			; 0.415611
	DD	03f0092b4r			; 0.502239
	DD	0bf691554r			; -0.910482
	DD	03e0131aar			; 0.126166
	DD	0bec9a49er			; -0.393834
	DD	0bef36a02r			; -0.475418
	DD	0bda1315dr			; -0.0787074
	DD	0be088d66r			; -0.133352
	DD	03ee9b747r			; 0.456476
	DD	03ee63cfcr			; 0.449684
	DD	0bf643cfar			; -0.891555
	DD	0be14eaa5r			; -0.145426
	DD	0bedb9c9dr			; -0.428929
	DD	0bedcd7dcr			; -0.431334
	DD	03b667124r			; 0.00351627
	DD	0be8176e5r			; -0.25286
	DD	03ed4caf9r			; 0.415611
	DD	03f0092b4r			; 0.502239
	DD	0bf643cf9r			; -0.891555
	DD	0be14eaa5r			; -0.145426
	DD	0bedb9c9er			; -0.428929
	DD	0becf1bc1r			; -0.404509
	DD	0be06964br			; -0.131433
	DD	0be86964br			; -0.262865
	DD	03ed10aber			; 0.408285
	DD	03ed4a676r			; 0.415332
	DD	0bf643cf8r			; -0.891555
	DD	0be14eaa4r			; -0.145426
	DD	0bedb9c9cr			; -0.428929
	DD	0bf000000r			; -0.5
	DD	000000000r			; 0
	DD	000000000r			; 0
	DD	03f000000r			; 0.5
	DD	03f000000r			; 0.5
	DD	0bf7c29c7r			; -0.985012
	DD	0bc8991c0r			; -0.0167931
	DD	0be2fc89fr			; -0.171664
	DD	0bef64193r			; -0.480969
	DD	03d931d00r			; 0.0718327
	DD	0bdee089fr			; -0.116227
	DD	03eecadc5r			; 0.462263
	DD	03f0bbf5fr			; 0.545889
	DD	0bf7c29c7r			; -0.985012
	DD	0bc8991c0r			; -0.0167931
	DD	0be2fc89dr			; -0.171664
	DD	0bef36a02r			; -0.475418
	DD	0bda1315dr			; -0.0787074
	DD	0be088d66r			; -0.133352
	DD	03ee9b747r			; 0.456476
	DD	03ee63cfcr			; 0.449684
	DD	0bf7c29c6r			; -0.985012
	DD	0bc8991bfr			; -0.0167931
	DD	0be2fc89er			; -0.171664
	DD	0bedc9ce3r			; -0.430884
	DD	0be5cf24fr			; -0.215768
	DD	0be088d66r			; -0.133352
	DD	03ee78af5r			; 0.452232
	DD	03eb74812r			; 0.357972
	DD	0bf4e8806r			; -0.806763
	DD	0bed01264r			; -0.40639
	DD	0bedb9c9fr			; -0.428929
	DD	0becf1bc1r			; -0.404509
	DD	0be06964br			; -0.131433
	DD	0be86964br			; -0.262865
	DD	03ed10aber			; 0.408285
	DD	03ed4a676r			; 0.415332
	DD	0bf4e8807r			; -0.806763
	DD	0bed01264r			; -0.40639
	DD	0bedb9c9er			; -0.428929
	DD	0beb19b96r			; -0.34689
	DD	0be8343c9r			; -0.256377
	DD	0be8176e5r			; -0.25286
	DD	03eccac2er			; 0.399751
	DD	03ea8419fr			; 0.328626
	DD	0bf4e8806r			; -0.806763
	DD	0bed01264r			; -0.40639
	DD	0bedb9c9er			; -0.428929
	DD	0bef36a00r			; -0.475418
	DD	0be1e2e1cr			; -0.154473
	DD	0bc305012r			; -0.0107613
	DD	03efe27e4r			; 0.496398
	DD	03ecccfefr			; 0.400024
	DD	0bf6f25ebr			; -0.934172
	DD	0be9b6869r			; -0.303531
	DD	0be401839r			; -0.187592
	DD	0bef36a02r			; -0.475418
	DD	0bda1315dr			; -0.0787074
	DD	0be088d66r			; -0.133352
	DD	03ee9b747r			; 0.456476
	DD	03ee63cfcr			; 0.449684
	DD	0bf6f25ebr			; -0.934172
	DD	0be9b686ar			; -0.303531
	DD	0be401839r			; -0.187592
	DD	0bedc9ce3r			; -0.430884
	DD	0be5cf24fr			; -0.215768
	DD	0be088d66r			; -0.133352
	DD	03ee78af5r			; 0.452232
	DD	03eb74812r			; 0.357972
	DD	0bf6f25ecr			; -0.934172
	DD	0be9b686ar			; -0.303531
	DD	0be40183ar			; -0.187592
	DD	0bef64193r			; -0.480969
	DD	0bd931d00r			; -0.0718327
	DD	03dee089fr			; 0.116227
	DD	03f09a91dr			; 0.537737
	DD	03ee88141r			; 0.454111
	DD	0bf7c29c8r			; -0.985013
	DD	0be24ea8fr			; -0.161051
	DD	03d7ced4er			; 0.0617497
	DD	0bf000000r			; -0.5
	DD	000000000r			; 0
	DD	000000000r			; 0
	DD	03f000000r			; 0.5
	DD	03f000000r			; 0.5
	DD	0bf7c29c7r			; -0.985012
	DD	0be24ea8er			; -0.161051
	DD	03d7ced4br			; 0.0617497
	DD	0bef36a00r			; -0.475418
	DD	0be1e2e1cr			; -0.154473
	DD	0bc305012r			; -0.0107613
	DD	03efe27e4r			; 0.496398
	DD	03ecccfefr			; 0.400024
	DD	0bf7c29c6r			; -0.985012
	DD	0be24ea8dr			; -0.161051
	DD	03d7ced4ar			; 0.0617497
	DD	0beb19b92r			; -0.34689
	DD	0beae8001r			; -0.34082
	DD	0bdee089er			; -0.116227
	DD	03ee5a7bar			; 0.448545
	DD	03e85c4c1r			; 0.261267
	DD	0bf299577r			; -0.662437
	DD	0bf232204r			; -0.637238
	DD	0bec9a4a6r			; -0.393834
	DD	0beb19b96r			; -0.34689
	DD	0be8343c9r			; -0.256377
	DD	0be8176e5r			; -0.25286
	DD	03eccac2er			; 0.399751
	DD	03ea8419fr			; 0.328626
	DD	0bf299576r			; -0.662437
	DD	0bf232204r			; -0.637238
	DD	0bec9a4a6r			; -0.393834
	DD	0be869652r			; -0.262866
	DD	0beb93e4er			; -0.361803
	DD	0be64f923r			; -0.223607
	DD	03ec68fdar			; 0.387816
	DD	03e784d6dr			; 0.242483
	DD	0bf299576r			; -0.662437
	DD	0bf232204r			; -0.637238
	DD	0bec9a4a6r			; -0.393834
	DD	0becf1bbar			; -0.404508
	DD	0be96791br			; -0.293893
	DD	000000000r			; 0
	DD	03f000000r			; 0.5
	DD	03e999997r			; 0.3
	DD	0bf4e8803r			; -0.806763
	DD	0bf10bd5dr			; -0.565389
	DD	0be2fc885r			; -0.171663
	DD	0bedc9ce3r			; -0.430884
	DD	0be5cf24fr			; -0.215768
	DD	0be088d66r			; -0.133352
	DD	03ee78af5r			; 0.452232
	DD	03eb74812r			; 0.357972
	DD	0bf4e8803r			; -0.806763
	DD	0bf10bd5er			; -0.56539
	DD	0be2fc885r			; -0.171663
	DD	0beb19b92r			; -0.34689
	DD	0beae8001r			; -0.34082
	DD	0bdee089er			; -0.116227
	DD	03ee5a7bar			; 0.448545
	DD	03e85c4c1r			; 0.261267
	DD	0bf4e8804r			; -0.806763
	DD	0bf10bd5er			; -0.56539
	DD	0be2fc886r			; -0.171663
	DD	0bedcd7d6r			; -0.431334
	DD	0be65fbb1r			; -0.224593
	DD	03dee089er			; 0.116227
	DD	03f0ab95er			; 0.541891
	DD	03eb413dfr			; 0.351714
	DD	0bf643cf4r			; -0.891555
	DD	0bee5b9ccr			; -0.448683
	DD	03d7cecfbr			; 0.0617494
	DD	0bef36a00r			; -0.475418
	DD	0be1e2e1cr			; -0.154473
	DD	0bc305012r			; -0.0107613
	DD	03efe27e4r			; 0.496398
	DD	03ecccfefr			; 0.400024
	DD	0bf643cf4r			; -0.891555
	DD	0bee5b9ccr			; -0.448683
	DD	03d7cecfbr			; 0.0617494
	DD	0becf1bbar			; -0.404508
	DD	0be96791br			; -0.293893
	DD	000000000r			; 0
	DD	03f000000r			; 0.5
	DD	03e999997r			; 0.3
	DD	0bf643cf3r			; -0.891555
	DD	0bee5b9ccr			; -0.448683
	DD	03d7cecfbr			; 0.0617494
	DD	0bed9c441r			; -0.425325
	DD	0be0d8379r			; -0.138197
	DD	03e64f921r			; 0.223607
	DD	03f13b882r			; 0.577034
	DD	03ed25c53r			; 0.410861
	DD	0bf691553r			; -0.910482
	DD	0be97777fr			; -0.295834
	DD	03e93f453r			; 0.288973
	DD	0bef64193r			; -0.480969
	DD	0bd931d00r			; -0.0718327
	DD	03dee089fr			; 0.116227
	DD	03f09a91dr			; 0.537737
	DD	03ee88141r			; 0.454111
	DD	0bf691553r			; -0.910482
	DD	0be97777er			; -0.295834
	DD	03e93f452r			; 0.288973
	DD	0bedcd7d6r			; -0.431334
	DD	0be65fbb1r			; -0.224593
	DD	03dee089er			; 0.116227
	DD	03f0ab95er			; 0.541891
	DD	03eb413dfr			; 0.351714
	DD	0bf691554r			; -0.910482
	DD	0be97777fr			; -0.295834
	DD	03e93f453r			; 0.288973
	DD	0bef64193r			; -0.480969
	DD	03d931d00r			; 0.0718327
	DD	0bdee089fr			; -0.116227
	DD	03eecadc5r			; 0.462263
	DD	03f0bbf5fr			; 0.545889
	DD	0bf706e31r			; -0.939181
	DD	03b91372er			; 0.00443163
	DD	0beafd128r			; -0.343393
	DD	0bedcd7dcr			; -0.431334
	DD	03b667124r			; 0.00351627
	DD	0be8176e5r			; -0.25286
	DD	03ed4caf9r			; 0.415611
	DD	03f0092b4r			; 0.502239
	DD	0bf706e31r			; -0.939181
	DD	03b91372er			; 0.00443163
	DD	0beafd129r			; -0.343393
	DD	0bef36a02r			; -0.475418
	DD	0bda1315dr			; -0.0787074
	DD	0be088d66r			; -0.133352
	DD	03ee9b747r			; 0.456476
	DD	03ee63cfcr			; 0.449684
	DD	0bf706e33r			; -0.939182
	DD	03b91372fr			; 0.00443163
	DD	0beafd12ar			; -0.343393
	DD	0bef36a02r			; -0.475418
	DD	0bda1315dr			; -0.0787074
	DD	0be088d66r			; -0.133352
	DD	03ee9b747r			; 0.456476
	DD	03ee63cfcr			; 0.449684
	DD	0bf6273bar			; -0.884578
	DD	0be932850r			; -0.287417
	DD	0bebc0f59r			; -0.367305
	DD	0becf1bc1r			; -0.404509
	DD	0be06964br			; -0.131433
	DD	0be86964br			; -0.262865
	DD	03ed10aber			; 0.408285
	DD	03ed4a676r			; 0.415332
	DD	0bf6273bar			; -0.884578
	DD	0be93284fr			; -0.287417
	DD	0bebc0f58r			; -0.367305
	DD	0bedc9ce3r			; -0.430884
	DD	0be5cf24fr			; -0.215768
	DD	0be088d66r			; -0.133352
	DD	03ee78af5r			; 0.452232
	DD	03eb74812r			; 0.357972
	DD	0bf6273bbr			; -0.884578
	DD	0be932851r			; -0.287417
	DD	0bebc0f59r			; -0.367305
	DD	0bf000000r			; -0.5
	DD	000000000r			; 0
	DD	000000000r			; 0
	DD	03f000000r			; 0.5
	DD	03f000000r			; 0.5
	DD	0bf7bfab7r			; -0.984294
	DD	0be19c604r			; -0.150169
	DD	0bdbe12eer			; -0.0928095
	DD	0bef36a02r			; -0.475418
	DD	0bda1315dr			; -0.0787074
	DD	0be088d66r			; -0.133352
	DD	03ee9b747r			; 0.456476
	DD	03ee63cfcr			; 0.449684
	DD	0bf7bfab7r			; -0.984294
	DD	0be19c604r			; -0.150169
	DD	0bdbe12eer			; -0.0928095
	DD	0bef36a00r			; -0.475418
	DD	0be1e2e1cr			; -0.154473
	DD	0bc305012r			; -0.0107613
	DD	03efe27e4r			; 0.496398
	DD	03ecccfefr			; 0.400024
	DD	0bf7bfab9r			; -0.984294
	DD	0be19c604r			; -0.150169
	DD	0bdbe12eer			; -0.0928095
	DD	0bedc9ce3r			; -0.430884
	DD	0be5cf24fr			; -0.215768
	DD	0be088d66r			; -0.133352
	DD	03ee78af5r			; 0.452232
	DD	03eb74812r			; 0.357972
	DD	0bf41d874r			; -0.757209
	DD	0bf0e3d3cr			; -0.555622
	DD	0beafd12fr			; -0.343393
	DD	0beb19b96r			; -0.34689
	DD	0be8343c9r			; -0.256377
	DD	0be8176e5r			; -0.25286
	DD	03eccac2er			; 0.399751
	DD	03ea8419fr			; 0.328626
	DD	0bf41d875r			; -0.757209
	DD	0bf0e3d3dr			; -0.555622
	DD	0beafd130r			; -0.343393
	DD	0beb19b92r			; -0.34689
	DD	0beae8001r			; -0.34082
	DD	0bdee089er			; -0.116227
	DD	03ee5a7bar			; 0.448545
	DD	03e85c4c1r			; 0.261267
	DD	0bf41d875r			; -0.757209
	DD	0bf0e3d3dr			; -0.555622
	DD	0beafd12fr			; -0.343393
	DD	0bef36a00r			; -0.475418
	DD	0be1e2e1cr			; -0.154473
	DD	0bc305012r			; -0.0107613
	DD	03efe27e4r			; 0.496398
	DD	03ecccfefr			; 0.400024
	DD	0bf6273b7r			; -0.884578
	DD	0beea045cr			; -0.457065
	DD	0bdbe12ear			; -0.0928095
	DD	0bedc9ce3r			; -0.430884
	DD	0be5cf24fr			; -0.215768
	DD	0be088d66r			; -0.133352
	DD	03ee78af5r			; 0.452232
	DD	03eb74812r			; 0.357972
	DD	0bf6273b5r			; -0.884578
	DD	0beea045ar			; -0.457064
	DD	0bdbe12e7r			; -0.0928095
	DD	0becf1bbar			; -0.404508
	DD	0be96791br			; -0.293893
	DD	000000000r			; 0
	DD	03f000000r			; 0.5
	DD	03e999997r			; 0.3
	DD	0bf6273b7r			; -0.884578
	DD	0beea045cr			; -0.457065
	DD	0bdbe12e9r			; -0.0928095
	DD	0bef64193r			; -0.480969
	DD	0bd931d00r			; -0.0718327
	DD	03dee089fr			; 0.116227
	DD	03f09a91dr			; 0.537737
	DD	03ee88141r			; 0.454111
	DD	0bf706e2fr			; -0.939181
	DD	0be9c3dc1r			; -0.305159
	DD	03e215084r			; 0.157534
	DD	0bef36a00r			; -0.475418
	DD	0be1e2e1cr			; -0.154473
	DD	0bc305012r			; -0.0107613
	DD	03efe27e4r			; 0.496398
	DD	03ecccfefr			; 0.400024
	DD	0bf706e2er			; -0.939181
	DD	0be9c3dbfr			; -0.305159
	DD	03e215082r			; 0.157534
	DD	0bedcd7d6r			; -0.431334
	DD	0be65fbb1r			; -0.224593
	DD	03dee089er			; 0.116227
	DD	03f0ab95er			; 0.541891
	DD	03eb413dfr			; 0.351714
	DD	0bf706e2dr			; -0.939181
	DD	0be9c3dc0r			; -0.305159
	DD	03e215083r			; 0.157534
	DD	0be5e26aer			; -0.216944
	DD	0beded6a5r			; -0.435231
	DD	0bdee089fr			; -0.116227
	DD	03ed7ebf4r			; 0.421722
	DD	03e27c05ar			; 0.16382
	DD	0becd7d17r			; -0.401345
	DD	0bf53b1d3r			; -0.826932
	DD	0bec9a4aar			; -0.393834
	DD	0be869652r			; -0.262866
	DD	0beb93e4er			; -0.361803
	DD	0be64f923r			; -0.223607
	DD	03ec68fdar			; 0.387816
	DD	03e784d6dr			; 0.242483
	DD	0becd7d17r			; -0.401345
	DD	0bf53b1d2r			; -0.826932
	DD	0bec9a4aar			; -0.393834
	DD	0be0be9b0r			; -0.136634
	DD	0bed17a63r			; -0.409137
	DD	0be8176e5r			; -0.25286
	DD	03ea85e8cr			; 0.328846
	DD	03e479c15r			; 0.194931
	DD	0becd7d18r			; -0.401345
	DD	0bf53b1d3r			; -0.826932
	DD	0bec9a4abr			; -0.393834
	DD	0bd9392a0r			; -0.072057
	DD	0bef3f412r			; -0.476471
	DD	0be088d65r			; -0.133352
	DD	03ea85e8cr			; 0.328846
	DD	03dc8c841r			; 0.0980382
	DD	0be0c7d47r			; -0.137197
	DD	0bf649265r			; -0.892859
	DD	0bedb9c9ar			; -0.428929
	DD	0be0be9b0r			; -0.136634
	DD	0bed17a63r			; -0.409137
	DD	0be8176e5r			; -0.25286
	DD	03ea85e8cr			; 0.328846
	DD	03e479c15r			; 0.194931
	DD	0be0c7d47r			; -0.137197
	DD	0bf649265r			; -0.892859
	DD	0bedb9c9ar			; -0.428929
	DD	000000000r			; 0
	DD	0bed9c444r			; -0.425326
	DD	0be86964ar			; -0.262865
	DD	03e800000r			; 0.25
	DD	03e346fe3r			; 0.176208
	DD	0be0c7d47r			; -0.137197
	DD	0bf649264r			; -0.892859
	DD	0bedb9c9ar			; -0.428929
	DD	0be1e3779r			; -0.154508
	DD	0bef37872r			; -0.475528
	DD	000000000r			; 0
	DD	03f000000r			; 0.5
	DD	03dccccc2r			; 0.0999999
	DD	0be93aaf8r			; -0.288414
	DD	0bf712664r			; -0.941992
	DD	0be2fc898r			; -0.171664
	DD	0be5e26aer			; -0.216944
	DD	0beded6a5r			; -0.435231
	DD	0bdee089fr			; -0.116227
	DD	03ed7ebf4r			; 0.421722
	DD	03e27c05ar			; 0.16382
	DD	0be93aaf7r			; -0.288414
	DD	0bf712664r			; -0.941992
	DD	0be2fc898r			; -0.171664
	DD	0bd9392a0r			; -0.072057
	DD	0bef3f412r			; -0.476471
	DD	0be088d65r			; -0.133352
	DD	03ea85e8cr			; 0.328846
	DD	03dc8c841r			; 0.0980382
	DD	0be93aaf8r			; -0.288414
	DD	0bf712664r			; -0.941992
	DD	0be2fc898r			; -0.171664
	DD	03d9392a0r			; 0.072057
	DD	0bef3f412r			; -0.476471
	DD	0be088d65r			; -0.133352
	DD	03e2f42e9r			; 0.171154
	DD	03dc8c841r			; 0.0980382
	DD	03e0c7d47r			; 0.137197
	DD	0bf649265r			; -0.892859
	DD	0bedb9c9ar			; -0.428929
	DD	000000000r			; 0
	DD	0bed9c444r			; -0.425326
	DD	0be86964ar			; -0.262865
	DD	03e800000r			; 0.25
	DD	03e346fe3r			; 0.176208
	DD	03e0c7d47r			; 0.137197
	DD	0bf649264r			; -0.892859
	DD	0bedb9c9ar			; -0.428929
	DD	03e0be9b0r			; 0.136634
	DD	0bed17a63r			; -0.409137
	DD	0be8176e5r			; -0.25286
	DD	03e2f42e9r			; 0.171154
	DD	03e479c15r			; 0.194931
	DD	03e0c7d47r			; 0.137197
	DD	0bf649265r			; -0.892859
	DD	0bedb9c9ar			; -0.428929
	DD	000000000r			; 0
	DD	0befff0d2r			; -0.499884
	DD	0bc305011r			; -0.0107613
	DD	03e800000r			; 0.25
	DD	03be07fcfr			; 0.00685117
	DD	000000000r			; 0
	DD	0bf7b748ar			; -0.982247
	DD	0be401835r			; -0.187592
	DD	0bd9392a0r			; -0.072057
	DD	0bef3f412r			; -0.476471
	DD	0be088d65r			; -0.133352
	DD	03ea85e8cr			; 0.328846
	DD	03dc8c841r			; 0.0980382
	DD	000000000r			; 0
	DD	0bf7b7489r			; -0.982247
	DD	0be401835r			; -0.187592
	DD	03d9392a0r			; 0.072057
	DD	0bef3f412r			; -0.476471
	DD	0be088d65r			; -0.133352
	DD	03e2f42e9r			; 0.171154
	DD	03dc8c841r			; 0.0980382
	DD	000000000r			; 0
	DD	0bf7b7489r			; -0.982247
	DD	0be401835r			; -0.187592
	DD	0bda479fdr			; -0.0803108
	DD	0bef59195r			; -0.479626
	DD	03dee089er			; 0.116227
	DD	03f275d4fr			; 0.653768
	DD	03dbabcb2r			; 0.0911802
	DD	0be1ad899r			; -0.151217
	DD	0bf7c8fdbr			; -0.98657
	DD	03d7cecc1r			; 0.0617492
	DD	0be1e3779r			; -0.154508
	DD	0bef37872r			; -0.475528
	DD	000000000r			; 0
	DD	03f000000r			; 0.5
	DD	03dccccc2r			; 0.0999999
	DD	0be1ad899r			; -0.151217
	DD	0bf7c8fdbr			; -0.98657
	DD	03d7cecc3r			; 0.0617492
	DD	000000000r			; 0
	DD	0befff0d2r			; -0.499884
	DD	0bc305011r			; -0.0107613
	DD	03e800000r			; 0.25
	DD	03be07fcfr			; 0.00685117
	DD	0be1ad899r			; -0.151217
	DD	0bf7c8fdbr			; -0.98657
	DD	03d7cecc2r			; 0.0617492
	DD	03e5e26aer			; 0.216944
	DD	0beded6a5r			; -0.435231
	DD	0bdee089fr			; -0.116227
	DD	03da0502fr			; 0.0782779
	DD	03e27c05ar			; 0.16382
	DD	03ecd7d16r			; 0.401345
	DD	0bf53b1d3r			; -0.826932
	DD	0bec9a4aar			; -0.393834
	DD	03e0be9b0r			; 0.136634
	DD	0bed17a63r			; -0.409137
	DD	0be8176e5r			; -0.25286
	DD	03e2f42e9r			; 0.171154
	DD	03e479c15r			; 0.194931
	DD	03ecd7d17r			; 0.401345
	DD	0bf53b1d3r			; -0.826932
	DD	0bec9a4abr			; -0.393834
	DD	03e869652r			; 0.262866
	DD	0beb93e4er			; -0.361803
	DD	0be64f923r			; -0.223607
	DD	03de5c099r			; 0.112184
	DD	03e784d6dr			; 0.242483
	DD	03ecd7d17r			; 0.401345
	DD	0bf53b1d2r			; -0.826932
	DD	0bec9a4aar			; -0.393834
	DD	03e1e3779r			; 0.154508
	DD	0bef37872r			; -0.475528
	DD	000000000r			; 0
	DD	03f800000r			; 1
	DD	03dccccc2r			; 0.0999999
	DD	03e93aaf8r			; 0.288414
	DD	0bf712664r			; -0.941992
	DD	0be2fc898r			; -0.171664
	DD	03d9392a0r			; 0.072057
	DD	0bef3f412r			; -0.476471
	DD	0be088d65r			; -0.133352
	DD	03f95e85dr			; 1.17115
	DD	03dc8c841r			; 0.0980382
	DD	03e93aaf8r			; 0.288414
	DD	0bf712664r			; -0.941992
	DD	0be2fc898r			; -0.171664
	DD	03e5e26aer			; 0.216944
	DD	0beded6a5r			; -0.435231
	DD	0bdee089fr			; -0.116227
	DD	03f8a0503r			; 1.07828
	DD	03e27c05ar			; 0.16382
	DD	03e93aaf7r			; 0.288414
	DD	0bf712664r			; -0.941992
	DD	0be2fc898r			; -0.171664
	DD	03da479fdr			; 0.0803108
	DD	0bef59195r			; -0.479626
	DD	03dee089er			; 0.116227
	DD	03f58a2b1r			; 0.846232
	DD	03dbabcb2r			; 0.0911802
	DD	03e1ad899r			; 0.151217
	DD	0bf7c8fdbr			; -0.98657
	DD	03d7cecc1r			; 0.0617492
	DD	000000000r			; 0
	DD	0befff0d2r			; -0.499884
	DD	0bc305011r			; -0.0107613
	DD	03fa00000r			; 1.25
	DD	03be07fcfr			; 0.00685117
	DD	03e1ad899r			; 0.151217
	DD	0bf7c8fdbr			; -0.98657
	DD	03d7cecc2r			; 0.0617492
	DD	03e1e3779r			; 0.154508
	DD	0bef37872r			; -0.475528
	DD	000000000r			; 0
	DD	03f800000r			; 1
	DD	03dccccc2r			; 0.0999999
	DD	03e1ad899r			; 0.151217
	DD	0bf7c8fdbr			; -0.98657
	DD	03d7cecc3r			; 0.0617492
	DD	000000000r			; 0
	DD	0bee4f931r			; -0.447214
	DD	03e64f91fr			; 0.223607
	DD	03f400000r			; 0.75
	DD	03e17201er			; 0.147583
	DD	000000000r			; 0
	DD	0bf751408r			; -0.957337
	DD	03e93f46fr			; 0.288974
	DD	0bda479fdr			; -0.0803108
	DD	0bef59195r			; -0.479626
	DD	03dee089er			; 0.116227
	DD	03f275d4fr			; 0.653768
	DD	03dbabcb2r			; 0.0911802
	DD	000000000r			; 0
	DD	0bf751409r			; -0.957337
	DD	03e93f470r			; 0.288974
	DD	03da479fdr			; 0.0803108
	DD	0bef59195r			; -0.479626
	DD	03dee089er			; 0.116227
	DD	03f58a2b1r			; 0.846232
	DD	03dbabcb2r			; 0.0911802
	DD	000000000r			; 0
	DD	0bf751409r			; -0.957337
	DD	03e93f470r			; 0.288974
	DD	0be5e26aer			; -0.216944
	DD	0beded6a5r			; -0.435231
	DD	0bdee089fr			; -0.116227
	DD	03ed7ebf4r			; 0.421722
	DD	03e27c05ar			; 0.16382
	DD	0be96c07ar			; -0.294437
	DD	0bf644ffar			; -0.891845
	DD	0beafd130r			; -0.343393
	DD	0be0be9b0r			; -0.136634
	DD	0bed17a63r			; -0.409137
	DD	0be8176e5r			; -0.25286
	DD	03ea85e8cr			; 0.328846
	DD	03e479c15r			; 0.194931
	DD	0be96c07ar			; -0.294437
	DD	0bf644ffar			; -0.891845
	DD	0beafd130r			; -0.343393
	DD	0bd9392a0r			; -0.072057
	DD	0bef3f412r			; -0.476471
	DD	0be088d65r			; -0.133352
	DD	03ea85e8cr			; 0.328846
	DD	03dc8c841r			; 0.0980382
	DD	0be96c07ar			; -0.294437
	DD	0bf644ffar			; -0.891845
	DD	0beafd130r			; -0.343393
	DD	0bd9392a0r			; -0.072057
	DD	0bef3f412r			; -0.476471
	DD	0be088d65r			; -0.133352
	DD	03ea85e8cr			; 0.328846
	DD	03dc8c841r			; 0.0980382
	DD	080000000r			; -0
	DD	0bf6e1b14r			; -0.930101
	DD	0bebc0f5br			; -0.367305
	DD	000000000r			; 0
	DD	0bed9c444r			; -0.425326
	DD	0be86964ar			; -0.262865
	DD	03e800000r			; 0.25
	DD	03e346fe3r			; 0.176208
	DD	080000000r			; -0
	DD	0bf6e1b14r			; -0.930101
	DD	0bebc0f5br			; -0.367305
	DD	03d9392a0r			; 0.072057
	DD	0bef3f412r			; -0.476471
	DD	0be088d65r			; -0.133352
	DD	03e2f42e9r			; 0.171154
	DD	03dc8c841r			; 0.0980382
	DD	080000000r			; -0
	DD	0bf6e1b14r			; -0.930101
	DD	0bebc0f5br			; -0.367305
	DD	0be1e3779r			; -0.154508
	DD	0bef37872r			; -0.475528
	DD	000000000r			; 0
	DD	03f000000r			; 0.5
	DD	03dccccc2r			; 0.0999999
	DD	0be253758r			; -0.161344
	DD	0bf7b86bbr			; -0.982525
	DD	0bdbe1301r			; -0.0928097
	DD	0bd9392a0r			; -0.072057
	DD	0bef3f412r			; -0.476471
	DD	0be088d65r			; -0.133352
	DD	03ea85e8cr			; 0.328846
	DD	03dc8c841r			; 0.0980382
	DD	0be253758r			; -0.161344
	DD	0bf7b86bar			; -0.982525
	DD	0bdbe1300r			; -0.0928097
	DD	000000000r			; 0
	DD	0befff0d2r			; -0.499884
	DD	0bc305011r			; -0.0107613
	DD	03e800000r			; 0.25
	DD	03be07fcfr			; 0.00685117
	DD	0be253758r			; -0.161344
	DD	0bf7b86bar			; -0.982525
	DD	0bdbe1300r			; -0.0928097
	DD	03d9392a0r			; 0.072057
	DD	0bef3f412r			; -0.476471
	DD	0be088d65r			; -0.133352
	DD	03e2f42e9r			; 0.171154
	DD	03dc8c841r			; 0.0980382
	DD	03e96c07ar			; 0.294437
	DD	0bf644ffar			; -0.891845
	DD	0beafd130r			; -0.343393
	DD	03e0be9b0r			; 0.136634
	DD	0bed17a63r			; -0.409137
	DD	0be8176e5r			; -0.25286
	DD	03e2f42e9r			; 0.171154
	DD	03e479c15r			; 0.194931
	DD	03e96c07ar			; 0.294437
	DD	0bf644ffar			; -0.891845
	DD	0beafd130r			; -0.343393
	DD	03e5e26aer			; 0.216944
	DD	0beded6a5r			; -0.435231
	DD	0bdee089fr			; -0.116227
	DD	03da0502fr			; 0.0782779
	DD	03e27c05ar			; 0.16382
	DD	03e96c07ar			; 0.294437
	DD	0bf644ffar			; -0.891845
	DD	0beafd130r			; -0.343393
	DD	000000000r			; 0
	DD	0befff0d2r			; -0.499884
	DD	0bc305011r			; -0.0107613
	DD	03fa00000r			; 1.25
	DD	03be07fcfr			; 0.00685117
	DD	03e253758r			; 0.161344
	DD	0bf7b86bar			; -0.982525
	DD	0bdbe1300r			; -0.0928097
	DD	03d9392a0r			; 0.072057
	DD	0bef3f412r			; -0.476471
	DD	0be088d65r			; -0.133352
	DD	03f95e85dr			; 1.17115
	DD	03dc8c841r			; 0.0980382
	DD	03e253758r			; 0.161344
	DD	0bf7b86bar			; -0.982525
	DD	0bdbe1300r			; -0.0928097
	DD	03e1e3779r			; 0.154508
	DD	0bef37872r			; -0.475528
	DD	000000000r			; 0
	DD	03f800000r			; 1
	DD	03dccccc2r			; 0.0999999
	DD	03e253758r			; 0.161344
	DD	0bf7b86bbr			; -0.982525
	DD	0bdbe1301r			; -0.0928097
	DD	0bda479fdr			; -0.0803108
	DD	0bef59195r			; -0.479626
	DD	03dee089er			; 0.116227
	DD	03f275d4fr			; 0.653768
	DD	03dbabcb2r			; 0.0911802
	DD	000000000r			; 0
	DD	0bf7ccdb3r			; -0.987514
	DD	03e21505br			; 0.157533
	DD	000000000r			; 0
	DD	0befff0d2r			; -0.499884
	DD	0bc305011r			; -0.0107613
	DD	03fa00000r			; 1.25
	DD	03be07fcfr			; 0.00685117
	DD	000000000r			; 0
	DD	0bf7ccdb3r			; -0.987514
	DD	03e21505br			; 0.157533
	DD	03da479fdr			; 0.0803108
	DD	0bef59195r			; -0.479626
	DD	03dee089er			; 0.116227
	DD	03f58a2b1r			; 0.846232
	DD	03dbabcb2r			; 0.0911802
	DD	000000000r			; 0
	DD	0bf7ccdb3r			; -0.987514
	DD	03e21505br			; 0.157533
	DD	03eb19b92r			; 0.34689
	DD	0beae8001r			; -0.34082
	DD	0bdee089er			; -0.116227
	DD	03d52c230r			; 0.0514547
	DD	03e85c4c1r			; 0.261267
	DD	03f299576r			; 0.662437
	DD	0bf232202r			; -0.637238
	DD	0bec9a4a5r			; -0.393834
	DD	03e869652r			; 0.262866
	DD	0beb93e4er			; -0.361803
	DD	0be64f923r			; -0.223607
	DD	03de5c099r			; 0.112184
	DD	03e784d6dr			; 0.242483
	DD	03f299576r			; 0.662437
	DD	0bf232203r			; -0.637238
	DD	0bec9a4a6r			; -0.393834
	DD	03eb19b96r			; 0.34689
	DD	0be8343c9r			; -0.256377
	DD	0be8176e5r			; -0.25286
	DD	03dcd4f48r			; 0.100249
	DD	03ea8419fr			; 0.328626
	DD	03f299575r			; 0.662437
	DD	0bf232203r			; -0.637238
	DD	0bec9a4a5r			; -0.393834
	DD	03edc9ce3r			; 0.430884
	DD	0be5cf24fr			; -0.215768
	DD	0be088d66r			; -0.133352
	DD	03d43a85br			; 0.047768
	DD	03eb74812r			; 0.357972
	DD	03f4e8806r			; 0.806763
	DD	0bed01264r			; -0.40639
	DD	0bedb9c9fr			; -0.428929
	DD	03eb19b96r			; 0.34689
	DD	0be8343c9r			; -0.256377
	DD	0be8176e5r			; -0.25286
	DD	03dcd4f48r			; 0.100249
	DD	03ea8419fr			; 0.328626
	DD	03f4e8806r			; 0.806763
	DD	0bed01264r			; -0.40639
	DD	0bedb9c9er			; -0.428929
	DD	03ecf1bc1r			; 0.404509
	DD	0be06964br			; -0.131433
	DD	0be86964br			; -0.262865
	DD	03dbbd50ar			; 0.0917149
	DD	03ed4a676r			; 0.415332
	DD	03f4e8807r			; 0.806763
	DD	0bed01264r			; -0.40639
	DD	0bedb9c9er			; -0.428929
	DD	03ecf1bbar			; 0.404508
	DD	0be96791br			; -0.293893
	DD	000000000r			; 0
	DD	03f800000r			; 1
	DD	03e999997r			; 0.3
	DD	03f4e8803r			; 0.806763
	DD	0bf10bd5er			; -0.56539
	DD	0be2fc885r			; -0.171663
	DD	03eb19b92r			; 0.34689
	DD	0beae8001r			; -0.34082
	DD	0bdee089er			; -0.116227
	DD	03f869612r			; 1.05145
	DD	03e85c4c1r			; 0.261267
	DD	03f4e8802r			; 0.806763
	DD	0bf10bd5er			; -0.56539
	DD	0be2fc884r			; -0.171663
	DD	03edc9ce3r			; 0.430884
	DD	0be5cf24fr			; -0.215768
	DD	0be088d66r			; -0.133352
	DD	03f861d43r			; 1.04777
	DD	03eb74812r			; 0.357972
	DD	03f4e8803r			; 0.806763
	DD	0bf10bd5er			; -0.56539
	DD	0be2fc885r			; -0.171663
	DD	03ef36a02r			; 0.475418
	DD	0bda1315dr			; -0.0787074
	DD	0be088d66r			; -0.133352
	DD	03d3245c9r			; 0.0435236
	DD	03ee63cfcr			; 0.449684
	DD	03f643cfar			; 0.891555
	DD	0be14eaa5r			; -0.145426
	DD	0bedb9c9dr			; -0.428929
	DD	03ecf1bc1r			; 0.404509
	DD	0be06964br			; -0.131433
	DD	0be86964br			; -0.262865
	DD	03dbbd50ar			; 0.0917149
	DD	03ed4a676r			; 0.415332
	DD	03f643cf8r			; 0.891555
	DD	0be14eaa4r			; -0.145426
	DD	0bedb9c9cr			; -0.428929
	DD	03edcd7dcr			; 0.431334
	DD	03b667124r			; 0.00351627
	DD	0be8176e5r			; -0.25286
	DD	03dacd41dr			; 0.0843889
	DD	03f0092b4r			; 0.502239
	DD	03f643cf9r			; 0.891555
	DD	0be14eaa5r			; -0.145426
	DD	0bedb9c9er			; -0.428929
	DD	03ef36a00r			; 0.475418
	DD	0be1e2e1cr			; -0.154473
	DD	0bc305012r			; -0.0107613
	DD	03b6c0e43r			; 0.00360192
	DD	03ecccfefr			; 0.400024
	DD	03f6f25ebr			; 0.934172
	DD	0be9b6869r			; -0.303531
	DD	0be401839r			; -0.187592
	DD	03edc9ce3r			; 0.430884
	DD	0be5cf24fr			; -0.215768
	DD	0be088d66r			; -0.133352
	DD	03d43a85br			; 0.047768
	DD	03eb74812r			; 0.357972
	DD	03f6f25ecr			; 0.934172
	DD	0be9b686ar			; -0.303531
	DD	0be40183ar			; -0.187592
	DD	03ef36a02r			; 0.475418
	DD	0bda1315dr			; -0.0787074
	DD	0be088d66r			; -0.133352
	DD	03d3245c9r			; 0.0435236
	DD	03ee63cfcr			; 0.449684
	DD	03f6f25ebr			; 0.934172
	DD	0be9b686ar			; -0.303531
	DD	0be401839r			; -0.187592
	DD	03edcd7d6r			; 0.431334
	DD	0be65fbb1r			; -0.224593
	DD	03dee089er			; 0.116227
	DD	03f7546a3r			; 0.958109
	DD	03eb413dfr			; 0.351714
	DD	03f643cf4r			; 0.891555
	DD	0bee5b9ccr			; -0.448683
	DD	03d7cecfbr			; 0.0617494
	DD	03ecf1bbar			; 0.404508
	DD	0be96791br			; -0.293893
	DD	000000000r			; 0
	DD	03f800000r			; 1
	DD	03e999997r			; 0.3
	DD	03f643cf3r			; 0.891555
	DD	0bee5b9ccr			; -0.448683
	DD	03d7cecfbr			; 0.0617494
	DD	03ef36a00r			; 0.475418
	DD	0be1e2e1cr			; -0.154473
	DD	0bc305012r			; -0.0107613
	DD	03f807607r			; 1.0036
	DD	03ecccfefr			; 0.400024
	DD	03f643cf4r			; 0.891555
	DD	0bee5b9ccr			; -0.448683
	DD	03d7cecfbr			; 0.0617494
	DD	03ef64193r			; 0.480969
	DD	03d931d00r			; 0.0718327
	DD	0bdee089fr			; -0.116227
	DD	03d1a91d8r			; 0.0377367
	DD	03f0bbf5fr			; 0.545889
	DD	03f691555r			; 0.910482
	DD	03e0131aar			; 0.126166
	DD	0bec9a49fr			; -0.393834
	DD	03edcd7dcr			; 0.431334
	DD	03b667124r			; 0.00351627
	DD	0be8176e5r			; -0.25286
	DD	03dacd41dr			; 0.0843889
	DD	03f0092b4r			; 0.502239
	DD	03f691554r			; 0.910482
	DD	03e0131aar			; 0.126166
	DD	0bec9a49dr			; -0.393834
	DD	03ed9c441r			; 0.425325
	DD	03e0d8379r			; 0.138197
	DD	0be64f921r			; -0.223607
	DD	03d9dc411r			; 0.0770341
	DD	03f16d1d6r			; 0.589139
	DD	03f691553r			; 0.910482
	DD	03e0131aar			; 0.126166
	DD	0bec9a49er			; -0.393834
	DD	03f000000r			; 0.5
	DD	000000000r			; 0
	DD	000000000r			; 0
	DD	03f800000r			; 1
	DD	03f000000r			; 0.5
	DD	03f7c29c7r			; 0.985012
	DD	0bc8991c0r			; -0.0167931
	DD	0be2fc89fr			; -0.171664
	DD	03ef36a02r			; 0.475418
	DD	0bda1315dr			; -0.0787074
	DD	0be088d66r			; -0.133352
	DD	03f85922er			; 1.04352
	DD	03ee63cfcr			; 0.449684
	DD	03f7c29c6r			; 0.985012
	DD	0bc8991bfr			; -0.0167931
	DD	0be2fc89er			; -0.171664
	DD	03ef64193r			; 0.480969
	DD	03d931d00r			; 0.0718327
	DD	0bdee089fr			; -0.116227
	DD	03f84d48fr			; 1.03774
	DD	03f0bbf5fr			; 0.545889
	DD	03f7c29c7r			; 0.985012
	DD	0bc8991c0r			; -0.0167931
	DD	0be2fc89dr			; -0.171664
	DD	03ef64193r			; 0.480969
	DD	0bd931d00r			; -0.0718327
	DD	03dee089fr			; 0.116227
	DD	03f7656e3r			; 0.962263
	DD	03ee88141r			; 0.454111
	DD	03f7c29c7r			; 0.985012
	DD	0be24ea8fr			; -0.161051
	DD	03d7ced4er			; 0.0617497
	DD	03ef36a00r			; 0.475418
	DD	0be1e2e1cr			; -0.154473
	DD	0bc305012r			; -0.0107613
	DD	03f807607r			; 1.0036
	DD	03ecccfefr			; 0.400024
	DD	03f7c29c8r			; 0.985013
	DD	0be24ea8fr			; -0.161051
	DD	03d7ced4dr			; 0.0617497
	DD	03f000000r			; 0.5
	DD	000000000r			; 0
	DD	000000000r			; 0
	DD	03f800000r			; 1
	DD	03f000000r			; 0.5
	DD	03f7c29c7r			; 0.985012
	DD	0be24ea8fr			; -0.161051
	DD	03d7ced4dr			; 0.0617497
	DD	03ed9c441r			; 0.425325
	DD	0be0d8379r			; -0.138197
	DD	03e64f921r			; 0.223607
	DD	03f6c477er			; 0.922966
	DD	03ed25c53r			; 0.410861
	DD	03f691553r			; 0.910482
	DD	0be977780r			; -0.295834
	DD	03e93f454r			; 0.288973
	DD	03edcd7d6r			; 0.431334
	DD	0be65fbb1r			; -0.224593
	DD	03dee089er			; 0.116227
	DD	03f7546a3r			; 0.958109
	DD	03eb413dfr			; 0.351714
	DD	03f691554r			; 0.910482
	DD	0be977780r			; -0.295834
	DD	03e93f454r			; 0.288973
	DD	03ef64193r			; 0.480969
	DD	0bd931d00r			; -0.0718327
	DD	03dee089fr			; 0.116227
	DD	03f7656e3r			; 0.962263
	DD	03ee88141r			; 0.454111
	DD	03f691553r			; 0.910482
	DD	0be97777fr			; -0.295834
	DD	03e93f453r			; 0.288973
	DD	03eb19b92r			; 0.34689
	DD	0beae8001r			; -0.34082
	DD	0bdee089er			; -0.116227
	DD	03d52c230r			; 0.0514547
	DD	03e85c4c1r			; 0.261267
	DD	03f41d874r			; 0.757209
	DD	0bf0e3d3er			; -0.555622
	DD	0beafd130r			; -0.343393
	DD	03eb19b96r			; 0.34689
	DD	0be8343c9r			; -0.256377
	DD	0be8176e5r			; -0.25286
	DD	03dcd4f48r			; 0.100249
	DD	03ea8419fr			; 0.328626
	DD	03f41d874r			; 0.757209
	DD	0bf0e3d3er			; -0.555622
	DD	0beafd131r			; -0.343393
	DD	03edc9ce3r			; 0.430884
	DD	0be5cf24fr			; -0.215768
	DD	0be088d66r			; -0.133352
	DD	03d43a85br			; 0.047768
	DD	03eb74812r			; 0.357972
	DD	03f41d873r			; 0.757209
	DD	0bf0e3d3er			; -0.555622
	DD	0beafd130r			; -0.343393
	DD	03edc9ce3r			; 0.430884
	DD	0be5cf24fr			; -0.215768
	DD	0be088d66r			; -0.133352
	DD	03d43a85br			; 0.047768
	DD	03eb74812r			; 0.357972
	DD	03f6273bbr			; 0.884578
	DD	0be932851r			; -0.287417
	DD	0bebc0f59r			; -0.367305
	DD	03ecf1bc1r			; 0.404509
	DD	0be06964br			; -0.131433
	DD	0be86964br			; -0.262865
	DD	03dbbd50ar			; 0.0917149
	DD	03ed4a676r			; 0.415332
	DD	03f6273bar			; 0.884578
	DD	0be93284fr			; -0.287417
	DD	0bebc0f58r			; -0.367305
	DD	03ef36a02r			; 0.475418
	DD	0bda1315dr			; -0.0787074
	DD	0be088d66r			; -0.133352
	DD	03d3245c9r			; 0.0435236
	DD	03ee63cfcr			; 0.449684
	DD	03f6273bar			; 0.884578
	DD	0be932850r			; -0.287417
	DD	0bebc0f59r			; -0.367305
	DD	03ecf1bbar			; 0.404508
	DD	0be96791br			; -0.293893
	DD	000000000r			; 0
	DD	03f800000r			; 1
	DD	03e999997r			; 0.3
	DD	03f6273b7r			; 0.884578
	DD	0beea045cr			; -0.457065
	DD	0bdbe12e9r			; -0.0928095
	DD	03edc9ce3r			; 0.430884
	DD	0be5cf24fr			; -0.215768
	DD	0be088d66r			; -0.133352
	DD	03f861d43r			; 1.04777
	DD	03eb74812r			; 0.357972
	DD	03f6273b5r			; 0.884578
	DD	0beea045ar			; -0.457064
	DD	0bdbe12e7r			; -0.0928095
	DD	03ef36a00r			; 0.475418
	DD	0be1e2e1cr			; -0.154473
	DD	0bc305012r			; -0.0107613
	DD	03f807607r			; 1.0036
	DD	03ecccfefr			; 0.400024
	DD	03f6273b7r			; 0.884578
	DD	0beea045cr			; -0.457065
	DD	0bdbe12ear			; -0.0928095
	DD	03ef36a02r			; 0.475418
	DD	0bda1315dr			; -0.0787074
	DD	0be088d66r			; -0.133352
	DD	03d3245c9r			; 0.0435236
	DD	03ee63cfcr			; 0.449684
	DD	03f706e33r			; 0.939182
	DD	03b91372fr			; 0.00443163
	DD	0beafd12ar			; -0.343393
	DD	03edcd7dcr			; 0.431334
	DD	03b667124r			; 0.00351627
	DD	0be8176e5r			; -0.25286
	DD	03dacd41dr			; 0.0843889
	DD	03f0092b4r			; 0.502239
	DD	03f706e31r			; 0.939181
	DD	03b91372er			; 0.00443163
	DD	0beafd12ar			; -0.343393
	DD	03ef64193r			; 0.480969
	DD	03d931d00r			; 0.0718327
	DD	0bdee089fr			; -0.116227
	DD	03d1a91d8r			; 0.0377367
	DD	03f0bbf5fr			; 0.545889
	DD	03f706e31r			; 0.939181
	DD	03b91372er			; 0.00443163
	DD	0beafd129r			; -0.343393
	DD	03ef36a00r			; 0.475418
	DD	0be1e2e1cr			; -0.154473
	DD	0bc305012r			; -0.0107613
	DD	03f807607r			; 1.0036
	DD	03ecccfefr			; 0.400024
	DD	03f7bfab9r			; 0.984294
	DD	0be19c604r			; -0.150169
	DD	0bdbe12eer			; -0.0928095
	DD	03ef36a02r			; 0.475418
	DD	0bda1315dr			; -0.0787074
	DD	0be088d66r			; -0.133352
	DD	03f85922er			; 1.04352
	DD	03ee63cfcr			; 0.449684
	DD	03f7bfab7r			; 0.984294
	DD	0be19c604r			; -0.150169
	DD	0bdbe12eer			; -0.0928095
	DD	03f000000r			; 0.5
	DD	000000000r			; 0
	DD	000000000r			; 0
	DD	03f800000r			; 1
	DD	03f000000r			; 0.5
	DD	03f7bfab7r			; 0.984294
	DD	0be19c604r			; -0.150169
	DD	0bdbe12eer			; -0.0928095
	DD	03edcd7d6r			; 0.431334
	DD	0be65fbb1r			; -0.224593
	DD	03dee089er			; 0.116227
	DD	03f7546a3r			; 0.958109
	DD	03eb413dfr			; 0.351714
	DD	03f706e2dr			; 0.939181
	DD	0be9c3dc0r			; -0.305159
	DD	03e215083r			; 0.157534
	DD	03ef36a00r			; 0.475418
	DD	0be1e2e1cr			; -0.154473
	DD	0bc305012r			; -0.0107613
	DD	03f807607r			; 1.0036
	DD	03ecccfefr			; 0.400024
	DD	03f706e2er			; 0.939181
	DD	0be9c3dbfr			; -0.305159
	DD	03e215082r			; 0.157534
	DD	03ef64193r			; 0.480969
	DD	0bd931d00r			; -0.0718327
	DD	03dee089fr			; 0.116227
	DD	03f7656e3r			; 0.962263
	DD	03ee88141r			; 0.454111
	DD	03f706e2fr			; 0.939181
	DD	0be9c3dc1r			; -0.305159
	DD	03e215084r			; 0.157534
	DD	03edcd7d6r			; 0.431334
	DD	03e65fbb1r			; 0.224593
	DD	0bdee089er			; -0.116227
	DD	03d2b95d6r			; 0.0418909
	DD	03f25f610r			; 0.648286
	DD	03f4f8d87r			; 0.810753
	DD	03eddbf02r			; 0.433098
	DD	0bec9a49er			; -0.393834
	DD	03ed9c441r			; 0.425325
	DD	03e0d8379r			; 0.138197
	DD	0be64f921r			; -0.223607
	DD	03d9dc411r			; 0.0770341
	DD	03f16d1d6r			; 0.589139
	DD	03f4f8d87r			; 0.810753
	DD	03eddbf02r			; 0.433098
	DD	0bec9a49er			; -0.393834
	DD	03eb3b959r			; 0.351023
	DD	03e805a1fr			; 0.250688
	DD	0be8176e4r			; -0.25286
	DD	03dcb79adr			; 0.0993532
	DD	03f2acbcfr			; 0.667172
	DD	03f4f8d87r			; 0.810753
	DD	03eddbf02r			; 0.433098
	DD	0bec9a49fr			; -0.393834
	DD	03ead3d48r			; 0.338358
	DD	03eafad5er			; 0.34312
	DD	0be088d63r			; -0.133352
	DD	03d74bcc3r			; 0.0597503
	DD	03f3da11dr			; 0.74074
	DD	03f22c407r			; 0.635804
	DD	03f24462fr			; 0.641696
	DD	0bedb9c93r			; -0.428929
	DD	03eb3b959r			; 0.351023
	DD	03e805a1fr			; 0.250688
	DD	0be8176e4r			; -0.25286
	DD	03dcb79adr			; 0.0993532
	DD	03f2acbcfr			; 0.667172
	DD	03f22c406r			; 0.635804
	DD	03f24462fr			; 0.641696
	DD	0bedb9c93r			; -0.428929
	DD	03e7fffffr			; 0.25
	DD	03eb02d4fr			; 0.344096
	DD	0be869648r			; -0.262865
	DD	03e041660r			; 0.128992
	DD	03f3dd92dr			; 0.741595
	DD	03f22c406r			; 0.635804
	DD	03f244630r			; 0.641696
	DD	0bedb9c93r			; -0.428929
	DD	03ecf1bbar			; 0.404508
	DD	03e96791br			; 0.293893
	DD	000000000r			; 0
	DD	03f800000r			; 1
	DD	03f333334r			; 0.7
	DD	03f497a2er			; 0.787021
	DD	03f17b22br			; 0.592562
	DD	0be2fc889r			; -0.171663
	DD	03edcd7d6r			; 0.431334
	DD	03e65fbb1r			; 0.224593
	DD	0bdee089er			; -0.116227
	DD	03f855cafr			; 1.04189
	DD	03f25f610r			; 0.648286
	DD	03f497a2fr			; 0.787021
	DD	03f17b22br			; 0.592562
	DD	0be2fc888r			; -0.171663
	DD	03ead3d48r			; 0.338358
	DD	03eafad5er			; 0.34312
	DD	0be088d63r			; -0.133352
	DD	03f87a5e6r			; 1.05975
	DD	03f3da11dr			; 0.74074
	DD	03f497a2fr			; 0.787021
	DD	03f17b22br			; 0.592562
	DD	0be2fc888r			; -0.171663
	DD	03e631705r			; 0.221768
	DD	03edb0c39r			; 0.427828
	DD	0be088d63r			; -0.133352
	DD	03db076car			; 0.0861641
	DD	03f53ac26r			; 0.826846
	DD	03ed3df81r			; 0.413815
	DD	03f4d901er			; 0.80298
	DD	0bedb9c99r			; -0.428929
	DD	03e7fffffr			; 0.25
	DD	03eb02d4fr			; 0.344096
	DD	0be869648r			; -0.262865
	DD	03e041660r			; 0.128992
	DD	03f3dd92dr			; 0.741595
	DD	03ed3df82r			; 0.413815
	DD	03f4d901er			; 0.80298
	DD	0bedb9c9ar			; -0.428929
	DD	03e051077r			; 0.129946
	DD	03ed29738r			; 0.41131
	DD	0be8176e3r			; -0.25286
	DD	03e32a274r			; 0.174448
	DD	03f4eb791r			; 0.807489
	DD	03ed3df81r			; 0.413815
	DD	03f4d901dr			; 0.80298
	DD	0bedb9c99r			; -0.428929
	DD	03e967029r			; 0.293824
	DD	03ecf0f76r			; 0.404415
	DD	0bc305010r			; -0.0107613
	DD	03bbeeb69r			; 0.0058264
	DD	03f4cc628r			; 0.799899
	DD	03f13cd3ar			; 0.57735
	DD	03f4b6e7cr			; 0.794655
	DD	0be401826r			; -0.187592
	DD	03ead3d48r			; 0.338358
	DD	03eafad5er			; 0.34312
	DD	0be088d63r			; -0.133352
	DD	03d74bcc3r			; 0.0597503
	DD	03f3da11dr			; 0.74074
	DD	03f13cd3ar			; 0.57735
	DD	03f4b6e7cr			; 0.794655
	DD	0be401826r			; -0.187592
	DD	03e631705r			; 0.221768
	DD	03edb0c39r			; 0.427828
	DD	0be088d63r			; -0.133352
	DD	03db076car			; 0.0861641
	DD	03f53ac26r			; 0.826846
	DD	03f13cd39r			; 0.57735
	DD	03f4b6e7br			; 0.794655
	DD	0be401824r			; -0.187592
	DD	03eb19b92r			; 0.34689
	DD	03eae8001r			; 0.34082
	DD	03dee089er			; 0.116227
	DD	03f72d3ddr			; 0.948545
	DD	03f3d1d9fr			; 0.738733
	DD	03f33c53cr			; 0.702228
	DD	03f3592a7r			; 0.709269
	DD	03d7cecbfr			; 0.0617492
	DD	03ecf1bbar			; 0.404508
	DD	03e96791br			; 0.293893
	DD	000000000r			; 0
	DD	03f800000r			; 1
	DD	03f333334r			; 0.7
	DD	03f33c53cr			; 0.702228
	DD	03f3592a7r			; 0.709269
	DD	03d7cecbfr			; 0.0617492
	DD	03e967029r			; 0.293824
	DD	03ecf0f76r			; 0.404415
	DD	0bc305010r			; -0.0107613
	DD	03f80beebr			; 1.00583
	DD	03f4cc628r			; 0.799899
	DD	03f33c53cr			; 0.702228
	DD	03f3592a6r			; 0.709269
	DD	03d7cecbfr			; 0.0617492
	DD	03da479fdr			; 0.0803108
	DD	03ef59195r			; 0.479626
	DD	0bdee089er			; -0.116227
	DD	03e1d753ar			; 0.153767
	DD	03f68a86ar			; 0.90882
	DD	03e253c69r			; 0.161363
	DD	03f67a7f7r			; 0.904907
	DD	0bec9a4afr			; -0.393835
	DD	03e051077r			; 0.129946
	DD	03ed29738r			; 0.41131
	DD	0be8176e3r			; -0.25286
	DD	03e32a274r			; 0.174448
	DD	03f4eb791r			; 0.807489
	DD	03e253c6ar			; 0.161363
	DD	03f67a7f9r			; 0.904907
	DD	0bec9a4afr			; -0.393835
	DD	000000000r			; 0
	DD	03ee4f931r			; 0.447214
	DD	0be64f91fr			; -0.223607
	DD	03e800000r			; 0.25
	DD	03f5a37f9r			; 0.852417
	DD	03e253c69r			; 0.161363
	DD	03f67a7f8r			; 0.904907
	DD	0bec9a4afr			; -0.393835
	DD	03e1e3779r			; 0.154508
	DD	03ef37872r			; 0.475528
	DD	000000000r			; 0
	DD	03f800000r			; 1
	DD	03f666667r			; 0.9
	DD	03ea405e2r			; 0.320357
	DD	03f6e7e31r			; 0.931613
	DD	0be2fc890r			; -0.171664
	DD	03e631705r			; 0.221768
	DD	03edb0c39r			; 0.427828
	DD	0be088d63r			; -0.133352
	DD	03f8b076dr			; 1.08616
	DD	03f53ac26r			; 0.826846
	DD	03ea405e1r			; 0.320357
	DD	03f6e7e30r			; 0.931613
	DD	0be2fc88fr			; -0.171664
	DD	03da479fdr			; 0.0803108
	DD	03ef59195r			; 0.479626
	DD	0bdee089er			; -0.116227
	DD	03f93aea7r			; 1.15377
	DD	03f68a86ar			; 0.90882
	DD	03ea405e3r			; 0.320357
	DD	03f6e7e32r			; 0.931613
	DD	0be2fc891r			; -0.171664
	DD	03e5e26aer			; 0.216944
	DD	03eded6a5r			; 0.435231
	DD	03dee089fr			; 0.116227
	DD	03f6bf5far			; 0.921722
	DD	03f560fe9r			; 0.83618
	DD	03eea4490r			; 0.457554
	DD	03f6314b9r			; 0.887035
	DD	03d7cecd6r			; 0.0617493
	DD	03e967029r			; 0.293824
	DD	03ecf0f76r			; 0.404415
	DD	0bc305010r			; -0.0107613
	DD	03f80beebr			; 1.00583
	DD	03f4cc628r			; 0.799899
	DD	03eea4491r			; 0.457554
	DD	03f6314bbr			; 0.887035
	DD	03d7cecd7r			; 0.0617493
	DD	03e1e3779r			; 0.154508
	DD	03ef37872r			; 0.475528
	DD	000000000r			; 0
	DD	03f800000r			; 1
	DD	03f666667r			; 0.9
	DD	03eea4490r			; 0.457554
	DD	03f6314bar			; 0.887035
	DD	03d7cecd5r			; 0.0617493
	DD	03e869652r			; 0.262866
	DD	03eb93e4er			; 0.361803
	DD	03e64f923r			; 0.223607
	DD	03f6347edr			; 0.887816
	DD	03f41eca5r			; 0.757517
	DD	03f100dabr			; 0.562709
	DD	03f4645c3r			; 0.774502
	DD	03e93f461r			; 0.288974
	DD	03eb19b92r			; 0.34689
	DD	03eae8001r			; 0.34082
	DD	03dee089er			; 0.116227
	DD	03f72d3ddr			; 0.948545
	DD	03f3d1d9fr			; 0.738733
	DD	03f100daar			; 0.562708
	DD	03f4645c1r			; 0.774502
	DD	03e93f461r			; 0.288974
	DD	03e5e26aer			; 0.216944
	DD	03eded6a5r			; 0.435231
	DD	03dee089fr			; 0.116227
	DD	03f6bf5far			; 0.921722
	DD	03f560fe9r			; 0.83618
	DD	03f100da9r			; 0.562708
	DD	03f4645c1r			; 0.774502
	DD	03e93f460r			; 0.288974
	DD	03edcd7d6r			; 0.431334
	DD	03e65fbb1r			; 0.224593
	DD	0bdee089er			; -0.116227
	DD	03d2b95d6r			; 0.0418909
	DD	03f25f610r			; 0.648286
	DD	03f432dd7r			; 0.762418
	DD	03f0c675fr			; 0.548452
	DD	0beafd128r			; -0.343393
	DD	03eb3b959r			; 0.351023
	DD	03e805a1fr			; 0.250688
	DD	0be8176e4r			; -0.25286
	DD	03dcb79adr			; 0.0993532
	DD	03f2acbcfr			; 0.667172
	DD	03f432dd7r			; 0.762418
	DD	03f0c675er			; 0.548452
	DD	0beafd128r			; -0.343393
	DD	03ead3d48r			; 0.338358
	DD	03eafad5er			; 0.34312
	DD	0be088d63r			; -0.133352
	DD	03d74bcc3r			; 0.0597503
	DD	03f3da11dr			; 0.74074
	DD	03f432dd8r			; 0.762418
	DD	03f0c6760r			; 0.548452
	DD	0beafd129r			; -0.343393
	DD	03ead3d48r			; 0.338358
	DD	03eafad5er			; 0.34312
	DD	0be088d63r			; -0.133352
	DD	03d74bcc3r			; 0.0597503
	DD	03f3da11dr			; 0.74074
	DD	03f0bf47fr			; 0.546699
	DD	03f40a1b2r			; 0.752467
	DD	0bebc0f55r			; -0.367304
	DD	03e7fffffr			; 0.25
	DD	03eb02d4fr			; 0.344096
	DD	0be869648r			; -0.262865
	DD	03e041660r			; 0.128992
	DD	03f3dd92dr			; 0.741595
	DD	03f0bf47fr			; 0.546699
	DD	03f40a1b2r			; 0.752467
	DD	0bebc0f56r			; -0.367305
	DD	03e631705r			; 0.221768
	DD	03edb0c39r			; 0.427828
	DD	0be088d63r			; -0.133352
	DD	03db076car			; 0.0861641
	DD	03f53ac26r			; 0.826846
	DD	03f0bf47fr			; 0.546699
	DD	03f40a1b2r			; 0.752467
	DD	0bebc0f56r			; -0.367305
	DD	03ecf1bbar			; 0.404508
	DD	03e96791br			; 0.293893
	DD	000000000r			; 0
	DD	03f800000r			; 1
	DD	03f333334r			; 0.7
	DD	03f354255r			; 0.708043
	DD	03f33360dr			; 0.700043
	DD	0bdbe12e1r			; -0.0928094
	DD	03ead3d48r			; 0.338358
	DD	03eafad5er			; 0.34312
	DD	0be088d63r			; -0.133352
	DD	03f87a5e6r			; 1.05975
	DD	03f3da11dr			; 0.74074
	DD	03f354255r			; 0.708043
	DD	03f33360dr			; 0.700043
	DD	0bdbe12e1r			; -0.0928094
	DD	03e967029r			; 0.293824
	DD	03ecf0f76r			; 0.404415
	DD	0bc305010r			; -0.0107613
	DD	03f80beebr			; 1.00583
	DD	03f4cc628r			; 0.799899
	DD	03f354256r			; 0.708043
	DD	03f33360er			; 0.700044
	DD	0bdbe12e2r			; -0.0928095
	DD	03e631705r			; 0.221768
	DD	03edb0c39r			; 0.427828
	DD	0be088d63r			; -0.133352
	DD	03db076car			; 0.0861641
	DD	03f53ac26r			; 0.826846
	DD	03e926fbfr			; 0.286009
	DD	03f650373r			; 0.894584
	DD	0beafd132r			; -0.343393
	DD	03e051077r			; 0.129946
	DD	03ed29738r			; 0.41131
	DD	0be8176e3r			; -0.25286
	DD	03e32a274r			; 0.174448
	DD	03f4eb791r			; 0.807489
	DD	03e926fber			; 0.286009
	DD	03f650373r			; 0.894584
	DD	0beafd132r			; -0.343393
	DD	03da479fdr			; 0.0803108
	DD	03ef59195r			; 0.479626
	DD	0bdee089er			; -0.116227
	DD	03e1d753ar			; 0.153767
	DD	03f68a86ar			; 0.90882
	DD	03e926fbfr			; 0.286009
	DD	03f650373r			; 0.894584
	DD	0beafd132r			; -0.343393
	DD	03e967029r			; 0.293824
	DD	03ecf0f76r			; 0.404415
	DD	0bc305010r			; -0.0107613
	DD	03f80beebr			; 1.00583
	DD	03f4cc628r			; 0.799899
	DD	03ee4db04r			; 0.446983
	DD	03f63c455r			; 0.889715
	DD	0bdbe12e7r			; -0.0928095
	DD	03e631705r			; 0.221768
	DD	03edb0c39r			; 0.427828
	DD	0be088d63r			; -0.133352
	DD	03f8b076dr			; 1.08616
	DD	03f53ac26r			; 0.826846
	DD	03ee4db06r			; 0.446984
	DD	03f63c457r			; 0.889715
	DD	0bdbe12e7r			; -0.0928095
	DD	03e1e3779r			; 0.154508
	DD	03ef37872r			; 0.475528
	DD	000000000r			; 0
	DD	03f800000r			; 1
	DD	03f666667r			; 0.9
	DD	03ee4db05r			; 0.446983
	DD	03f63c456r			; 0.889715
	DD	0bdbe12e7r			; -0.0928095
	DD	03eb19b92r			; 0.34689
	DD	03eae8001r			; 0.34082
	DD	03dee089er			; 0.116227
	DD	03f72d3ddr			; 0.948545
	DD	03f3d1d9fr			; 0.738733
	DD	03f14981dr			; 0.580446
	DD	03f4c85b7r			; 0.798915
	DD	03e21505cr			; 0.157533
	DD	03e967029r			; 0.293824
	DD	03ecf0f76r			; 0.404415
	DD	0bc305010r			; -0.0107613
	DD	03f80beebr			; 1.00583
	DD	03f4cc628r			; 0.799899
	DD	03f14981dr			; 0.580446
	DD	03f4c85b6r			; 0.798915
	DD	03e21505cr			; 0.157533
	DD	03e5e26aer			; 0.216944
	DD	03eded6a5r			; 0.435231
	DD	03dee089fr			; 0.116227
	DD	03f6bf5far			; 0.921722
	DD	03f560fe9r			; 0.83618
	DD	03f14981dr			; 0.580446
	DD	03f4c85b7r			; 0.798915
	DD	03e21505cr			; 0.157533
	DD	03da479fdr			; 0.0803108
	DD	03ef59195r			; 0.479626
	DD	0bdee089er			; -0.116227
	DD	03e1d753ar			; 0.153767
	DD	03f68a86ar			; 0.90882
	DD	000000000r			; 0
	DD	03f751409r			; 0.957337
	DD	0be93f470r			; -0.288974
	DD	000000000r			; 0
	DD	03ee4f931r			; 0.447214
	DD	0be64f91fr			; -0.223607
	DD	03e800000r			; 0.25
	DD	03f5a37f9r			; 0.852417
	DD	000000000r			; 0
	DD	03f751408r			; 0.957337
	DD	0be93f46fr			; -0.288974
	DD	0bda479fdr			; -0.0803108
	DD	03ef59195r			; 0.479626
	DD	0bdee089er			; -0.116227
	DD	03eb14563r			; 0.346233
	DD	03f68a86ar			; 0.90882
	DD	000000000r			; 0
	DD	03f751409r			; 0.957337
	DD	0be93f470r			; -0.288974
	DD	000000000r			; 0
	DD	03efff0d2r			; 0.499884
	DD	03c305011r			; 0.0107613
	DD	03f400000r			; 0.75
	DD	03f7e3f00r			; 0.993149
	DD	0be1ad899r			; -0.151217
	DD	03f7c8fdbr			; 0.98657
	DD	0bd7cecc2r			; -0.0617492
	DD	0bda479fdr			; -0.0803108
	DD	03ef59195r			; 0.479626
	DD	0bdee089er			; -0.116227
	DD	03eb14563r			; 0.346233
	DD	03f68a86ar			; 0.90882
	DD	0be1ad899r			; -0.151217
	DD	03f7c8fdbr			; 0.98657
	DD	0bd7cecc1r			; -0.0617492
	DD	0be1e3779r			; -0.154508
	DD	03ef37872r			; 0.475528
	DD	000000000r			; 0
	DD	03f000000r			; 0.5
	DD	03f666667r			; 0.9
	DD	0be1ad899r			; -0.151217
	DD	03f7c8fdbr			; 0.98657
	DD	0bd7cecc3r			; -0.0617492
	DD	03e1e3779r			; 0.154508
	DD	03ef37872r			; 0.475528
	DD	000000000r			; 0
	DD	03f800000r			; 1
	DD	03f666667r			; 0.9
	DD	03e1ad899r			; 0.151217
	DD	03f7c8fdbr			; 0.98657
	DD	0bd7cecc3r			; -0.0617492
	DD	03da479fdr			; 0.0803108
	DD	03ef59195r			; 0.479626
	DD	0bdee089er			; -0.116227
	DD	03f93aea7r			; 1.15377
	DD	03f68a86ar			; 0.90882
	DD	03e1ad899r			; 0.151217
	DD	03f7c8fdbr			; 0.98657
	DD	0bd7cecc1r			; -0.0617492
	DD	000000000r			; 0
	DD	03efff0d2r			; 0.499884
	DD	03c305011r			; 0.0107613
	DD	03f400000r			; 0.75
	DD	03f7e3f00r			; 0.993149
	DD	03e1ad899r			; 0.151217
	DD	03f7c8fdbr			; 0.98657
	DD	0bd7cecc2r			; -0.0617492
	DD	0bd9392a0r			; -0.072057
	DD	03ef3f412r			; 0.476471
	DD	03e088d64r			; 0.133352
	DD	03f2bd0bar			; 0.671154
	DD	03f66e6f7r			; 0.901962
	DD	0be93aaf8r			; -0.288414
	DD	03f712664r			; 0.941992
	DD	03e2fc897r			; 0.171664
	DD	0be1e3779r			; -0.154508
	DD	03ef37872r			; 0.475528
	DD	000000000r			; 0
	DD	03f000000r			; 0.5
	DD	03f666667r			; 0.9
	DD	0be93aaf7r			; -0.288414
	DD	03f712664r			; 0.941992
	DD	03e2fc897r			; 0.171664
	DD	0be5e26aer			; -0.216944
	DD	03eded6a5r			; 0.435231
	DD	03dee089fr			; 0.116227
	DD	03f140a06r			; 0.578278
	DD	03f560fe9r			; 0.83618
	DD	0be93aaf7r			; -0.288414
	DD	03f712664r			; 0.941992
	DD	03e2fc896r			; 0.171664
	DD	03d9392a0r			; 0.072057
	DD	03ef3f412r			; 0.476471
	DD	03e088d64r			; 0.133352
	DD	03f542f46r			; 0.828846
	DD	03f66e6f7r			; 0.901962
	DD	080000000r			; -0
	DD	03f7b748ar			; 0.982247
	DD	03e401836r			; 0.187592
	DD	000000000r			; 0
	DD	03efff0d2r			; 0.499884
	DD	03c305011r			; 0.0107613
	DD	03f400000r			; 0.75
	DD	03f7e3f00r			; 0.993149
	DD	080000000r			; -0
	DD	03f7b748ar			; 0.982247
	DD	03e401836r			; 0.187592
	DD	0bd9392a0r			; -0.072057
	DD	03ef3f412r			; 0.476471
	DD	03e088d64r			; 0.133352
	DD	03f2bd0bar			; 0.671154
	DD	03f66e6f7r			; 0.901962
	DD	080000000r			; -0
	DD	03f7b748ar			; 0.982247
	DD	03e401836r			; 0.187592
	DD	03e5e26aer			; 0.216944
	DD	03eded6a5r			; 0.435231
	DD	03dee089fr			; 0.116227
	DD	03f6bf5far			; 0.921722
	DD	03f560fe9r			; 0.83618
	DD	03e93aaf7r			; 0.288414
	DD	03f712664r			; 0.941992
	DD	03e2fc896r			; 0.171664
	DD	03e1e3779r			; 0.154508
	DD	03ef37872r			; 0.475528
	DD	000000000r			; 0
	DD	03f800000r			; 1
	DD	03f666667r			; 0.9
	DD	03e93aaf7r			; 0.288414
	DD	03f712664r			; 0.941992
	DD	03e2fc897r			; 0.171664
	DD	03d9392a0r			; 0.072057
	DD	03ef3f412r			; 0.476471
	DD	03e088d64r			; 0.133352
	DD	03f542f46r			; 0.828846
	DD	03f66e6f7r			; 0.901962
	DD	03e93aaf8r			; 0.288414
	DD	03f712664r			; 0.941992
	DD	03e2fc897r			; 0.171664
	DD	0be0be9b0r			; -0.136634
	DD	03ed17a63r			; 0.409137
	DD	03e8176e5r			; 0.25286
	DD	03f2bd0bar			; 0.671154
	DD	03f4e18far			; 0.805069
	DD	0becd7d17r			; -0.401345
	DD	03f53b1d3r			; 0.826932
	DD	03ec9a4abr			; 0.393834
	DD	0be5e26aer			; -0.216944
	DD	03eded6a5r			; 0.435231
	DD	03dee089fr			; 0.116227
	DD	03f140a06r			; 0.578278
	DD	03f560fe9r			; 0.83618
	DD	0becd7d16r			; -0.401345
	DD	03f53b1d3r			; 0.826932
	DD	03ec9a4aar			; 0.393834
	DD	0be869652r			; -0.262866
	DD	03eb93e4er			; 0.361803
	DD	03e64f923r			; 0.223607
	DD	03f1cb813r			; 0.612184
	DD	03f41eca5r			; 0.757517
	DD	0becd7d17r			; -0.401345
	DD	03f53b1d2r			; 0.826932
	DD	03ec9a4aar			; 0.393834
	DD	000000000r			; 0
	DD	03ed9c444r			; 0.425326
	DD	03e86964ar			; 0.262865
	DD	03f400000r			; 0.75
	DD	03f52e407r			; 0.823792
	DD	0be0c7d48r			; -0.137197
	DD	03f649266r			; 0.892859
	DD	03edb9c99r			; 0.428929
	DD	0bd9392a0r			; -0.072057
	DD	03ef3f412r			; 0.476471
	DD	03e088d64r			; 0.133352
	DD	03f2bd0bar			; 0.671154
	DD	03f66e6f7r			; 0.901962
	DD	0be0c7d47r			; -0.137197
	DD	03f649265r			; 0.892859
	DD	03edb9c97r			; 0.428929
	DD	0be0be9b0r			; -0.136634
	DD	03ed17a63r			; 0.409137
	DD	03e8176e5r			; 0.25286
	DD	03f2bd0bar			; 0.671154
	DD	03f4e18far			; 0.805069
	DD	0be0c7d48r			; -0.137197
	DD	03f649266r			; 0.892859
	DD	03edb9c97r			; 0.428929
	DD	03e0be9b0r			; 0.136634
	DD	03ed17a63r			; 0.409137
	DD	03e8176e5r			; 0.25286
	DD	03f542f46r			; 0.828846
	DD	03f4e18far			; 0.805069
	DD	03e0c7d48r			; 0.137197
	DD	03f649266r			; 0.892859
	DD	03edb9c97r			; 0.428929
	DD	03d9392a0r			; 0.072057
	DD	03ef3f412r			; 0.476471
	DD	03e088d64r			; 0.133352
	DD	03f542f46r			; 0.828846
	DD	03f66e6f7r			; 0.901962
	DD	03e0c7d47r			; 0.137197
	DD	03f649265r			; 0.892859
	DD	03edb9c97r			; 0.428929
	DD	000000000r			; 0
	DD	03ed9c444r			; 0.425326
	DD	03e86964ar			; 0.262865
	DD	03f400000r			; 0.75
	DD	03f52e407r			; 0.823792
	DD	03e0c7d48r			; 0.137197
	DD	03f649266r			; 0.892859
	DD	03edb9c99r			; 0.428929
	DD	03e869652r			; 0.262866
	DD	03eb93e4er			; 0.361803
	DD	03e64f923r			; 0.223607
	DD	03f6347edr			; 0.887816
	DD	03f41eca5r			; 0.757517
	DD	03ecd7d17r			; 0.401345
	DD	03f53b1d2r			; 0.826932
	DD	03ec9a4aar			; 0.393834
	DD	03e5e26aer			; 0.216944
	DD	03eded6a5r			; 0.435231
	DD	03dee089fr			; 0.116227
	DD	03f6bf5far			; 0.921722
	DD	03f560fe9r			; 0.83618
	DD	03ecd7d17r			; 0.401345
	DD	03f53b1d3r			; 0.826932
	DD	03ec9a4aar			; 0.393834
	DD	03e0be9b0r			; 0.136634
	DD	03ed17a63r			; 0.409137
	DD	03e8176e5r			; 0.25286
	DD	03f542f46r			; 0.828846
	DD	03f4e18far			; 0.805069
	DD	03ecd7d18r			; 0.401345
	DD	03f53b1d3r			; 0.826932
	DD	03ec9a4abr			; 0.393834
	DD	03da479fdr			; 0.0803108
	DD	03ef59195r			; 0.479626
	DD	0bdee089er			; -0.116227
	DD	03f93aea7r			; 1.15377
	DD	03f68a86ar			; 0.90882
	DD	000000000r			; 0
	DD	03f7ccdb3r			; 0.987514
	DD	0be21505br			; -0.157533
	DD	0bda479fdr			; -0.0803108
	DD	03ef59195r			; 0.479626
	DD	0bdee089er			; -0.116227
	DD	03eb14563r			; 0.346233
	DD	03f68a86ar			; 0.90882
	DD	000000000r			; 0
	DD	03f7ccdb3r			; 0.987514
	DD	0be21505br			; -0.157533
	DD	000000000r			; 0
	DD	03efff0d2r			; 0.499884
	DD	03c305011r			; 0.0107613
	DD	03f400000r			; 0.75
	DD	03f7e3f00r			; 0.993149
	DD	000000000r			; 0
	DD	03f7ccdb3r			; 0.987514
	DD	0be21505br			; -0.157533
	DD	000000000r			; 0
	DD	03efff0d2r			; 0.499884
	DD	03c305011r			; 0.0107613
	DD	03f400000r			; 0.75
	DD	03f7e3f00r			; 0.993149
	DD	0be253759r			; -0.161344
	DD	03f7b86bar			; 0.982525
	DD	03dbe1302r			; 0.0928097
	DD	0be1e3779r			; -0.154508
	DD	03ef37872r			; 0.475528
	DD	000000000r			; 0
	DD	03f000000r			; 0.5
	DD	03f666667r			; 0.9
	DD	0be253759r			; -0.161344
	DD	03f7b86bar			; 0.982525
	DD	03dbe1303r			; 0.0928097
	DD	0bd9392a0r			; -0.072057
	DD	03ef3f412r			; 0.476471
	DD	03e088d64r			; 0.133352
	DD	03f2bd0bar			; 0.671154
	DD	03f66e6f7r			; 0.901962
	DD	0be253759r			; -0.161344
	DD	03f7b86bbr			; 0.982525
	DD	03dbe1302r			; 0.0928097
	DD	03e1e3779r			; 0.154508
	DD	03ef37872r			; 0.475528
	DD	000000000r			; 0
	DD	03f800000r			; 1
	DD	03f666667r			; 0.9
	DD	03e253759r			; 0.161344
	DD	03f7b86bar			; 0.982525
	DD	03dbe1303r			; 0.0928097
	DD	000000000r			; 0
	DD	03efff0d2r			; 0.499884
	DD	03c305011r			; 0.0107613
	DD	03f400000r			; 0.75
	DD	03f7e3f00r			; 0.993149
	DD	03e253759r			; 0.161344
	DD	03f7b86bar			; 0.982525
	DD	03dbe1302r			; 0.0928097
	DD	03d9392a0r			; 0.072057
	DD	03ef3f412r			; 0.476471
	DD	03e088d64r			; 0.133352
	DD	03f542f46r			; 0.828846
	DD	03f66e6f7r			; 0.901962
	DD	03e253759r			; 0.161344
	DD	03f7b86bbr			; 0.982525
	DD	03dbe1302r			; 0.0928097
	DD	0bd9392a0r			; -0.072057
	DD	03ef3f412r			; 0.476471
	DD	03e088d64r			; 0.133352
	DD	03f2bd0bar			; 0.671154
	DD	03f66e6f7r			; 0.901962
	DD	0be96c077r			; -0.294437
	DD	03f644ffar			; 0.891845
	DD	03eafd12fr			; 0.343393
	DD	0be5e26aer			; -0.216944
	DD	03eded6a5r			; 0.435231
	DD	03dee089fr			; 0.116227
	DD	03f140a06r			; 0.578278
	DD	03f560fe9r			; 0.83618
	DD	0be96c078r			; -0.294437
	DD	03f644ffbr			; 0.891845
	DD	03eafd130r			; 0.343393
	DD	0be0be9b0r			; -0.136634
	DD	03ed17a63r			; 0.409137
	DD	03e8176e5r			; 0.25286
	DD	03f2bd0bar			; 0.671154
	DD	03f4e18far			; 0.805069
	DD	0be96c077r			; -0.294437
	DD	03f644ff9r			; 0.891845
	DD	03eafd12er			; 0.343393
	DD	03d9392a0r			; 0.072057
	DD	03ef3f412r			; 0.476471
	DD	03e088d64r			; 0.133352
	DD	03f542f46r			; 0.828846
	DD	03f66e6f7r			; 0.901962
	DD	000000000r			; 0
	DD	03f6e1b16r			; 0.930101
	DD	03ebc0f5br			; 0.367305
	DD	0bd9392a0r			; -0.072057
	DD	03ef3f412r			; 0.476471
	DD	03e088d64r			; 0.133352
	DD	03f2bd0bar			; 0.671154
	DD	03f66e6f7r			; 0.901962
	DD	000000000r			; 0
	DD	03f6e1b16r			; 0.930101
	DD	03ebc0f5br			; 0.367305
	DD	000000000r			; 0
	DD	03ed9c444r			; 0.425326
	DD	03e86964ar			; 0.262865
	DD	03f400000r			; 0.75
	DD	03f52e407r			; 0.823792
	DD	000000000r			; 0
	DD	03f6e1b14r			; 0.930101
	DD	03ebc0f5ar			; 0.367305
	DD	03e5e26aer			; 0.216944
	DD	03eded6a5r			; 0.435231
	DD	03dee089fr			; 0.116227
	DD	03f6bf5far			; 0.921722
	DD	03f560fe9r			; 0.83618
	DD	03e96c078r			; 0.294437
	DD	03f644ffbr			; 0.891845
	DD	03eafd130r			; 0.343393
	DD	03d9392a0r			; 0.072057
	DD	03ef3f412r			; 0.476471
	DD	03e088d64r			; 0.133352
	DD	03f542f46r			; 0.828846
	DD	03f66e6f7r			; 0.901962
	DD	03e96c077r			; 0.294437
	DD	03f644ffar			; 0.891845
	DD	03eafd12fr			; 0.343393
	DD	03e0be9b0r			; 0.136634
	DD	03ed17a63r			; 0.409137
	DD	03e8176e5r			; 0.25286
	DD	03f542f46r			; 0.828846
	DD	03f4e18far			; 0.805069
	DD	03e96c077r			; 0.294437
	DD	03f644ff9r			; 0.891845
	DD	03eafd12er			; 0.343393
	DD	0bedcd7d6r			; -0.431334
	DD	03e65fbb1r			; 0.224593
	DD	0bdee089er			; -0.116227
	DD	03eea8d45r			; 0.458109
	DD	03f25f610r			; 0.648286
	DD	0bf691554r			; -0.910482
	DD	03e977780r			; 0.295834
	DD	0be93f454r			; -0.288973
	DD	0bed9c441r			; -0.425325
	DD	03e0d8379r			; 0.138197
	DD	0be64f921r			; -0.223607
	DD	03ed88efcr			; 0.422966
	DD	03f16d1d6r			; 0.589139
	DD	0bf691553r			; -0.910482
	DD	03e977780r			; 0.295834
	DD	0be93f454r			; -0.288973
	DD	0bef64193r			; -0.480969
	DD	03d931d00r			; 0.0718327
	DD	0bdee089fr			; -0.116227
	DD	03eecadc5r			; 0.462263
	DD	03f0bbf5fr			; 0.545889
	DD	0bf691553r			; -0.910482
	DD	03e97777fr			; 0.295834
	DD	0be93f453r			; -0.288973
	DD	0bef36a00r			; -0.475418
	DD	03e1e2e1dr			; 0.154473
	DD	03c305013r			; 0.0107613
	DD	03f00ec0er			; 0.503602
	DD	03f199809r			; 0.599976
	DD	0bf7c29c6r			; -0.985012
	DD	03e24ea8cr			; 0.161051
	DD	0bd7ced4cr			; -0.0617497
	DD	0bef64193r			; -0.480969
	DD	03d931d00r			; 0.0718327
	DD	0bdee089fr			; -0.116227
	DD	03eecadc5r			; 0.462263
	DD	03f0bbf5fr			; 0.545889
	DD	0bf7c29c6r			; -0.985012
	DD	03e24ea8cr			; 0.161051
	DD	0bd7ced4dr			; -0.0617497
	DD	0bf000000r			; -0.5
	DD	000000000r			; 0
	DD	000000000r			; 0
	DD	03f000000r			; 0.5
	DD	03f000000r			; 0.5
	DD	0bf7c29c7r			; -0.985012
	DD	03e24ea8dr			; 0.161051
	DD	0bd7ced4dr			; -0.0617497
	DD	0becf1bbar			; -0.404508
	DD	03e96791br			; 0.293893
	DD	000000000r			; 0
	DD	03f000000r			; 0.5
	DD	03f333334r			; 0.7
	DD	0bf643cf3r			; -0.891555
	DD	03ee5b9cfr			; 0.448683
	DD	0bd7ced04r			; -0.0617495
	DD	0bedcd7d6r			; -0.431334
	DD	03e65fbb1r			; 0.224593
	DD	0bdee089er			; -0.116227
	DD	03eea8d45r			; 0.458109
	DD	03f25f610r			; 0.648286
	DD	0bf643cf4r			; -0.891555
	DD	03ee5b9d0r			; 0.448683
	DD	0bd7ced06r			; -0.0617495
	DD	0bef36a00r			; -0.475418
	DD	03e1e2e1dr			; 0.154473
	DD	03c305013r			; 0.0107613
	DD	03f00ec0er			; 0.503602
	DD	03f199809r			; 0.599976
	DD	0bf643cf2r			; -0.891555
	DD	03ee5b9cer			; 0.448683
	DD	0bd7ced04r			; -0.0617495
	DD	0bef36a02r			; -0.475418
	DD	03da1315dr			; 0.0787074
	DD	03e088d65r			; 0.133352
	DD	03f0b245cr			; 0.543524
	DD	03f0ce182r			; 0.550316
	DD	0bf7c29c7r			; -0.985012
	DD	03c8991c8r			; 0.0167931
	DD	03e2fc89fr			; 0.171664
	DD	0bf000000r			; -0.5
	DD	000000000r			; 0
	DD	000000000r			; 0
	DD	03f000000r			; 0.5
	DD	03f000000r			; 0.5
	DD	0bf7c29c7r			; -0.985012
	DD	03c8991c8r			; 0.0167931
	DD	03e2fc89fr			; 0.171664
	DD	0bef64193r			; -0.480969
	DD	0bd931d00r			; -0.0718327
	DD	03dee089fr			; 0.116227
	DD	03f09a91dr			; 0.537737
	DD	03ee88141r			; 0.454111
	DD	0bf7c29c7r			; -0.985012
	DD	03c8991c7r			; 0.0167931
	DD	03e2fc89dr			; 0.171664
	DD	0bedc9ce3r			; -0.430884
	DD	03e5cf24fr			; 0.215768
	DD	03e088d65r			; 0.133352
	DD	03f0c3a85r			; 0.547768
	DD	03f245bf7r			; 0.642028
	DD	0bf6f25edr			; -0.934172
	DD	03e9b686ar			; 0.303531
	DD	03e40183fr			; 0.187592
	DD	0bef36a00r			; -0.475418
	DD	03e1e2e1dr			; 0.154473
	DD	03c305013r			; 0.0107613
	DD	03f00ec0er			; 0.503602
	DD	03f199809r			; 0.599976
	DD	0bf6f25ecr			; -0.934172
	DD	03e9b686ar			; 0.303531
	DD	03e40183fr			; 0.187592
	DD	0bef36a02r			; -0.475418
	DD	03da1315dr			; 0.0787074
	DD	03e088d65r			; 0.133352
	DD	03f0b245cr			; 0.543524
	DD	03f0ce182r			; 0.550316
	DD	0bf6f25ecr			; -0.934172
	DD	03e9b686ar			; 0.303531
	DD	03e40183fr			; 0.187592
	DD	0beb19b92r			; -0.34689
	DD	03eae8001r			; 0.34082
	DD	03dee089er			; 0.116227
	DD	03f0d2c23r			; 0.551455
	DD	03f3d1d9fr			; 0.738733
	DD	0bf4e8804r			; -0.806763
	DD	03f10bd5er			; 0.56539
	DD	03e2fc887r			; 0.171663
	DD	0becf1bbar			; -0.404508
	DD	03e96791br			; 0.293893
	DD	000000000r			; 0
	DD	03f000000r			; 0.5
	DD	03f333334r			; 0.7
	DD	0bf4e8803r			; -0.806763
	DD	03f10bd5dr			; 0.565389
	DD	03e2fc885r			; 0.171663
	DD	0bedc9ce3r			; -0.430884
	DD	03e5cf24fr			; 0.215768
	DD	03e088d65r			; 0.133352
	DD	03f0c3a85r			; 0.547768
	DD	03f245bf7r			; 0.642028
	DD	0bf4e8803r			; -0.806763
	DD	03f10bd5er			; 0.56539
	DD	03e2fc885r			; 0.171663
	DD	0bedcd7dcr			; -0.431334
	DD	0bb667124r			; -0.00351627
	DD	03e8176e5r			; 0.25286
	DD	03f159a83r			; 0.584389
	DD	03efeda97r			; 0.497761
	DD	0bf691554r			; -0.910482
	DD	0be0131aar			; -0.126166
	DD	03ec9a49dr			; 0.393834
	DD	0bef64193r			; -0.480969
	DD	0bd931d00r			; -0.0718327
	DD	03dee089fr			; 0.116227
	DD	03f09a91dr			; 0.537737
	DD	03ee88141r			; 0.454111
	DD	0bf691555r			; -0.910482
	DD	0be0131aar			; -0.126166
	DD	03ec9a49fr			; 0.393834
	DD	0bed9c441r			; -0.425325
	DD	0be0d8379r			; -0.138197
	DD	03e64f921r			; 0.223607
	DD	03f13b882r			; 0.577034
	DD	03ed25c53r			; 0.410861
	DD	0bf691553r			; -0.910482
	DD	0be0131aar			; -0.126166
	DD	03ec9a49er			; 0.393834
	DD	0becf1bc1r			; -0.404509
	DD	03e06964br			; 0.131433
	DD	03e86964br			; 0.262865
	DD	03f177aa1r			; 0.591715
	DD	03f15acc5r			; 0.584668
	DD	0bf643cf8r			; -0.891555
	DD	03e14eaa4r			; 0.145426
	DD	03edb9c9cr			; 0.428929
	DD	0bef36a02r			; -0.475418
	DD	03da1315dr			; 0.0787074
	DD	03e088d65r			; 0.133352
	DD	03f0b245cr			; 0.543524
	DD	03f0ce182r			; 0.550316
	DD	0bf643cfar			; -0.891555
	DD	03e14eaa5r			; 0.145426
	DD	03edb9c9dr			; 0.428929
	DD	0bedcd7dcr			; -0.431334
	DD	0bb667124r			; -0.00351627
	DD	03e8176e5r			; 0.25286
	DD	03f159a83r			; 0.584389
	DD	03efeda97r			; 0.497761
	DD	0bf643cf9r			; -0.891555
	DD	03e14eaa5r			; 0.145426
	DD	03edb9c9er			; 0.428929
	DD	0beb19b96r			; -0.34689
	DD	03e8343c9r			; 0.256377
	DD	03e8176e5r			; 0.25286
	DD	03f19a9e9r			; 0.600249
	DD	03f2bdf31r			; 0.671374
	DD	0bf4e8807r			; -0.806763
	DD	03ed01264r			; 0.40639
	DD	03edb9c9br			; 0.428929
	DD	0bedc9ce3r			; -0.430884
	DD	03e5cf24fr			; 0.215768
	DD	03e088d65r			; 0.133352
	DD	03f0c3a85r			; 0.547768
	DD	03f245bf7r			; 0.642028
	DD	0bf4e8807r			; -0.806763
	DD	03ed01264r			; 0.40639
	DD	03edb9c9cr			; 0.428929
	DD	0becf1bc1r			; -0.404509
	DD	03e06964br			; 0.131433
	DD	03e86964br			; 0.262865
	DD	03f177aa1r			; 0.591715
	DD	03f15acc5r			; 0.584668
	DD	0bf4e8806r			; -0.806763
	DD	03ed01262r			; 0.40639
	DD	03edb9c9ar			; 0.428929
	DD	0be869652r			; -0.262866
	DD	03eb93e4er			; 0.361803
	DD	03e64f923r			; 0.223607
	DD	03f1cb813r			; 0.612184
	DD	03f41eca5r			; 0.757517
	DD	0bf299576r			; -0.662437
	DD	03f232203r			; 0.637238
	DD	03ec9a4a6r			; 0.393834
	DD	0beb19b92r			; -0.34689
	DD	03eae8001r			; 0.34082
	DD	03dee089er			; 0.116227
	DD	03f0d2c23r			; 0.551455
	DD	03f3d1d9fr			; 0.738733
	DD	0bf299576r			; -0.662437
	DD	03f232202r			; 0.637238
	DD	03ec9a4a5r			; 0.393834
	DD	0beb19b96r			; -0.34689
	DD	03e8343c9r			; 0.256377
	DD	03e8176e5r			; 0.25286
	DD	03f19a9e9r			; 0.600249
	DD	03f2bdf31r			; 0.671374
	DD	0bf299575r			; -0.662437
	DD	03f232203r			; 0.637238
	DD	03ec9a4a5r			; 0.393834
	DD	0bedcd7d6r			; -0.431334
	DD	03e65fbb1r			; 0.224593
	DD	0bdee089er			; -0.116227
	DD	03eea8d45r			; 0.458109
	DD	03f25f610r			; 0.648286
	DD	0bf706e2dr			; -0.939181
	DD	03e9c3dc0r			; 0.305159
	DD	0be215086r			; -0.157534
	DD	0bef64193r			; -0.480969
	DD	03d931d00r			; 0.0718327
	DD	0bdee089fr			; -0.116227
	DD	03eecadc5r			; 0.462263
	DD	03f0bbf5fr			; 0.545889
	DD	0bf706e2fr			; -0.939181
	DD	03e9c3dc1r			; 0.305159
	DD	0be215087r			; -0.157534
	DD	0bef36a00r			; -0.475418
	DD	03e1e2e1dr			; 0.154473
	DD	03c305013r			; 0.0107613
	DD	03f00ec0er			; 0.503602
	DD	03f199809r			; 0.599976
	DD	0bf706e2er			; -0.939181
	DD	03e9c3dbfr			; 0.305159
	DD	0be215086r			; -0.157534
	DD	0bef36a00r			; -0.475418
	DD	03e1e2e1dr			; 0.154473
	DD	03c305013r			; 0.0107613
	DD	03f00ec0er			; 0.503602
	DD	03f199809r			; 0.599976
	DD	0bf7bfab9r			; -0.984294
	DD	03e19c604r			; 0.150169
	DD	03dbe12f0r			; 0.0928096
	DD	0bf000000r			; -0.5
	DD	000000000r			; 0
	DD	000000000r			; 0
	DD	03f000000r			; 0.5
	DD	03f000000r			; 0.5
	DD	0bf7bfab7r			; -0.984294
	DD	03e19c604r			; 0.150169
	DD	03dbe12efr			; 0.0928096
	DD	0bef36a02r			; -0.475418
	DD	03da1315dr			; 0.0787074
	DD	03e088d65r			; 0.133352
	DD	03f0b245cr			; 0.543524
	DD	03f0ce182r			; 0.550316
	DD	0bf7bfab9r			; -0.984294
	DD	03e19c605r			; 0.150169
	DD	03dbe12f1r			; 0.0928096
	DD	0becf1bbar			; -0.404508
	DD	03e96791br			; 0.293893
	DD	000000000r			; 0
	DD	03f000000r			; 0.5
	DD	03f333334r			; 0.7
	DD	0bf6273b7r			; -0.884578
	DD	03eea045cr			; 0.457065
	DD	03dbe12efr			; 0.0928096
	DD	0bef36a00r			; -0.475418
	DD	03e1e2e1dr			; 0.154473
	DD	03c305013r			; 0.0107613
	DD	03f00ec0er			; 0.503602
	DD	03f199809r			; 0.599976
	DD	0bf6273b6r			; -0.884578
	DD	03eea045br			; 0.457064
	DD	03dbe12eer			; 0.0928095
	DD	0bedc9ce3r			; -0.430884
	DD	03e5cf24fr			; 0.215768
	DD	03e088d65r			; 0.133352
	DD	03f0c3a85r			; 0.547768
	DD	03f245bf7r			; 0.642028
	DD	0bf6273b5r			; -0.884578
	DD	03eea045ar			; 0.457064
	DD	03dbe12edr			; 0.0928095
	DD	0bef36a02r			; -0.475418
	DD	03da1315dr			; 0.0787074
	DD	03e088d65r			; 0.133352
	DD	03f0b245cr			; 0.543524
	DD	03f0ce182r			; 0.550316
	DD	0bf706e32r			; -0.939181
	DD	0bb9136dar			; -0.00443159
	DD	03eafd12br			; 0.343393
	DD	0bef64193r			; -0.480969
	DD	0bd931d00r			; -0.0718327
	DD	03dee089fr			; 0.116227
	DD	03f09a91dr			; 0.537737
	DD	03ee88141r			; 0.454111
	DD	0bf706e31r			; -0.939181
	DD	0bb9136d9r			; -0.00443159
	DD	03eafd129r			; 0.343393
	DD	0bedcd7dcr			; -0.431334
	DD	0bb667124r			; -0.00351627
	DD	03e8176e5r			; 0.25286
	DD	03f159a83r			; 0.584389
	DD	03efeda97r			; 0.497761
	DD	0bf706e31r			; -0.939181
	DD	0bb9136d9r			; -0.00443159
	DD	03eafd12ar			; 0.343393
	DD	0bedc9ce3r			; -0.430884
	DD	03e5cf24fr			; 0.215768
	DD	03e088d65r			; 0.133352
	DD	03f0c3a85r			; 0.547768
	DD	03f245bf7r			; 0.642028
	DD	0bf6273bbr			; -0.884578
	DD	03e932851r			; 0.287417
	DD	03ebc0f58r			; 0.367305
	DD	0bef36a02r			; -0.475418
	DD	03da1315dr			; 0.0787074
	DD	03e088d65r			; 0.133352
	DD	03f0b245cr			; 0.543524
	DD	03f0ce182r			; 0.550316
	DD	0bf6273b9r			; -0.884578
	DD	03e93284fr			; 0.287417
	DD	03ebc0f57r			; 0.367305
	DD	0becf1bc1r			; -0.404509
	DD	03e06964br			; 0.131433
	DD	03e86964br			; 0.262865
	DD	03f177aa1r			; 0.591715
	DD	03f15acc5r			; 0.584668
	DD	0bf6273b9r			; -0.884578
	DD	03e93284fr			; 0.287417
	DD	03ebc0f57r			; 0.367305
	DD	0beb19b92r			; -0.34689
	DD	03eae8001r			; 0.34082
	DD	03dee089er			; 0.116227
	DD	03f0d2c23r			; 0.551455
	DD	03f3d1d9fr			; 0.738733
	DD	0bf41d876r			; -0.757209
	DD	03f0e3d3cr			; 0.555622
	DD	03eafd130r			; 0.343393
	DD	0bedc9ce3r			; -0.430884
	DD	03e5cf24fr			; 0.215768
	DD	03e088d65r			; 0.133352
	DD	03f0c3a85r			; 0.547768
	DD	03f245bf7r			; 0.642028
	DD	0bf41d875r			; -0.757209
	DD	03f0e3d3cr			; 0.555622
	DD	03eafd130r			; 0.343393
	DD	0beb19b96r			; -0.34689
	DD	03e8343c9r			; 0.256377
	DD	03e8176e5r			; 0.25286
	DD	03f19a9e9r			; 0.600249
	DD	03f2bdf31r			; 0.671374
	DD	0bf41d875r			; -0.757209
	DD	03f0e3d3br			; 0.555622
	DD	03eafd12fr			; 0.343393
	DD	0beb19b92r			; -0.34689
	DD	0beae8001r			; -0.34082
	DD	0bdee089er			; -0.116227
	DD	03ee5a7bar			; 0.448545
	DD	03e85c4c1r			; 0.261267
	DD	0bf100daar			; -0.562708
	DD	0bf4645c1r			; -0.774502
	DD	0be93f461r			; -0.288974
	DD	0be869652r			; -0.262866
	DD	0beb93e4er			; -0.361803
	DD	0be64f923r			; -0.223607
	DD	03ec68fdar			; 0.387816
	DD	03e784d6dr			; 0.242483
	DD	0bf100dabr			; -0.562709
	DD	0bf4645c3r			; -0.774502
	DD	0be93f461r			; -0.288974
	DD	0be5e26aer			; -0.216944
	DD	0beded6a5r			; -0.435231
	DD	0bdee089fr			; -0.116227
	DD	03ed7ebf4r			; 0.421722
	DD	03e27c05ar			; 0.16382
	DD	0bf100da9r			; -0.562708
	DD	0bf4645c1r			; -0.774502
	DD	0be93f460r			; -0.288974
	DD	0be96702ar			; -0.293824
	DD	0becf0f76r			; -0.404415
	DD	03c305011r			; 0.0107613
	DD	03f017dd7r			; 0.505826
	DD	03e4ce764r			; 0.200101
	DD	0beea4490r			; -0.457554
	DD	0bf6314bbr			; -0.887035
	DD	0bd7cece5r			; -0.0617494
	DD	0be5e26aer			; -0.216944
	DD	0beded6a5r			; -0.435231
	DD	0bdee089fr			; -0.116227
	DD	03ed7ebf4r			; 0.421722
	DD	03e27c05ar			; 0.16382
	DD	0beea448er			; -0.457554
	DD	0bf6314b9r			; -0.887035
	DD	0bd7cece4r			; -0.0617494
	DD	0be1e3779r			; -0.154508
	DD	0bef37872r			; -0.475528
	DD	000000000r			; 0
	DD	03f000000r			; 0.5
	DD	03dccccc2r			; 0.0999999
	DD	0beea448fr			; -0.457554
	DD	0bf6314bar			; -0.887035
	DD	0bd7cece4r			; -0.0617494
	DD	0becf1bbar			; -0.404508
	DD	0be96791br			; -0.293893
	DD	000000000r			; 0
	DD	03f000000r			; 0.5
	DD	03e999997r			; 0.3
	DD	0bf33c53er			; -0.702228
	DD	0bf3592a3r			; -0.709269
	DD	0bd7cecd2r			; -0.0617493
	DD	0beb19b92r			; -0.34689
	DD	0beae8001r			; -0.34082
	DD	0bdee089er			; -0.116227
	DD	03ee5a7bar			; 0.448545
	DD	03e85c4c1r			; 0.261267
	DD	0bf33c53er			; -0.702228
	DD	0bf3592a4r			; -0.709269
	DD	0bd7cecd3r			; -0.0617493
	DD	0be96702ar			; -0.293824
	DD	0becf0f76r			; -0.404415
	DD	03c305011r			; 0.0107613
	DD	03f017dd7r			; 0.505826
	DD	03e4ce764r			; 0.200101
	DD	0bf33c53fr			; -0.702228
	DD	0bf3592a5r			; -0.709269
	DD	0bd7cecd3r			; -0.0617493
	DD	0be631705r			; -0.221768
	DD	0bedb0c39r			; -0.427828
	DD	03e088d63r			; 0.133352
	DD	03f160edar			; 0.586164
	DD	03e314f66r			; 0.173154
	DD	0bea405e1r			; -0.320357
	DD	0bf6e7e30r			; -0.931613
	DD	03e2fc88fr			; 0.171664
	DD	0be1e3779r			; -0.154508
	DD	0bef37872r			; -0.475528
	DD	000000000r			; 0
	DD	03f000000r			; 0.5
	DD	03dccccc2r			; 0.0999999
	DD	0bea405e2r			; -0.320357
	DD	0bf6e7e31r			; -0.931613
	DD	03e2fc890r			; 0.171664
	DD	0bda479fdr			; -0.0803108
	DD	0bef59195r			; -0.479626
	DD	03dee089er			; 0.116227
	DD	03f275d4fr			; 0.653768
	DD	03dbabcb2r			; 0.0911802
	DD	0bea405e3r			; -0.320357
	DD	0bf6e7e32r			; -0.931613
	DD	03e2fc891r			; 0.171664
	DD	0bead3d48r			; -0.338358
	DD	0beafad5er			; -0.34312
	DD	03e088d63r			; 0.133352
	DD	03f0f4bccr			; 0.55975
	DD	03e84bdc6r			; 0.25926
	DD	0bf13cd3ar			; -0.57735
	DD	0bf4b6e7cr			; -0.794655
	DD	03e401830r			; 0.187592
	DD	0be96702ar			; -0.293824
	DD	0becf0f76r			; -0.404415
	DD	03c305011r			; 0.0107613
	DD	03f017dd7r			; 0.505826
	DD	03e4ce764r			; 0.200101
	DD	0bf13cd3ar			; -0.57735
	DD	0bf4b6e7cr			; -0.794655
	DD	03e401830r			; 0.187592
	DD	0be631705r			; -0.221768
	DD	0bedb0c39r			; -0.427828
	DD	03e088d63r			; 0.133352
	DD	03f160edar			; 0.586164
	DD	03e314f66r			; 0.173154
	DD	0bf13cd3br			; -0.57735
	DD	0bf4b6e7br			; -0.794655
	DD	03e401830r			; 0.187592
	DD	0bedcd7d6r			; -0.431334
	DD	0be65fbb1r			; -0.224593
	DD	03dee089er			; 0.116227
	DD	03f0ab95er			; 0.541891
	DD	03eb413dfr			; 0.351714
	DD	0bf497a2fr			; -0.787021
	DD	0bf17b22br			; -0.592562
	DD	03e2fc888r			; 0.171663
	DD	0becf1bbar			; -0.404508
	DD	0be96791br			; -0.293893
	DD	000000000r			; 0
	DD	03f000000r			; 0.5
	DD	03e999997r			; 0.3
	DD	0bf497a2er			; -0.787021
	DD	0bf17b22br			; -0.592562
	DD	03e2fc889r			; 0.171663
	DD	0bead3d48r			; -0.338358
	DD	0beafad5er			; -0.34312
	DD	03e088d63r			; 0.133352
	DD	03f0f4bccr			; 0.55975
	DD	03e84bdc6r			; 0.25926
	DD	0bf497a2fr			; -0.787021
	DD	0bf17b22br			; -0.592562
	DD	03e2fc888r			; 0.171663
	DD	0be051077r			; -0.129946
	DD	0bed29738r			; -0.41131
	DD	03e8176e3r			; 0.25286
	DD	03f2ca89dr			; 0.674448
	DD	03e4521bfr			; 0.192512
	DD	0be253c6ar			; -0.161363
	DD	0bf67a7f9r			; -0.904907
	DD	03ec9a4afr			; 0.393835
	DD	0bda479fdr			; -0.0803108
	DD	0bef59195r			; -0.479626
	DD	03dee089er			; 0.116227
	DD	03f275d4fr			; 0.653768
	DD	03dbabcb2r			; 0.0911802
	DD	0be253c69r			; -0.161363
	DD	0bf67a7f7r			; -0.904907
	DD	03ec9a4afr			; 0.393835
	DD	000000000r			; 0
	DD	0bee4f931r			; -0.447214
	DD	03e64f91fr			; 0.223607
	DD	03f400000r			; 0.75
	DD	03e17201er			; 0.147583
	DD	0be253c69r			; -0.161363
	DD	0bf67a7f8r			; -0.904907
	DD	03ec9a4afr			; 0.393835
	DD	0be7fffffr			; -0.25
	DD	0beb02d4fr			; -0.344096
	DD	03e869648r			; 0.262865
	DD	03f210598r			; 0.628992
	DD	03e844da7r			; 0.258405
	DD	0bed3df82r			; -0.413815
	DD	0bf4d901er			; -0.80298
	DD	03edb9c9ar			; 0.428929
	DD	0be631705r			; -0.221768
	DD	0bedb0c39r			; -0.427828
	DD	03e088d63r			; 0.133352
	DD	03f160edar			; 0.586164
	DD	03e314f66r			; 0.173154
	DD	0bed3df81r			; -0.413815
	DD	0bf4d901er			; -0.80298
	DD	03edb9c99r			; 0.428929
	DD	0be051077r			; -0.129946
	DD	0bed29738r			; -0.41131
	DD	03e8176e3r			; 0.25286
	DD	03f2ca89dr			; 0.674448
	DD	03e4521bfr			; 0.192512
	DD	0bed3df81r			; -0.413815
	DD	0bf4d901dr			; -0.80298
	DD	03edb9c99r			; 0.428929
	DD	0beb3b959r			; -0.351023
	DD	0be805a1fr			; -0.250688
	DD	03e8176e4r			; 0.25286
	DD	03f196f36r			; 0.599353
	DD	03eaa6864r			; 0.332828
	DD	0bf22c406r			; -0.635804
	DD	0bf24462fr			; -0.641696
	DD	03edb9c93r			; 0.428929
	DD	0bead3d48r			; -0.338358
	DD	0beafad5er			; -0.34312
	DD	03e088d63r			; 0.133352
	DD	03f0f4bccr			; 0.55975
	DD	03e84bdc6r			; 0.25926
	DD	0bf22c407r			; -0.635804
	DD	0bf24462fr			; -0.641696
	DD	03edb9c93r			; 0.428929
	DD	0be7fffffr			; -0.25
	DD	0beb02d4fr			; -0.344096
	DD	03e869648r			; 0.262865
	DD	03f210598r			; 0.628992
	DD	03e844da7r			; 0.258405
	DD	0bf22c406r			; -0.635804
	DD	0bf244630r			; -0.641696
	DD	03edb9c93r			; 0.428929
	DD	0bed9c441r			; -0.425325
	DD	0be0d8379r			; -0.138197
	DD	03e64f921r			; 0.223607
	DD	03f13b882r			; 0.577034
	DD	03ed25c53r			; 0.410861
	DD	0bf4f8d87r			; -0.810753
	DD	0beddbf02r			; -0.433098
	DD	03ec9a49er			; 0.393834
	DD	0bedcd7d6r			; -0.431334
	DD	0be65fbb1r			; -0.224593
	DD	03dee089er			; 0.116227
	DD	03f0ab95er			; 0.541891
	DD	03eb413dfr			; 0.351714
	DD	0bf4f8d87r			; -0.810753
	DD	0beddbf02r			; -0.433098
	DD	03ec9a49er			; 0.393834
	DD	0beb3b959r			; -0.351023
	DD	0be805a1fr			; -0.250688
	DD	03e8176e4r			; 0.25286
	DD	03f196f36r			; 0.599353
	DD	03eaa6864r			; 0.332828
	DD	0bf4f8d87r			; -0.810753
	DD	0beddbf02r			; -0.433098
	DD	03ec9a49fr			; 0.393834
	DD	0beb19b92r			; -0.34689
	DD	0beae8001r			; -0.34082
	DD	0bdee089er			; -0.116227
	DD	03ee5a7bar			; 0.448545
	DD	03e85c4c1r			; 0.261267
	DD	0bf14981cr			; -0.580446
	DD	0bf4c85b7r			; -0.798915
	DD	0be215064r			; -0.157533
	DD	0be5e26aer			; -0.216944
	DD	0beded6a5r			; -0.435231
	DD	0bdee089fr			; -0.116227
	DD	03ed7ebf4r			; 0.421722
	DD	03e27c05ar			; 0.16382
	DD	0bf14981cr			; -0.580446
	DD	0bf4c85b7r			; -0.798915
	DD	0be215064r			; -0.157533
	DD	0be96702ar			; -0.293824
	DD	0becf0f76r			; -0.404415
	DD	03c305011r			; 0.0107613
	DD	03f017dd7r			; 0.505826
	DD	03e4ce764r			; 0.200101
	DD	0bf14981cr			; -0.580446
	DD	0bf4c85b6r			; -0.798915
	DD	0be215064r			; -0.157533
	DD	0be96702ar			; -0.293824
	DD	0becf0f76r			; -0.404415
	DD	03c305011r			; 0.0107613
	DD	03f017dd7r			; 0.505826
	DD	03e4ce764r			; 0.200101
	DD	0bee4db02r			; -0.446983
	DD	0bf63c456r			; -0.889715
	DD	03dbe12edr			; 0.0928095
	DD	0be1e3779r			; -0.154508
	DD	0bef37872r			; -0.475528
	DD	000000000r			; 0
	DD	03f000000r			; 0.5
	DD	03dccccc2r			; 0.0999999
	DD	0bee4db03r			; -0.446983
	DD	0bf63c457r			; -0.889715
	DD	03dbe12efr			; 0.0928096
	DD	0be631705r			; -0.221768
	DD	0bedb0c39r			; -0.427828
	DD	03e088d63r			; 0.133352
	DD	03f160edar			; 0.586164
	DD	03e314f66r			; 0.173154
	DD	0bee4db03r			; -0.446983
	DD	0bf63c457r			; -0.889715
	DD	03dbe12eer			; 0.0928095
	DD	0becf1bbar			; -0.404508
	DD	0be96791br			; -0.293893
	DD	000000000r			; 0
	DD	03f000000r			; 0.5
	DD	03e999997r			; 0.3
	DD	0bf354258r			; -0.708044
	DD	0bf33360br			; -0.700043
	DD	03dbe12efr			; 0.0928096
	DD	0be96702ar			; -0.293824
	DD	0becf0f76r			; -0.404415
	DD	03c305011r			; 0.0107613
	DD	03f017dd7r			; 0.505826
	DD	03e4ce764r			; 0.200101
	DD	0bf354258r			; -0.708044
	DD	0bf33360br			; -0.700043
	DD	03dbe12eer			; 0.0928095
	DD	0bead3d48r			; -0.338358
	DD	0beafad5er			; -0.34312
	DD	03e088d63r			; 0.133352
	DD	03f0f4bccr			; 0.55975
	DD	03e84bdc6r			; 0.25926
	DD	0bf354258r			; -0.708044
	DD	0bf33360br			; -0.700043
	DD	03dbe12eer			; 0.0928095
	DD	0be631705r			; -0.221768
	DD	0bedb0c39r			; -0.427828
	DD	03e088d63r			; 0.133352
	DD	03f160edar			; 0.586164
	DD	03e314f66r			; 0.173154
	DD	0be926fber			; -0.286009
	DD	0bf650373r			; -0.894584
	DD	03eafd132r			; 0.343393
	DD	0bda479fdr			; -0.0803108
	DD	0bef59195r			; -0.479626
	DD	03dee089er			; 0.116227
	DD	03f275d4fr			; 0.653768
	DD	03dbabcb2r			; 0.0911802
	DD	0be926fber			; -0.286009
	DD	0bf650373r			; -0.894584
	DD	03eafd132r			; 0.343393
	DD	0be051077r			; -0.129946
	DD	0bed29738r			; -0.41131
	DD	03e8176e3r			; 0.25286
	DD	03f2ca89dr			; 0.674448
	DD	03e4521bfr			; 0.192512
	DD	0be926fbdr			; -0.286009
	DD	0bf650373r			; -0.894584
	DD	03eafd132r			; 0.343393
	DD	0bead3d48r			; -0.338358
	DD	0beafad5er			; -0.34312
	DD	03e088d63r			; 0.133352
	DD	03f0f4bccr			; 0.55975
	DD	03e84bdc6r			; 0.25926
	DD	0bf0bf47fr			; -0.546699
	DD	0bf40a1b2r			; -0.752467
	DD	03ebc0f55r			; 0.367304
	DD	0be631705r			; -0.221768
	DD	0bedb0c39r			; -0.427828
	DD	03e088d63r			; 0.133352
	DD	03f160edar			; 0.586164
	DD	03e314f66r			; 0.173154
	DD	0bf0bf47fr			; -0.546699
	DD	0bf40a1b2r			; -0.752467
	DD	03ebc0f56r			; 0.367305
	DD	0be7fffffr			; -0.25
	DD	0beb02d4fr			; -0.344096
	DD	03e869648r			; 0.262865
	DD	03f210598r			; 0.628992
	DD	03e844da7r			; 0.258405
	DD	0bf0bf47fr			; -0.546699
	DD	0bf40a1b2r			; -0.752467
	DD	03ebc0f56r			; 0.367305
	DD	0bedcd7d6r			; -0.431334
	DD	0be65fbb1r			; -0.224593
	DD	03dee089er			; 0.116227
	DD	03f0ab95er			; 0.541891
	DD	03eb413dfr			; 0.351714
	DD	0bf432dd7r			; -0.762418
	DD	0bf0c675fr			; -0.548452
	DD	03eafd128r			; 0.343393
	DD	0bead3d48r			; -0.338358
	DD	0beafad5er			; -0.34312
	DD	03e088d63r			; 0.133352
	DD	03f0f4bccr			; 0.55975
	DD	03e84bdc6r			; 0.25926
	DD	0bf432dd8r			; -0.762418
	DD	0bf0c6760r			; -0.548452
	DD	03eafd129r			; 0.343393
	DD	0beb3b959r			; -0.351023
	DD	0be805a1fr			; -0.250688
	DD	03e8176e4r			; 0.25286
	DD	03f196f36r			; 0.599353
	DD	03eaa6864r			; 0.332828
	DD	0bf432dd7r			; -0.762418
	DD	0bf0c675er			; -0.548452
	DD	03eafd128r			; 0.343393
	DD	03e5e26aer			; 0.216944
	DD	0beded6a5r			; -0.435231
	DD	0bdee089fr			; -0.116227
	DD	03da0502fr			; 0.0782779
	DD	03e27c05ar			; 0.16382
	DD	03f100dabr			; 0.562709
	DD	0bf4645c1r			; -0.774502
	DD	0be93f461r			; -0.288974
	DD	03e869652r			; 0.262866
	DD	0beb93e4er			; -0.361803
	DD	0be64f923r			; -0.223607
	DD	03de5c099r			; 0.112184
	DD	03e784d6dr			; 0.242483
	DD	03f100dacr			; 0.562709
	DD	0bf4645c3r			; -0.774502
	DD	0be93f462r			; -0.288974
	DD	03eb19b92r			; 0.34689
	DD	0beae8001r			; -0.34082
	DD	0bdee089er			; -0.116227
	DD	03d52c230r			; 0.0514547
	DD	03e85c4c1r			; 0.261267
	DD	03f100dacr			; 0.562709
	DD	0bf4645c1r			; -0.774502
	DD	0be93f462r			; -0.288974
	DD	03e96702ar			; 0.293824
	DD	0becf0f76r			; -0.404415
	DD	03c305011r			; 0.0107613
	DD	03f7e8229r			; 0.994174
	DD	03e4ce764r			; 0.200101
	DD	03f33c53fr			; 0.702228
	DD	0bf3592a5r			; -0.709269
	DD	0bd7cecd3r			; -0.0617493
	DD	03eb19b92r			; 0.34689
	DD	0beae8001r			; -0.34082
	DD	0bdee089er			; -0.116227
	DD	03f869612r			; 1.05145
	DD	03e85c4c1r			; 0.261267
	DD	03f33c53er			; 0.702228
	DD	0bf3592a4r			; -0.709269
	DD	0bd7cecd3r			; -0.0617493
	DD	03ecf1bbar			; 0.404508
	DD	0be96791br			; -0.293893
	DD	000000000r			; 0
	DD	03f800000r			; 1
	DD	03e999997r			; 0.3
	DD	03f33c53er			; 0.702228
	DD	0bf3592a3r			; -0.709269
	DD	0bd7cecd2r			; -0.0617493
	DD	03e1e3779r			; 0.154508
	DD	0bef37872r			; -0.475528
	DD	000000000r			; 0
	DD	03f800000r			; 1
	DD	03dccccc2r			; 0.0999999
	DD	03eea448er			; 0.457554
	DD	0bf6314bar			; -0.887035
	DD	0bd7cece2r			; -0.0617493
	DD	03e5e26aer			; 0.216944
	DD	0beded6a5r			; -0.435231
	DD	0bdee089fr			; -0.116227
	DD	03f8a0503r			; 1.07828
	DD	03e27c05ar			; 0.16382
	DD	03eea448er			; 0.457554
	DD	0bf6314b9r			; -0.887035
	DD	0bd7cece2r			; -0.0617493
	DD	03e96702ar			; 0.293824
	DD	0becf0f76r			; -0.404415
	DD	03c305011r			; 0.0107613
	DD	03f7e8229r			; 0.994174
	DD	03e4ce764r			; 0.200101
	DD	03eea448fr			; 0.457554
	DD	0bf6314bbr			; -0.887035
	DD	0bd7cece4r			; -0.0617494
	DD	03ead3d48r			; 0.338358
	DD	0beafad5er			; -0.34312
	DD	03e088d63r			; 0.133352
	DD	03f70b434r			; 0.94025
	DD	03e84bdc6r			; 0.25926
	DD	03f497a2fr			; 0.787021
	DD	0bf17b22br			; -0.592562
	DD	03e2fc888r			; 0.171663
	DD	03ecf1bbar			; 0.404508
	DD	0be96791br			; -0.293893
	DD	000000000r			; 0
	DD	03f800000r			; 1
	DD	03e999997r			; 0.3
	DD	03f497a2er			; 0.787021
	DD	0bf17b22br			; -0.592562
	DD	03e2fc889r			; 0.171663
	DD	03edcd7d6r			; 0.431334
	DD	0be65fbb1r			; -0.224593
	DD	03dee089er			; 0.116227
	DD	03f7546a3r			; 0.958109
	DD	03eb413dfr			; 0.351714
	DD	03f497a2fr			; 0.787021
	DD	0bf17b22br			; -0.592562
	DD	03e2fc888r			; 0.171663
	DD	03e631705r			; 0.221768
	DD	0bedb0c39r			; -0.427828
	DD	03e088d63r			; 0.133352
	DD	03f69f127r			; 0.913836
	DD	03e314f66r			; 0.173154
	DD	03f13cd3br			; 0.57735
	DD	0bf4b6e7br			; -0.794655
	DD	03e401830r			; 0.187592
	DD	03e96702ar			; 0.293824
	DD	0becf0f76r			; -0.404415
	DD	03c305011r			; 0.0107613
	DD	03f7e8229r			; 0.994174
	DD	03e4ce764r			; 0.200101
	DD	03f13cd3ar			; 0.57735
	DD	0bf4b6e7cr			; -0.794655
	DD	03e401830r			; 0.187592
	DD	03ead3d48r			; 0.338358
	DD	0beafad5er			; -0.34312
	DD	03e088d63r			; 0.133352
	DD	03f70b434r			; 0.94025
	DD	03e84bdc6r			; 0.25926
	DD	03f13cd3ar			; 0.57735
	DD	0bf4b6e7cr			; -0.794655
	DD	03e401830r			; 0.187592
	DD	03da479fdr			; 0.0803108
	DD	0bef59195r			; -0.479626
	DD	03dee089er			; 0.116227
	DD	03f58a2b1r			; 0.846232
	DD	03dbabcb2r			; 0.0911802
	DD	03ea405e3r			; 0.320357
	DD	0bf6e7e32r			; -0.931613
	DD	03e2fc891r			; 0.171664
	DD	03e1e3779r			; 0.154508
	DD	0bef37872r			; -0.475528
	DD	000000000r			; 0
	DD	03f800000r			; 1
	DD	03dccccc2r			; 0.0999999
	DD	03ea405e2r			; 0.320357
	DD	0bf6e7e31r			; -0.931613
	DD	03e2fc890r			; 0.171664
	DD	03e631705r			; 0.221768
	DD	0bedb0c39r			; -0.427828
	DD	03e088d63r			; 0.133352
	DD	03f69f127r			; 0.913836
	DD	03e314f66r			; 0.173154
	DD	03ea405e1r			; 0.320357
	DD	0bf6e7e30r			; -0.931613
	DD	03e2fc88fr			; 0.171664
	DD	03eb3b959r			; 0.351023
	DD	0be805a1fr			; -0.250688
	DD	03e8176e4r			; 0.25286
	DD	03f6690car			; 0.900647
	DD	03eaa6864r			; 0.332828
	DD	03f4f8d87r			; 0.810753
	DD	0beddbf03r			; -0.433098
	DD	03ec9a49fr			; 0.393834
	DD	03edcd7d6r			; 0.431334
	DD	0be65fbb1r			; -0.224593
	DD	03dee089er			; 0.116227
	DD	03f7546a3r			; 0.958109
	DD	03eb413dfr			; 0.351714
	DD	03f4f8d87r			; 0.810753
	DD	0beddbf03r			; -0.433098
	DD	03ec9a49er			; 0.393834
	DD	03ed9c441r			; 0.425325
	DD	0be0d8379r			; -0.138197
	DD	03e64f921r			; 0.223607
	DD	03f6c477er			; 0.922966
	DD	03ed25c53r			; 0.410861
	DD	03f4f8d87r			; 0.810753
	DD	0beddbf03r			; -0.433098
	DD	03ec9a49er			; 0.393834
	DD	03e7fffffr			; 0.25
	DD	0beb02d4fr			; -0.344096
	DD	03e869648r			; 0.262865
	DD	03f5efa68r			; 0.871008
	DD	03e844da7r			; 0.258405
	DD	03f22c406r			; 0.635804
	DD	0bf244630r			; -0.641696
	DD	03edb9c94r			; 0.428929
	DD	03ead3d48r			; 0.338358
	DD	0beafad5er			; -0.34312
	DD	03e088d63r			; 0.133352
	DD	03f70b434r			; 0.94025
	DD	03e84bdc6r			; 0.25926
	DD	03f22c407r			; 0.635804
	DD	0bf24462fr			; -0.641696
	DD	03edb9c95r			; 0.428929
	DD	03eb3b959r			; 0.351023
	DD	0be805a1fr			; -0.250688
	DD	03e8176e4r			; 0.25286
	DD	03f6690car			; 0.900647
	DD	03eaa6864r			; 0.332828
	DD	03f22c406r			; 0.635804
	DD	0bf24462fr			; -0.641696
	DD	03edb9c94r			; 0.428929
	DD	03e051077r			; 0.129946
	DD	0bed29738r			; -0.41131
	DD	03e8176e3r			; 0.25286
	DD	03f535763r			; 0.825552
	DD	03e4521bfr			; 0.192512
	DD	03ed3df81r			; 0.413815
	DD	0bf4d901dr			; -0.80298
	DD	03edb9c99r			; 0.428929
	DD	03e631705r			; 0.221768
	DD	0bedb0c39r			; -0.427828
	DD	03e088d63r			; 0.133352
	DD	03f69f127r			; 0.913836
	DD	03e314f66r			; 0.173154
	DD	03ed3df81r			; 0.413815
	DD	0bf4d901er			; -0.80298
	DD	03edb9c99r			; 0.428929
	DD	03e7fffffr			; 0.25
	DD	0beb02d4fr			; -0.344096
	DD	03e869648r			; 0.262865
	DD	03f5efa68r			; 0.871008
	DD	03e844da7r			; 0.258405
	DD	03ed3df82r			; 0.413815
	DD	0bf4d901er			; -0.80298
	DD	03edb9c9ar			; 0.428929
	DD	000000000r			; 0
	DD	0bee4f931r			; -0.447214
	DD	03e64f91fr			; 0.223607
	DD	03f400000r			; 0.75
	DD	03e17201er			; 0.147583
	DD	03e253c69r			; 0.161363
	DD	0bf67a7f8r			; -0.904907
	DD	03ec9a4afr			; 0.393835
	DD	03da479fdr			; 0.0803108
	DD	0bef59195r			; -0.479626
	DD	03dee089er			; 0.116227
	DD	03f58a2b1r			; 0.846232
	DD	03dbabcb2r			; 0.0911802
	DD	03e253c69r			; 0.161363
	DD	0bf67a7f7r			; -0.904907
	DD	03ec9a4afr			; 0.393835
	DD	03e051077r			; 0.129946
	DD	0bed29738r			; -0.41131
	DD	03e8176e3r			; 0.25286
	DD	03f535763r			; 0.825552
	DD	03e4521bfr			; 0.192512
	DD	03e253c6ar			; 0.161363
	DD	0bf67a7f9r			; -0.904907
	DD	03ec9a4afr			; 0.393835
	DD	03e5e26aer			; 0.216944
	DD	0beded6a5r			; -0.435231
	DD	0bdee089fr			; -0.116227
	DD	03f8a0503r			; 1.07828
	DD	03e27c05ar			; 0.16382
	DD	03f14981cr			; 0.580446
	DD	0bf4c85b7r			; -0.798915
	DD	0be215064r			; -0.157533
	DD	03eb19b92r			; 0.34689
	DD	0beae8001r			; -0.34082
	DD	0bdee089er			; -0.116227
	DD	03f869612r			; 1.05145
	DD	03e85c4c1r			; 0.261267
	DD	03f14981cr			; 0.580446
	DD	0bf4c85b7r			; -0.798915
	DD	0be215064r			; -0.157533
	DD	03e96702ar			; 0.293824
	DD	0becf0f76r			; -0.404415
	DD	03c305011r			; 0.0107613
	DD	03f7e8229r			; 0.994174
	DD	03e4ce764r			; 0.200101
	DD	03f14981cr			; 0.580446
	DD	0bf4c85b6r			; -0.798915
	DD	0be215064r			; -0.157533
	DD	03e96702ar			; 0.293824
	DD	0becf0f76r			; -0.404415
	DD	03c305011r			; 0.0107613
	DD	03f7e8229r			; 0.994174
	DD	03e4ce764r			; 0.200101
	DD	03f354258r			; 0.708044
	DD	0bf33360br			; -0.700043
	DD	03dbe12eer			; 0.0928095
	DD	03ecf1bbar			; 0.404508
	DD	0be96791br			; -0.293893
	DD	000000000r			; 0
	DD	03f800000r			; 1
	DD	03e999997r			; 0.3
	DD	03f354258r			; 0.708044
	DD	0bf33360br			; -0.700043
	DD	03dbe12efr			; 0.0928096
	DD	03ead3d48r			; 0.338358
	DD	0beafad5er			; -0.34312
	DD	03e088d63r			; 0.133352
	DD	03f70b434r			; 0.94025
	DD	03e84bdc6r			; 0.25926
	DD	03f354258r			; 0.708044
	DD	0bf33360br			; -0.700043
	DD	03dbe12eer			; 0.0928095
	DD	03e1e3779r			; 0.154508
	DD	0bef37872r			; -0.475528
	DD	000000000r			; 0
	DD	03f800000r			; 1
	DD	03dccccc2r			; 0.0999999
	DD	03ee4db03r			; 0.446983
	DD	0bf63c457r			; -0.889715
	DD	03dbe12efr			; 0.0928096
	DD	03e96702ar			; 0.293824
	DD	0becf0f76r			; -0.404415
	DD	03c305011r			; 0.0107613
	DD	03f7e8229r			; 0.994174
	DD	03e4ce764r			; 0.200101
	DD	03ee4db02r			; 0.446983
	DD	0bf63c456r			; -0.889715
	DD	03dbe12edr			; 0.0928095
	DD	03e631705r			; 0.221768
	DD	0bedb0c39r			; -0.427828
	DD	03e088d63r			; 0.133352
	DD	03f69f127r			; 0.913836
	DD	03e314f66r			; 0.173154
	DD	03ee4db03r			; 0.446983
	DD	0bf63c457r			; -0.889715
	DD	03dbe12eer			; 0.0928095
	DD	03ead3d48r			; 0.338358
	DD	0beafad5er			; -0.34312
	DD	03e088d63r			; 0.133352
	DD	03f70b434r			; 0.94025
	DD	03e84bdc6r			; 0.25926
	DD	03f432dd8r			; 0.762418
	DD	0bf0c6760r			; -0.548452
	DD	03eafd129r			; 0.343393
	DD	03edcd7d6r			; 0.431334
	DD	0be65fbb1r			; -0.224593
	DD	03dee089er			; 0.116227
	DD	03f7546a3r			; 0.958109
	DD	03eb413dfr			; 0.351714
	DD	03f432dd7r			; 0.762418
	DD	0bf0c675fr			; -0.548452
	DD	03eafd128r			; 0.343393
	DD	03eb3b959r			; 0.351023
	DD	0be805a1fr			; -0.250688
	DD	03e8176e4r			; 0.25286
	DD	03f6690car			; 0.900647
	DD	03eaa6864r			; 0.332828
	DD	03f432dd7r			; 0.762418
	DD	0bf0c675er			; -0.548452
	DD	03eafd128r			; 0.343393
	DD	03e631705r			; 0.221768
	DD	0bedb0c39r			; -0.427828
	DD	03e088d63r			; 0.133352
	DD	03f69f127r			; 0.913836
	DD	03e314f66r			; 0.173154
	DD	03f0bf47fr			; 0.546699
	DD	0bf40a1b2r			; -0.752467
	DD	03ebc0f56r			; 0.367305
	DD	03ead3d48r			; 0.338358
	DD	0beafad5er			; -0.34312
	DD	03e088d63r			; 0.133352
	DD	03f70b434r			; 0.94025
	DD	03e84bdc6r			; 0.25926
	DD	03f0bf47fr			; 0.546699
	DD	0bf40a1b2r			; -0.752467
	DD	03ebc0f55r			; 0.367304
	DD	03e7fffffr			; 0.25
	DD	0beb02d4fr			; -0.344096
	DD	03e869648r			; 0.262865
	DD	03f5efa68r			; 0.871008
	DD	03e844da7r			; 0.258405
	DD	03f0bf47fr			; 0.546699
	DD	0bf40a1b2r			; -0.752467
	DD	03ebc0f56r			; 0.367305
	DD	03da479fdr			; 0.0803108
	DD	0bef59195r			; -0.479626
	DD	03dee089er			; 0.116227
	DD	03f58a2b1r			; 0.846232
	DD	03dbabcb2r			; 0.0911802
	DD	03e926fber			; 0.286009
	DD	0bf650373r			; -0.894584
	DD	03eafd132r			; 0.343393
	DD	03e631705r			; 0.221768
	DD	0bedb0c39r			; -0.427828
	DD	03e088d63r			; 0.133352
	DD	03f69f127r			; 0.913836
	DD	03e314f66r			; 0.173154
	DD	03e926fber			; 0.286009
	DD	0bf650373r			; -0.894584
	DD	03eafd132r			; 0.343393
	DD	03e051077r			; 0.129946
	DD	0bed29738r			; -0.41131
	DD	03e8176e3r			; 0.25286
	DD	03f535763r			; 0.825552
	DD	03e4521bfr			; 0.192512
	DD	03e926fbdr			; 0.286009
	DD	0bf650373r			; -0.894584
	DD	03eafd132r			; 0.343393
	DD	03ef64193r			; 0.480969
	DD	03d931d00r			; 0.0718327
	DD	0bdee089fr			; -0.116227
	DD	03d1a91d8r			; 0.0377367
	DD	03f0bbf5fr			; 0.545889
	DD	03f691553r			; 0.910482
	DD	03e97777er			; 0.295834
	DD	0be93f452r			; -0.288973
	DD	03ed9c441r			; 0.425325
	DD	03e0d8379r			; 0.138197
	DD	0be64f921r			; -0.223607
	DD	03d9dc411r			; 0.0770341
	DD	03f16d1d6r			; 0.589139
	DD	03f691553r			; 0.910482
	DD	03e97777fr			; 0.295834
	DD	0be93f453r			; -0.288973
	DD	03edcd7d6r			; 0.431334
	DD	03e65fbb1r			; 0.224593
	DD	0bdee089er			; -0.116227
	DD	03d2b95d6r			; 0.0418909
	DD	03f25f610r			; 0.648286
	DD	03f691554r			; 0.910482
	DD	03e97777fr			; 0.295834
	DD	0be93f453r			; -0.288973
	DD	03ef36a00r			; 0.475418
	DD	03e1e2e1dr			; 0.154473
	DD	03c305013r			; 0.0107613
	DD	03f7f13f2r			; 0.996398
	DD	03f199809r			; 0.599976
	DD	03f643cf2r			; 0.891555
	DD	03ee5b9cer			; 0.448683
	DD	0bd7ced04r			; -0.0617495
	DD	03edcd7d6r			; 0.431334
	DD	03e65fbb1r			; 0.224593
	DD	0bdee089er			; -0.116227
	DD	03f855cafr			; 1.04189
	DD	03f25f610r			; 0.648286
	DD	03f643cf4r			; 0.891555
	DD	03ee5b9d0r			; 0.448683
	DD	0bd7ced06r			; -0.0617495
	DD	03ecf1bbar			; 0.404508
	DD	03e96791br			; 0.293893
	DD	000000000r			; 0
	DD	03f800000r			; 1
	DD	03f333334r			; 0.7
	DD	03f643cf3r			; 0.891555
	DD	03ee5b9cfr			; 0.448683
	DD	0bd7ced04r			; -0.0617495
	DD	03f000000r			; 0.5
	DD	000000000r			; 0
	DD	000000000r			; 0
	DD	03f800000r			; 1
	DD	03f000000r			; 0.5
	DD	03f7c29c7r			; 0.985012
	DD	03e24ea8cr			; 0.161051
	DD	0bd7ced4dr			; -0.0617497
	DD	03ef64193r			; 0.480969
	DD	03d931d00r			; 0.0718327
	DD	0bdee089fr			; -0.116227
	DD	03f84d48fr			; 1.03774
	DD	03f0bbf5fr			; 0.545889
	DD	03f7c29c6r			; 0.985012
	DD	03e24ea8br			; 0.161051
	DD	0bd7ced4dr			; -0.0617497
	DD	03ef36a00r			; 0.475418
	DD	03e1e2e1dr			; 0.154473
	DD	03c305013r			; 0.0107613
	DD	03f7f13f2r			; 0.996398
	DD	03f199809r			; 0.599976
	DD	03f7c29c6r			; 0.985012
	DD	03e24ea8br			; 0.161051
	DD	0bd7ced4cr			; -0.0617497
	DD	03edc9ce3r			; 0.430884
	DD	03e5cf24fr			; 0.215768
	DD	03e088d65r			; 0.133352
	DD	03f73c57br			; 0.952232
	DD	03f245bf7r			; 0.642028
	DD	03f4e8803r			; 0.806763
	DD	03f10bd5er			; 0.56539
	DD	03e2fc885r			; 0.171663
	DD	03ecf1bbar			; 0.404508
	DD	03e96791br			; 0.293893
	DD	000000000r			; 0
	DD	03f800000r			; 1
	DD	03f333334r			; 0.7
	DD	03f4e8803r			; 0.806763
	DD	03f10bd5dr			; 0.565389
	DD	03e2fc885r			; 0.171663
	DD	03eb19b92r			; 0.34689
	DD	03eae8001r			; 0.34082
	DD	03dee089er			; 0.116227
	DD	03f72d3ddr			; 0.948545
	DD	03f3d1d9fr			; 0.738733
	DD	03f4e8804r			; 0.806763
	DD	03f10bd5er			; 0.56539
	DD	03e2fc887r			; 0.171663
	DD	03ef36a03r			; 0.475418
	DD	03da1315fr			; 0.0787074
	DD	03e088d65r			; 0.133352
	DD	03f74dba4r			; 0.956476
	DD	03f0ce183r			; 0.550316
	DD	03f6f25ebr			; 0.934172
	DD	03e9b6870r			; 0.303531
	DD	03e401836r			; 0.187592
	DD	03ef36a00r			; 0.475418
	DD	03e1e2e1dr			; 0.154473
	DD	03c305013r			; 0.0107613
	DD	03f7f13f2r			; 0.996398
	DD	03f199809r			; 0.599976
	DD	03f6f25ebr			; 0.934172
	DD	03e9b6870r			; 0.303531
	DD	03e401836r			; 0.187592
	DD	03edc9ce3r			; 0.430884
	DD	03e5cf24fr			; 0.215768
	DD	03e088d65r			; 0.133352
	DD	03f73c57br			; 0.952232
	DD	03f245bf7r			; 0.642028
	DD	03f6f25ecr			; 0.934172
	DD	03e9b6870r			; 0.303531
	DD	03e401836r			; 0.187592
	DD	03ef64193r			; 0.480969
	DD	0bd931d00r			; -0.0718327
	DD	03dee089fr			; 0.116227
	DD	03f7656e3r			; 0.962263
	DD	03ee88141r			; 0.454111
	DD	03f7c29c8r			; 0.985013
	DD	03c899164r			; 0.016793
	DD	03e2fc897r			; 0.171664
	DD	03f000000r			; 0.5
	DD	000000000r			; 0
	DD	000000000r			; 0
	DD	03f800000r			; 1
	DD	03f000000r			; 0.5
	DD	03f7c29c7r			; 0.985012
	DD	03c899163r			; 0.016793
	DD	03e2fc897r			; 0.171664
	DD	03ef36a03r			; 0.475418
	DD	03da1315fr			; 0.0787074
	DD	03e088d65r			; 0.133352
	DD	03f74dba4r			; 0.956476
	DD	03f0ce183r			; 0.550316
	DD	03f7c29c8r			; 0.985013
	DD	03c899164r			; 0.016793
	DD	03e2fc898r			; 0.171664
	DD	03eb19b96r			; 0.34689
	DD	03e8343c9r			; 0.256377
	DD	03e8176e5r			; 0.25286
	DD	03f665617r			; 0.899751
	DD	03f2bdf31r			; 0.671374
	DD	03f299576r			; 0.662437
	DD	03f232204r			; 0.637238
	DD	03ec9a4a6r			; 0.393834
	DD	03eb19b92r			; 0.34689
	DD	03eae8001r			; 0.34082
	DD	03dee089er			; 0.116227
	DD	03f72d3ddr			; 0.948545
	DD	03f3d1d9fr			; 0.738733
	DD	03f299577r			; 0.662437
	DD	03f232204r			; 0.637238
	DD	03ec9a4a6r			; 0.393834
	DD	03e869652r			; 0.262866
	DD	03eb93e4er			; 0.361803
	DD	03e64f923r			; 0.223607
	DD	03f6347edr			; 0.887816
	DD	03f41eca5r			; 0.757517
	DD	03f299576r			; 0.662437
	DD	03f232204r			; 0.637238
	DD	03ec9a4a6r			; 0.393834
	DD	03ecf1bc1r			; 0.404509
	DD	03e06964br			; 0.131433
	DD	03e86964br			; 0.262865
	DD	03f68855fr			; 0.908285
	DD	03f15acc5r			; 0.584668
	DD	03f4e8806r			; 0.806763
	DD	03ed01262r			; 0.40639
	DD	03edb9c9ar			; 0.428929
	DD	03edc9ce3r			; 0.430884
	DD	03e5cf24fr			; 0.215768
	DD	03e088d65r			; 0.133352
	DD	03f73c57br			; 0.952232
	DD	03f245bf7r			; 0.642028
	DD	03f4e8807r			; 0.806763
	DD	03ed01264r			; 0.40639
	DD	03edb9c9cr			; 0.428929
	DD	03eb19b96r			; 0.34689
	DD	03e8343c9r			; 0.256377
	DD	03e8176e5r			; 0.25286
	DD	03f665617r			; 0.899751
	DD	03f2bdf31r			; 0.671374
	DD	03f4e8807r			; 0.806763
	DD	03ed01264r			; 0.40639
	DD	03edb9c9br			; 0.428929
	DD	03edcd7dcr			; 0.431334
	DD	0bb667124r			; -0.00351627
	DD	03e8176e5r			; 0.25286
	DD	03f6a657cr			; 0.915611
	DD	03efeda97r			; 0.497761
	DD	03f643cf8r			; 0.891555
	DD	03e14eaa2r			; 0.145426
	DD	03edb9ca2r			; 0.428929
	DD	03ef36a03r			; 0.475418
	DD	03da1315fr			; 0.0787074
	DD	03e088d65r			; 0.133352
	DD	03f74dba4r			; 0.956476
	DD	03f0ce183r			; 0.550316
	DD	03f643cf7r			; 0.891555
	DD	03e14eaa2r			; 0.145426
	DD	03edb9ca2r			; 0.428929
	DD	03ecf1bc1r			; 0.404509
	DD	03e06964br			; 0.131433
	DD	03e86964br			; 0.262865
	DD	03f68855fr			; 0.908285
	DD	03f15acc5r			; 0.584668
	DD	03f643cf7r			; 0.891555
	DD	03e14eaa2r			; 0.145426
	DD	03edb9ca2r			; 0.428929
	DD	03ed9c441r			; 0.425325
	DD	0be0d8379r			; -0.138197
	DD	03e64f921r			; 0.223607
	DD	03f6c477er			; 0.922966
	DD	03ed25c53r			; 0.410861
	DD	03f691553r			; 0.910482
	DD	0be0131aar			; -0.126166
	DD	03ec9a49fr			; 0.393834
	DD	03ef64193r			; 0.480969
	DD	0bd931d00r			; -0.0718327
	DD	03dee089fr			; 0.116227
	DD	03f7656e3r			; 0.962263
	DD	03ee88141r			; 0.454111
	DD	03f691555r			; 0.910482
	DD	0be0131aar			; -0.126166
	DD	03ec9a4a0r			; 0.393834
	DD	03edcd7dcr			; 0.431334
	DD	0bb667124r			; -0.00351627
	DD	03e8176e5r			; 0.25286
	DD	03f6a657cr			; 0.915611
	DD	03efeda97r			; 0.497761
	DD	03f691554r			; 0.910482
	DD	0be0131aar			; -0.126166
	DD	03ec9a49er			; 0.393834
	DD	03ef64193r			; 0.480969
	DD	03d931d00r			; 0.0718327
	DD	0bdee089fr			; -0.116227
	DD	03f84d48fr			; 1.03774
	DD	03f0bbf5fr			; 0.545889
	DD	03f706e2fr			; 0.939181
	DD	03e9c3dc1r			; 0.305159
	DD	0be215087r			; -0.157534
	DD	03edcd7d6r			; 0.431334
	DD	03e65fbb1r			; 0.224593
	DD	0bdee089er			; -0.116227
	DD	03f855cafr			; 1.04189
	DD	03f25f610r			; 0.648286
	DD	03f706e2dr			; 0.939181
	DD	03e9c3dc0r			; 0.305159
	DD	0be215086r			; -0.157534
	DD	03ef36a00r			; 0.475418
	DD	03e1e2e1dr			; 0.154473
	DD	03c305013r			; 0.0107613
	DD	03f7f13f2r			; 0.996398
	DD	03f199809r			; 0.599976
	DD	03f706e2er			; 0.939181
	DD	03e9c3dbfr			; 0.305159
	DD	0be215086r			; -0.157534
	DD	03ef36a00r			; 0.475418
	DD	03e1e2e1dr			; 0.154473
	DD	03c305013r			; 0.0107613
	DD	03f7f13f2r			; 0.996398
	DD	03f199809r			; 0.599976
	DD	03f6273b6r			; 0.884578
	DD	03eea045br			; 0.457064
	DD	03dbe12eer			; 0.0928095
	DD	03ecf1bbar			; 0.404508
	DD	03e96791br			; 0.293893
	DD	000000000r			; 0
	DD	03f800000r			; 1
	DD	03f333334r			; 0.7
	DD	03f6273b7r			; 0.884578
	DD	03eea045cr			; 0.457065
	DD	03dbe12efr			; 0.0928096
	DD	03edc9ce3r			; 0.430884
	DD	03e5cf24fr			; 0.215768
	DD	03e088d65r			; 0.133352
	DD	03f73c57br			; 0.952232
	DD	03f245bf7r			; 0.642028
	DD	03f6273b5r			; 0.884578
	DD	03eea045ar			; 0.457064
	DD	03dbe12edr			; 0.0928095
	DD	03f000000r			; 0.5
	DD	000000000r			; 0
	DD	000000000r			; 0
	DD	03f800000r			; 1
	DD	03f000000r			; 0.5
	DD	03f7bfab9r			; 0.984294
	DD	03e19c603r			; 0.150169
	DD	03dbe12d0r			; 0.0928093
	DD	03ef36a00r			; 0.475418
	DD	03e1e2e1dr			; 0.154473
	DD	03c305013r			; 0.0107613
	DD	03f7f13f2r			; 0.996398
	DD	03f199809r			; 0.599976
	DD	03f7bfab9r			; 0.984294
	DD	03e19c603r			; 0.150169
	DD	03dbe12cfr			; 0.0928093
	DD	03ef36a03r			; 0.475418
	DD	03da1315fr			; 0.0787074
	DD	03e088d65r			; 0.133352
	DD	03f74dba4r			; 0.956476
	DD	03f0ce183r			; 0.550316
	DD	03f7bfab9r			; 0.984294
	DD	03e19c604r			; 0.150169
	DD	03dbe12d0r			; 0.0928093
	DD	03edc9ce3r			; 0.430884
	DD	03e5cf24fr			; 0.215768
	DD	03e088d65r			; 0.133352
	DD	03f73c57br			; 0.952232
	DD	03f245bf7r			; 0.642028
	DD	03f41d875r			; 0.757209
	DD	03f0e3d3cr			; 0.555622
	DD	03eafd130r			; 0.343393
	DD	03eb19b92r			; 0.34689
	DD	03eae8001r			; 0.34082
	DD	03dee089er			; 0.116227
	DD	03f72d3ddr			; 0.948545
	DD	03f3d1d9fr			; 0.738733
	DD	03f41d876r			; 0.757209
	DD	03f0e3d3cr			; 0.555622
	DD	03eafd130r			; 0.343393
	DD	03eb19b96r			; 0.34689
	DD	03e8343c9r			; 0.256377
	DD	03e8176e5r			; 0.25286
	DD	03f665617r			; 0.899751
	DD	03f2bdf31r			; 0.671374
	DD	03f41d875r			; 0.757209
	DD	03f0e3d3br			; 0.555622
	DD	03eafd12fr			; 0.343393
	DD	03ef36a03r			; 0.475418
	DD	03da1315fr			; 0.0787074
	DD	03e088d65r			; 0.133352
	DD	03f74dba4r			; 0.956476
	DD	03f0ce183r			; 0.550316
	DD	03f6273bar			; 0.884578
	DD	03e932857r			; 0.287417
	DD	03ebc0f5cr			; 0.367305
	DD	03edc9ce3r			; 0.430884
	DD	03e5cf24fr			; 0.215768
	DD	03e088d65r			; 0.133352
	DD	03f73c57br			; 0.952232
	DD	03f245bf7r			; 0.642028
	DD	03f6273b8r			; 0.884578
	DD	03e932856r			; 0.287417
	DD	03ebc0f5br			; 0.367305
	DD	03ecf1bc1r			; 0.404509
	DD	03e06964br			; 0.131433
	DD	03e86964br			; 0.262865
	DD	03f68855fr			; 0.908285
	DD	03f15acc5r			; 0.584668
	DD	03f6273b8r			; 0.884578
	DD	03e932856r			; 0.287417
	DD	03ebc0f5cr			; 0.367305
	DD	03ef64193r			; 0.480969
	DD	0bd931d00r			; -0.0718327
	DD	03dee089fr			; 0.116227
	DD	03f7656e3r			; 0.962263
	DD	03ee88141r			; 0.454111
	DD	03f706e31r			; 0.939181
	DD	0bb913872r			; -0.00443178
	DD	03eafd129r			; 0.343393
	DD	03ef36a03r			; 0.475418
	DD	03da1315fr			; 0.0787074
	DD	03e088d65r			; 0.133352
	DD	03f74dba4r			; 0.956476
	DD	03f0ce183r			; 0.550316
	DD	03f706e32r			; 0.939181
	DD	0bb913873r			; -0.00443178
	DD	03eafd12br			; 0.343393
	DD	03edcd7dcr			; 0.431334
	DD	0bb667124r			; -0.00351627
	DD	03e8176e5r			; 0.25286
	DD	03f6a657cr			; 0.915611
	DD	03efeda97r			; 0.497761
	DD	03f706e32r			; 0.939181
	DD	0bb913872r			; -0.00443178
	DD	03eafd12ar			; 0.343393
	DD	0bda479fbr			; -0.0803108
	DD	03de261ear			; 0.110538
	DD	03ef6419cr			; 0.480969
	DD	03f39424ar			; 0.723668
	DD	03f122a3fr			; 0.570957
	DD	000000000r			; 0
	DD	03e2dbd57r			; 0.169668
	DD	03f7c49d1r			; 0.985501
	DD	000000000r			; 0
	DD	000000000r			; 0
	DD	03f000000r			; 0.5
	DD	03f400000r			; 0.75
	DD	03f000000r			; 0.5
	DD	000000000r			; 0
	DD	03e2dbd56r			; 0.169668
	DD	03f7c49d2r			; 0.985501
	DD	03da479fbr			; 0.0803108
	DD	03de261ear			; 0.110538
	DD	03ef6419cr			; 0.480969
	DD	03f46bdb6r			; 0.776332
	DD	03f122a3fr			; 0.570957
	DD	000000000r			; 0
	DD	03e2dbd57r			; 0.169668
	DD	03f7c49d1r			; 0.985501
	DD	000000000r			; 0
	DD	03e6ec6c9r			; 0.23318
	DD	03ee274cer			; 0.442297
	DD	03f400000r			; 0.75
	DD	03f27890er			; 0.654435
	DD	03e1ad896r			; 0.151217
	DD	03ec59ecar			; 0.385977
	DD	03f68f7ber			; 0.91003
	DD	03da479fbr			; 0.0803108
	DD	03de261ear			; 0.110538
	DD	03ef6419cr			; 0.480969
	DD	03f46bdb6r			; 0.776332
	DD	03f122a3fr			; 0.570957
	DD	03e1ad897r			; 0.151217
	DD	03ec59ecbr			; 0.385977
	DD	03f68f7ber			; 0.91003
	DD	03e1e377ar			; 0.154509
	DD	03e59c441r			; 0.212663
	DD	03ed9c441r			; 0.425325
	DD	03f4e3273r			; 0.805457
	DD	03f23cc94r			; 0.63984
	DD	03e1ad897r			; 0.151217
	DD	03ec59eccr			; 0.385977
	DD	03f68f7bfr			; 0.91003
	DD	0be1e377ar			; -0.154509
	DD	03e59c441r			; 0.212663
	DD	03ed9c441r			; 0.425325
	DD	03f31cd8dr			; 0.694543
	DD	03f23cc94r			; 0.63984
	DD	0be1ad897r			; -0.151217
	DD	03ec59eccr			; 0.385977
	DD	03f68f7bfr			; 0.91003
	DD	0bda479fbr			; -0.0803108
	DD	03de261ear			; 0.110538
	DD	03ef6419cr			; 0.480969
	DD	03f39424ar			; 0.723668
	DD	03f122a3fr			; 0.570957
	DD	0be1ad897r			; -0.151217
	DD	03ec59ecbr			; 0.385977
	DD	03f68f7ber			; 0.91003
	DD	000000000r			; 0
	DD	03e6ec6c9r			; 0.23318
	DD	03ee274cer			; 0.442297
	DD	03f400000r			; 0.75
	DD	03f27890er			; 0.654435
	DD	0be1ad896r			; -0.151217
	DD	03ec59ecar			; 0.385977
	DD	03f68f7ber			; 0.91003
	DD	03d9392a1r			; 0.072057
	DD	03eaa2adbr			; 0.332358
	DD	03ebbaa1ar			; 0.366532
	DD	03f47e8b4r			; 0.780895
	DD	03f3b4027r			; 0.731448
	DD	03e93aaf7r			; 0.288414
	DD	03f1326e5r			; 0.574812
	DD	03f4409b3r			; 0.765773
	DD	03e1e377ar			; 0.154509
	DD	03e59c441r			; 0.212663
	DD	03ed9c441r			; 0.425325
	DD	03f4e3273r			; 0.805457
	DD	03f23cc94r			; 0.63984
	DD	03e93aaf8r			; 0.288414
	DD	03f1326e6r			; 0.574812
	DD	03f4409b4r			; 0.765773
	DD	03e5e26b0r			; 0.216944
	DD	03e98e1e6r			; 0.298598
	DD	03eacb321r			; 0.337304
	DD	03f574996r			; 0.840967
	DD	03f3426edr			; 0.703719
	DD	03e93aaf8r			; 0.288414
	DD	03f1326e6r			; 0.574812
	DD	03f4409b3r			; 0.765773
	DD	0bd9392a2r			; -0.072057
	DD	03eaa2adcr			; 0.332358
	DD	03ebbaa1ar			; 0.366532
	DD	03f38174cr			; 0.719105
	DD	03f3b4028r			; 0.731448
	DD	0340831ffr			; 1.26842e-07
	DD	03f1b6867r			; 0.607062
	DD	03f4b6e7ar			; 0.794654
	DD	000000000r			; 0
	DD	03e6ec6c9r			; 0.23318
	DD	03ee274cer			; 0.442297
	DD	03f400000r			; 0.75
	DD	03f27890er			; 0.654435
	DD	034083200r			; 1.26842e-07
	DD	03f1b6868r			; 0.607062
	DD	03f4b6e7dr			; 0.794655
	DD	03d9392a1r			; 0.072057
	DD	03eaa2adbr			; 0.332358
	DD	03ebbaa1ar			; 0.366532
	DD	03f47e8b4r			; 0.780895
	DD	03f3b4027r			; 0.731448
	DD	0340831ffr			; 1.26842e-07
	DD	03f1b6868r			; 0.607062
	DD	03f4b6e7cr			; 0.794655
	DD	0be5e26b0r			; -0.216944
	DD	03e98e1e6r			; 0.298598
	DD	03eacb321r			; 0.337304
	DD	03f28b66ar			; 0.659033
	DD	03f3426edr			; 0.703719
	DD	0be93aafbr			; -0.288414
	DD	03f1326e6r			; 0.574812
	DD	03f4409b3r			; 0.765773
	DD	0be1e377ar			; -0.154509
	DD	03e59c441r			; 0.212663
	DD	03ed9c441r			; 0.425325
	DD	03f31cd8dr			; 0.694543
	DD	03f23cc94r			; 0.63984
	DD	0be93aafcr			; -0.288414
	DD	03f1326e6r			; 0.574812
	DD	03f4409b4r			; 0.765773
	DD	0bd9392a2r			; -0.072057
	DD	03eaa2adcr			; 0.332358
	DD	03ebbaa1ar			; 0.366532
	DD	03f38174cr			; 0.719105
	DD	03f3b4028r			; 0.731448
	DD	0be93aafbr			; -0.288414
	DD	03f1326e5r			; 0.574812
	DD	03f4409b3r			; 0.765773
	DD	03e0be9b0r			; 0.136634
	DD	03ed17a63r			; 0.409137
	DD	03e8176e5r			; 0.25286
	DD	03f542f46r			; 0.828846
	DD	03f4e18far			; 0.805069
	DD	03ecd7d17r			; 0.401345
	DD	03f38d9b5r			; 0.722072
	DD	03f1041abr			; 0.563502
	DD	03e5e26b0r			; 0.216944
	DD	03e98e1e6r			; 0.298598
	DD	03eacb321r			; 0.337304
	DD	03f574996r			; 0.840967
	DD	03f3426edr			; 0.703719
	DD	03ecd7d14r			; 0.401345
	DD	03f38d9b2r			; 0.722072
	DD	03f1041aar			; 0.563502
	DD	03e869652r			; 0.262866
	DD	03eb93e4er			; 0.361803
	DD	03e64f923r			; 0.223607
	DD	03f6347edr			; 0.887816
	DD	03f41eca5r			; 0.757517
	DD	03ecd7d15r			; 0.401345
	DD	03f38d9b3r			; 0.722072
	DD	03f1041abr			; 0.563502
	DD	000000000r			; 0
	DD	03ed9c444r			; 0.425326
	DD	03e86964ar			; 0.262865
	DD	03f400000r			; 0.75
	DD	03f52e407r			; 0.823792
	DD	03e0c7d4ar			; 0.137197
	DD	03f486f14r			; 0.782945
	DD	03f1b5587r			; 0.606774
	DD	03d9392a1r			; 0.072057
	DD	03eaa2adbr			; 0.332358
	DD	03ebbaa1ar			; 0.366532
	DD	03f47e8b4r			; 0.780895
	DD	03f3b4027r			; 0.731448
	DD	03e0c7d4br			; 0.137197
	DD	03f486f13r			; 0.782945
	DD	03f1b5587r			; 0.606774
	DD	03e0be9b0r			; 0.136634
	DD	03ed17a63r			; 0.409137
	DD	03e8176e5r			; 0.25286
	DD	03f542f46r			; 0.828846
	DD	03f4e18far			; 0.805069
	DD	03e0c7d4ar			; 0.137197
	DD	03f486f13r			; 0.782945
	DD	03f1b5587r			; 0.606774
	DD	0be0be9b0r			; -0.136634
	DD	03ed17a63r			; 0.409137
	DD	03e8176e5r			; 0.25286
	DD	03f2bd0bar			; 0.671154
	DD	03f4e18far			; 0.805069
	DD	0be0c7d4ar			; -0.137197
	DD	03f486f15r			; 0.782945
	DD	03f1b5585r			; 0.606774
	DD	0bd9392a2r			; -0.072057
	DD	03eaa2adcr			; 0.332358
	DD	03ebbaa1ar			; 0.366532
	DD	03f38174cr			; 0.719105
	DD	03f3b4028r			; 0.731448
	DD	0be0c7d4br			; -0.137197
	DD	03f486f15r			; 0.782945
	DD	03f1b5585r			; 0.606774
	DD	000000000r			; 0
	DD	03ed9c444r			; 0.425326
	DD	03e86964ar			; 0.262865
	DD	03f400000r			; 0.75
	DD	03f52e407r			; 0.823792
	DD	0be0c7d49r			; -0.137197
	DD	03f486f14r			; 0.782945
	DD	03f1b5584r			; 0.606774
	DD	0be869652r			; -0.262866
	DD	03eb93e4er			; 0.361803
	DD	03e64f923r			; 0.223607
	DD	03f1cb813r			; 0.612184
	DD	03f41eca5r			; 0.757517
	DD	0becd7d15r			; -0.401345
	DD	03f38d9b3r			; 0.722072
	DD	03f1041abr			; 0.563502
	DD	0be5e26b0r			; -0.216944
	DD	03e98e1e6r			; 0.298598
	DD	03eacb321r			; 0.337304
	DD	03f28b66ar			; 0.659033
	DD	03f3426edr			; 0.703719
	DD	0becd7d14r			; -0.401345
	DD	03f38d9b2r			; 0.722072
	DD	03f1041aar			; 0.563502
	DD	0be0be9b0r			; -0.136634
	DD	03ed17a63r			; 0.409137
	DD	03e8176e5r			; 0.25286
	DD	03f2bd0bar			; 0.671154
	DD	03f4e18far			; 0.805069
	DD	0becd7d17r			; -0.401345
	DD	03f38d9b5r			; 0.722072
	DD	03f1041abr			; 0.563502
	DD	0bda479fbr			; -0.0803108
	DD	03de261ear			; 0.110538
	DD	03ef6419cr			; 0.480969
	DD	03f39424ar			; 0.723668
	DD	03f122a3fr			; 0.570957
	DD	080000000r			; -0
	DD	03e99f8f6r			; 0.300728
	DD	03f742658r			; 0.95371
	DD	03da479fbr			; 0.0803108
	DD	03de261ear			; 0.110538
	DD	03ef6419cr			; 0.480969
	DD	03f46bdb6r			; 0.776332
	DD	03f122a3fr			; 0.570957
	DD	080000000r			; -0
	DD	03e99f8f6r			; 0.300728
	DD	03f742658r			; 0.95371
	DD	000000000r			; 0
	DD	03e6ec6c9r			; 0.23318
	DD	03ee274cer			; 0.442297
	DD	03f400000r			; 0.75
	DD	03f27890er			; 0.654435
	DD	080000000r			; -0
	DD	03e99f8f7r			; 0.300728
	DD	03f742659r			; 0.95371
	DD	000000000r			; 0
	DD	03e6ec6c9r			; 0.23318
	DD	03ee274cer			; 0.442297
	DD	03f400000r			; 0.75
	DD	03f27890er			; 0.654435
	DD	03e253758r			; 0.161344
	DD	03f05bca7r			; 0.52241
	DD	03f5658b2r			; 0.837291
	DD	03e1e377ar			; 0.154509
	DD	03e59c441r			; 0.212663
	DD	03ed9c441r			; 0.425325
	DD	03f4e3273r			; 0.805457
	DD	03f23cc94r			; 0.63984
	DD	03e253759r			; 0.161344
	DD	03f05bca8r			; 0.52241
	DD	03f5658b3r			; 0.837291
	DD	03d9392a1r			; 0.072057
	DD	03eaa2adbr			; 0.332358
	DD	03ebbaa1ar			; 0.366532
	DD	03f47e8b4r			; 0.780895
	DD	03f3b4027r			; 0.731448
	DD	03e253758r			; 0.161344
	DD	03f05bca7r			; 0.52241
	DD	03f5658b2r			; 0.837291
	DD	0be1e377ar			; -0.154509
	DD	03e59c441r			; 0.212663
	DD	03ed9c441r			; 0.425325
	DD	03f31cd8dr			; 0.694543
	DD	03f23cc94r			; 0.63984
	DD	0be253758r			; -0.161344
	DD	03f05bca7r			; 0.52241
	DD	03f5658b4r			; 0.837291
	DD	000000000r			; 0
	DD	03e6ec6c9r			; 0.23318
	DD	03ee274cer			; 0.442297
	DD	03f400000r			; 0.75
	DD	03f27890er			; 0.654435
	DD	0be253757r			; -0.161344
	DD	03f05bca6r			; 0.52241
	DD	03f5658b3r			; 0.837291
	DD	0bd9392a2r			; -0.072057
	DD	03eaa2adcr			; 0.332358
	DD	03ebbaa1ar			; 0.366532
	DD	03f38174cr			; 0.719105
	DD	03f3b4028r			; 0.731448
	DD	0be253757r			; -0.161344
	DD	03f05bca6r			; 0.52241
	DD	03f5658b3r			; 0.837291
	DD	03d9392a1r			; 0.072057
	DD	03eaa2adbr			; 0.332358
	DD	03ebbaa1ar			; 0.366532
	DD	03f47e8b4r			; 0.780895
	DD	03f3b4027r			; 0.731448
	DD	03e96c077r			; 0.294437
	DD	03f34bb7ar			; 0.705986
	DD	03f24e510r			; 0.64412
	DD	03e5e26b0r			; 0.216944
	DD	03e98e1e6r			; 0.298598
	DD	03eacb321r			; 0.337304
	DD	03f574996r			; 0.840967
	DD	03f3426edr			; 0.703719
	DD	03e96c078r			; 0.294437
	DD	03f34bb7br			; 0.705986
	DD	03f24e511r			; 0.64412
	DD	03e0be9b0r			; 0.136634
	DD	03ed17a63r			; 0.409137
	DD	03e8176e5r			; 0.25286
	DD	03f542f46r			; 0.828846
	DD	03f4e18far			; 0.805069
	DD	03e96c077r			; 0.294437
	DD	03f34bb7br			; 0.705986
	DD	03f24e510r			; 0.64412
	DD	0bd9392a2r			; -0.072057
	DD	03eaa2adcr			; 0.332358
	DD	03ebbaa1ar			; 0.366532
	DD	03f38174cr			; 0.719105
	DD	03f3b4028r			; 0.731448
	DD	03430a61cr			; 1.64517e-07
	DD	03f3e9656r			; 0.744481
	DD	03f2aeaabr			; 0.667643
	DD	03d9392a1r			; 0.072057
	DD	03eaa2adbr			; 0.332358
	DD	03ebbaa1ar			; 0.366532
	DD	03f47e8b4r			; 0.780895
	DD	03f3b4027r			; 0.731448
	DD	03430a61cr			; 1.64517e-07
	DD	03f3e9656r			; 0.744481
	DD	03f2aeaaar			; 0.667643
	DD	000000000r			; 0
	DD	03ed9c444r			; 0.425326
	DD	03e86964ar			; 0.262865
	DD	03f400000r			; 0.75
	DD	03f52e407r			; 0.823792
	DD	03430a61cr			; 1.64517e-07
	DD	03f3e9656r			; 0.744481
	DD	03f2aeaaar			; 0.667643
	DD	0be5e26b0r			; -0.216944
	DD	03e98e1e6r			; 0.298598
	DD	03eacb321r			; 0.337304
	DD	03f28b66ar			; 0.659033
	DD	03f3426edr			; 0.703719
	DD	0be96c07dr			; -0.294437
	DD	03f34bb7br			; 0.705986
	DD	03f24e50er			; 0.64412
	DD	0bd9392a2r			; -0.072057
	DD	03eaa2adcr			; 0.332358
	DD	03ebbaa1ar			; 0.366532
	DD	03f38174cr			; 0.719105
	DD	03f3b4028r			; 0.731448
	DD	0be96c07er			; -0.294437
	DD	03f34bb7cr			; 0.705986
	DD	03f24e50fr			; 0.64412
	DD	0be0be9b0r			; -0.136634
	DD	03ed17a63r			; 0.409137
	DD	03e8176e5r			; 0.25286
	DD	03f2bd0bar			; 0.671154
	DD	03f4e18far			; 0.805069
	DD	0be96c07er			; -0.294437
	DD	03f34bb7dr			; 0.705986
	DD	03f24e50fr			; 0.64412
	DD	03da479fbr			; 0.0803108
	DD	03de261ear			; 0.110538
	DD	03ef6419cr			; 0.480969
	DD	03f46bdb6r			; 0.776332
	DD	03f122a3fr			; 0.570957
	DD	03e253c79r			; 0.161363
	DD	03d56c101r			; 0.0524302
	DD	03f7c49d1r			; 0.985501
	DD	000000000r			; 0
	DD	000000000r			; 0
	DD	03f000000r			; 0.5
	DD	03f400000r			; 0.75
	DD	03f000000r			; 0.5
	DD	03e253c7ar			; 0.161364
	DD	03d56c101r			; 0.0524302
	DD	03f7c49d1r			; 0.985501
	DD	03e051074r			; 0.129946
	DD	0bd2cf0ebr			; -0.0422219
	DD	03ef6419cr			; 0.480969
	DD	03f4ac04fr			; 0.791997
	DD	03ef238acr			; 0.473089
	DD	03e253c79r			; 0.161363
	DD	03d56c100r			; 0.0524302
	DD	03f7c49d0r			; 0.985501
	DD	03e631708r			; 0.221768
	DD	03d939266r			; 0.0720566
	DD	03ee274cfr			; 0.442297
	DD	03f52efb0r			; 0.82397
	DD	03f0bc8d1r			; 0.546033
	DD	03ed3df86r			; 0.413815
	DD	0bcc90dbfr			; -0.0245427
	DD	03f68f7ber			; 0.91003
	DD	03e051074r			; 0.129946
	DD	0bd2cf0ebr			; -0.0422219
	DD	03ef6419cr			; 0.480969
	DD	03f4ac04fr			; 0.791997
	DD	03ef238acr			; 0.473089
	DD	03ed3df86r			; 0.413815
	DD	0bcc90dbfr			; -0.0245427
	DD	03f68f7ber			; 0.91003
	DD	03e7fffffr			; 0.25
	DD	0bda65bf1r			; -0.0812301
	DD	03ed9c440r			; 0.425325
	DD	03f55a698r			; 0.834573
	DD	03ee567ber			; 0.448057
	DD	03ed3df85r			; 0.413815
	DD	0bcc90dber			; -0.0245427
	DD	03f68f7bdr			; 0.91003
	DD	03e1e377ar			; 0.154509
	DD	03e59c441r			; 0.212663
	DD	03ed9c441r			; 0.425325
	DD	03f4e3273r			; 0.805457
	DD	03f23cc94r			; 0.63984
	DD	03ea405e2r			; 0.320357
	DD	03e86b3a4r			; 0.263089
	DD	03f68f7bfr			; 0.91003
	DD	03da479fbr			; 0.0803108
	DD	03de261ear			; 0.110538
	DD	03ef6419cr			; 0.480969
	DD	03f46bdb6r			; 0.776332
	DD	03f122a3fr			; 0.570957
	DD	03ea405e2r			; 0.320357
	DD	03e86b3a3r			; 0.263089
	DD	03f68f7bfr			; 0.91003
	DD	03e631708r			; 0.221768
	DD	03d939266r			; 0.0720566
	DD	03ee274cfr			; 0.442297
	DD	03f52efb0r			; 0.82397
	DD	03f0bc8d1r			; 0.546033
	DD	03ea405e2r			; 0.320357
	DD	03e86b3a4r			; 0.263089
	DD	03f68f7ber			; 0.91003
	DD	03ead3d4br			; 0.338358
	DD	03d0bf9f0r			; 0.0341739
	DD	03ebbaa1ar			; 0.366532
	DD	03f5e5f54r			; 0.868642
	DD	03f0592e6r			; 0.521773
	DD	03f22c40ar			; 0.635804
	DD	0bdc5fb9ar			; -0.0966713
	DD	03f4409b1r			; 0.765773
	DD	03e7fffffr			; 0.25
	DD	0bda65bf1r			; -0.0812301
	DD	03ed9c440r			; 0.425325
	DD	03f55a698r			; 0.834573
	DD	03ee567ber			; 0.448057
	DD	03f22c40br			; 0.635804
	DD	0bdc5fb9br			; -0.0966713
	DD	03f4409b2r			; 0.765773
	DD	03eb3b959r			; 0.351023
	DD	0bde99579r			; -0.114055
	DD	03eacb320r			; 0.337304
	DD	03f60cfddr			; 0.878172
	DD	03eda7e68r			; 0.426746
	DD	03f22c40br			; 0.635804
	DD	0bdc5fb9ar			; -0.0966713
	DD	03f4409b2r			; 0.765773
	DD	03e96702er			; 0.293825
	DD	03e2f581er			; 0.171235
	DD	03ebbaa1ar			; 0.366532
	DD	03f5b8830r			; 0.857547
	DD	03f1c7bbfr			; 0.611263
	DD	03f13cd3fr			; 0.577351
	DD	03e40182fr			; 0.187592
	DD	03f4b6e78r			; 0.794654
	DD	03e631708r			; 0.221768
	DD	03d939266r			; 0.0720566
	DD	03ee274cfr			; 0.442297
	DD	03f52efb0r			; 0.82397
	DD	03f0bc8d1r			; 0.546033
	DD	03f13cd3fr			; 0.577351
	DD	03e401830r			; 0.187592
	DD	03f4b6e79r			; 0.794654
	DD	03ead3d4br			; 0.338358
	DD	03d0bf9f0r			; 0.0341739
	DD	03ebbaa1ar			; 0.366532
	DD	03f5e5f54r			; 0.868642
	DD	03f0592e6r			; 0.521773
	DD	03f13cd3er			; 0.57735
	DD	03e40182er			; 0.187592
	DD	03f4b6e77r			; 0.794654
	DD	03e5e26b0r			; 0.216944
	DD	03e98e1e6r			; 0.298598
	DD	03eacb321r			; 0.337304
	DD	03f574996r			; 0.840967
	DD	03f3426edr			; 0.703719
	DD	03eea4490r			; 0.457554
	DD	03ee762a6r			; 0.451925
	DD	03f4409b3r			; 0.765773
	DD	03e1e377ar			; 0.154509
	DD	03e59c441r			; 0.212663
	DD	03ed9c441r			; 0.425325
	DD	03f4e3273r			; 0.805457
	DD	03f23cc94r			; 0.63984
	DD	03eea4490r			; 0.457554
	DD	03ee762a6r			; 0.451925
	DD	03f4409b3r			; 0.765773
	DD	03e96702er			; 0.293825
	DD	03e2f581er			; 0.171235
	DD	03ebbaa1ar			; 0.366532
	DD	03f5b8830r			; 0.857547
	DD	03f1c7bbfr			; 0.611263
	DD	03eea4490r			; 0.457554
	DD	03ee762a6r			; 0.451925
	DD	03f4409b3r			; 0.765773
	DD	03edcd7dcr			; 0.431334
	DD	0bb667124r			; -0.00351627
	DD	03e8176e5r			; 0.25286
	DD	03f6a657cr			; 0.915611
	DD	03efeda97r			; 0.497761
	DD	03f4f8d89r			; 0.810753
	DD	0be226017r			; -0.15857
	DD	03f1041abr			; 0.563502
	DD	03eb3b959r			; 0.351023
	DD	0bde99579r			; -0.114055
	DD	03eacb320r			; 0.337304
	DD	03f60cfddr			; 0.878172
	DD	03eda7e68r			; 0.426746
	DD	03f4f8d89r			; 0.810753
	DD	0be226015r			; -0.15857
	DD	03f1041abr			; 0.563502
	DD	03ed9c441r			; 0.425325
	DD	0be0d8379r			; -0.138197
	DD	03e64f921r			; 0.223607
	DD	03f6c477er			; 0.922966
	DD	03ed25c53r			; 0.410861
	DD	03f4f8d8ar			; 0.810753
	DD	0be226018r			; -0.15857
	DD	03f1041acr			; 0.563502
	DD	03ecf1bc1r			; 0.404509
	DD	03e06964br			; 0.131433
	DD	03e86964br			; 0.262865
	DD	03f68855fr			; 0.908285
	DD	03f15acc5r			; 0.584668
	DD	03f497a32r			; 0.787021
	DD	03de445adr			; 0.111461
	DD	03f1b558ar			; 0.606774
	DD	03ead3d4br			; 0.338358
	DD	03d0bf9f0r			; 0.0341739
	DD	03ebbaa1ar			; 0.366532
	DD	03f5e5f54r			; 0.868642
	DD	03f0592e6r			; 0.521773
	DD	03f497a33r			; 0.787021
	DD	03de445aer			; 0.111461
	DD	03f1b558ar			; 0.606774
	DD	03edcd7dcr			; 0.431334
	DD	0bb667124r			; -0.00351627
	DD	03e8176e5r			; 0.25286
	DD	03f6a657cr			; 0.915611
	DD	03efeda97r			; 0.497761
	DD	03f497a33r			; 0.787021
	DD	03de445adr			; 0.111461
	DD	03f1b558ar			; 0.606774
	DD	03eb19b96r			; 0.34689
	DD	03e8343c9r			; 0.256377
	DD	03e8176e5r			; 0.25286
	DD	03f665617r			; 0.899751
	DD	03f2bdf31r			; 0.671374
	DD	03f33c543r			; 0.702229
	DD	03ebeae80r			; 0.372425
	DD	03f1b5586r			; 0.606774
	DD	03e96702er			; 0.293825
	DD	03e2f581er			; 0.171235
	DD	03ebbaa1ar			; 0.366532
	DD	03f5b8830r			; 0.857547
	DD	03f1c7bbfr			; 0.611263
	DD	03f33c543r			; 0.702229
	DD	03ebeae80r			; 0.372425
	DD	03f1b5587r			; 0.606774
	DD	03ecf1bc1r			; 0.404509
	DD	03e06964br			; 0.131433
	DD	03e86964br			; 0.262865
	DD	03f68855fr			; 0.908285
	DD	03f15acc5r			; 0.584668
	DD	03f33c543r			; 0.702229
	DD	03ebeae81r			; 0.372425
	DD	03f1b5586r			; 0.606774
	DD	03e869652r			; 0.262866
	DD	03eb93e4er			; 0.361803
	DD	03e64f923r			; 0.223607
	DD	03f6347edr			; 0.887816
	DD	03f41eca5r			; 0.757517
	DD	03f100dafr			; 0.562709
	DD	03f1ad668r			; 0.604834
	DD	03f1041abr			; 0.563502
	DD	03e5e26b0r			; 0.216944
	DD	03e98e1e6r			; 0.298598
	DD	03eacb321r			; 0.337304
	DD	03f574996r			; 0.840967
	DD	03f3426edr			; 0.703719
	DD	03f100dafr			; 0.562709
	DD	03f1ad668r			; 0.604834
	DD	03f1041abr			; 0.563502
	DD	03eb19b96r			; 0.34689
	DD	03e8343c9r			; 0.256377
	DD	03e8176e5r			; 0.25286
	DD	03f665617r			; 0.899751
	DD	03f2bdf31r			; 0.671374
	DD	03f100db0r			; 0.562709
	DD	03f1ad668r			; 0.604834
	DD	03f1041abr			; 0.563502
	DD	03da479fbr			; 0.0803108
	DD	03de261ear			; 0.110538
	DD	03ef6419cr			; 0.480969
	DD	03f46bdb6r			; 0.776332
	DD	03f122a3fr			; 0.570957
	DD	03e926fbbr			; 0.286009
	DD	03dbe51fbr			; 0.0929298
	DD	03f74265ar			; 0.95371
	DD	03e051074r			; 0.129946
	DD	0bd2cf0ebr			; -0.0422219
	DD	03ef6419cr			; 0.480969
	DD	03f4ac04fr			; 0.791997
	DD	03ef238acr			; 0.473089
	DD	03e926fbbr			; 0.286009
	DD	03dbe51fbr			; 0.0929298
	DD	03f74265ar			; 0.95371
	DD	03e631708r			; 0.221768
	DD	03d939266r			; 0.0720566
	DD	03ee274cfr			; 0.442297
	DD	03f52efb0r			; 0.82397
	DD	03f0bc8d1r			; 0.546033
	DD	03e926fbbr			; 0.286009
	DD	03dbe51fbr			; 0.0929298
	DD	03f742659r			; 0.95371
	DD	03e631708r			; 0.221768
	DD	03d939266r			; 0.0720566
	DD	03ee274cfr			; 0.442297
	DD	03f52efb0r			; 0.82397
	DD	03f0bc8d1r			; 0.546033
	DD	03f0bf482r			; 0.5467
	DD	03c02d773r			; 0.00798594
	DD	03f5658b1r			; 0.837291
	DD	03e7fffffr			; 0.25
	DD	0bda65bf1r			; -0.0812301
	DD	03ed9c440r			; 0.425325
	DD	03f55a698r			; 0.834573
	DD	03ee567ber			; 0.448057
	DD	03f0bf481r			; 0.5467
	DD	03c02d773r			; 0.00798594
	DD	03f5658afr			; 0.837291
	DD	03ead3d4br			; 0.338358
	DD	03d0bf9f0r			; 0.0341739
	DD	03ebbaa1ar			; 0.366532
	DD	03f5e5f54r			; 0.868642
	DD	03f0592e6r			; 0.521773
	DD	03f0bf481r			; 0.5467
	DD	03c02d772r			; 0.00798594
	DD	03f5658aer			; 0.837291
	DD	03e1e377ar			; 0.154509
	DD	03e59c441r			; 0.212663
	DD	03ed9c441r			; 0.425325
	DD	03f4e3273r			; 0.805457
	DD	03f23cc94r			; 0.63984
	DD	03ee4db02r			; 0.446983
	DD	03ea1380fr			; 0.314881
	DD	03f5658afr			; 0.837291
	DD	03e631708r			; 0.221768
	DD	03d939266r			; 0.0720566
	DD	03ee274cfr			; 0.442297
	DD	03f52efb0r			; 0.82397
	DD	03f0bc8d1r			; 0.546033
	DD	03ee4db03r			; 0.446983
	DD	03ea13810r			; 0.314881
	DD	03f5658b0r			; 0.837291
	DD	03e96702er			; 0.293825
	DD	03e2f581er			; 0.171235
	DD	03ebbaa1ar			; 0.366532
	DD	03f5b8830r			; 0.857547
	DD	03f1c7bbfr			; 0.611263
	DD	03ee4db03r			; 0.446983
	DD	03ea13810r			; 0.314881
	DD	03f5658b1r			; 0.837291
	DD	03ead3d4br			; 0.338358
	DD	03d0bf9f0r			; 0.0341739
	DD	03ebbaa1ar			; 0.366532
	DD	03f5e5f54r			; 0.868642
	DD	03f0592e6r			; 0.521773
	DD	03f432dd9r			; 0.762418
	DD	0bd7d664er			; -0.0618651
	DD	03f24e512r			; 0.64412
	DD	03eb3b959r			; 0.351023
	DD	0bde99579r			; -0.114055
	DD	03eacb320r			; 0.337304
	DD	03f60cfddr			; 0.878172
	DD	03eda7e68r			; 0.426746
	DD	03f432dd9r			; 0.762418
	DD	0bd7d664er			; -0.0618651
	DD	03f24e512r			; 0.64412
	DD	03edcd7dcr			; 0.431334
	DD	0bb667124r			; -0.00351627
	DD	03e8176e5r			; 0.25286
	DD	03f6a657cr			; 0.915611
	DD	03efeda97r			; 0.497761
	DD	03f432dd9r			; 0.762418
	DD	0bd7d664er			; -0.0618651
	DD	03f24e512r			; 0.64412
	DD	03e96702er			; 0.293825
	DD	03e2f581er			; 0.171235
	DD	03ebbaa1ar			; 0.366532
	DD	03f5b8830r			; 0.857547
	DD	03f1c7bbfr			; 0.611263
	DD	03f35425dr			; 0.708044
	DD	03e6b9412r			; 0.230057
	DD	03f2aeaaer			; 0.667643
	DD	03ead3d4br			; 0.338358
	DD	03d0bf9f0r			; 0.0341739
	DD	03ebbaa1ar			; 0.366532
	DD	03f5e5f54r			; 0.868642
	DD	03f0592e6r			; 0.521773
	DD	03f35425cr			; 0.708044
	DD	03e6b9411r			; 0.230057
	DD	03f2aeaaer			; 0.667643
	DD	03ecf1bc1r			; 0.404509
	DD	03e06964br			; 0.131433
	DD	03e86964br			; 0.262865
	DD	03f68855fr			; 0.908285
	DD	03f15acc5r			; 0.584668
	DD	03f35425cr			; 0.708044
	DD	03e6b9411r			; 0.230057
	DD	03f2aeaadr			; 0.667643
	DD	03e5e26b0r			; 0.216944
	DD	03e98e1e6r			; 0.298598
	DD	03eacb321r			; 0.337304
	DD	03f574996r			; 0.840967
	DD	03f3426edr			; 0.703719
	DD	03f149821r			; 0.580446
	DD	03eff127cr			; 0.498188
	DD	03f24e510r			; 0.64412
	DD	03e96702er			; 0.293825
	DD	03e2f581er			; 0.171235
	DD	03ebbaa1ar			; 0.366532
	DD	03f5b8830r			; 0.857547
	DD	03f1c7bbfr			; 0.611263
	DD	03f149821r			; 0.580446
	DD	03eff127dr			; 0.498188
	DD	03f24e511r			; 0.64412
	DD	03eb19b96r			; 0.34689
	DD	03e8343c9r			; 0.256377
	DD	03e8176e5r			; 0.25286
	DD	03f665617r			; 0.899751
	DD	03f2bdf31r			; 0.671374
	DD	03f149821r			; 0.580446
	DD	03eff127cr			; 0.498188
	DD	03f24e511r			; 0.64412
	DD	03e051074r			; 0.129946
	DD	0bd2cf0ebr			; -0.0422219
	DD	03ef6419cr			; 0.480969
	DD	03f4ac04fr			; 0.791997
	DD	03ef238acr			; 0.473089
	DD	03dcc3e3ar			; 0.0997281
	DD	0be0c8eebr			; -0.137264
	DD	03f7c49d1r			; 0.985501
	DD	000000000r			; 0
	DD	000000000r			; 0
	DD	03f000000r			; 0.5
	DD	03f400000r			; 0.75
	DD	03f000000r			; 0.5
	DD	03dcc3e38r			; 0.099728
	DD	0be0c8eear			; -0.137264
	DD	03f7c49d0r			; 0.985501
	DD	000000000r			; 0
	DD	0be0be97fr			; -0.136633
	DD	03ef6419cr			; 0.480969
	DD	03f400000r			; 0.75
	DD	03ed2e40dr			; 0.411896
	DD	03dcc3e39r			; 0.0997281
	DD	0be0c8eebr			; -0.137264
	DD	03f7c49d1r			; 0.985501
	DD	03e0c596br			; 0.13706
	DD	0be412ca1r			; -0.188647
	DD	03ee274cdr			; 0.442297
	DD	03f4c3e4er			; 0.797826
	DD	03ec0f31br			; 0.376855
	DD	03dd61643r			; 0.104535
	DD	0becd62e9r			; -0.401145
	DD	03f68f7ber			; 0.91003
	DD	000000000r			; 0
	DD	0be0be97fr			; -0.136633
	DD	03ef6419cr			; 0.480969
	DD	03f400000r			; 0.75
	DD	03ed2e40dr			; 0.411896
	DD	03dd61644r			; 0.104535
	DD	0becd62e9r			; -0.401145
	DD	03f68f7ber			; 0.91003
	DD	000000000r			; 0
	DD	0be869652r			; -0.262866
	DD	03ed9c440r			; 0.425325
	DD	03f400000r			; 0.75
	DD	03ea5c809r			; 0.323792
	DD	03dd61643r			; 0.104535
	DD	0becd62e8r			; -0.401145
	DD	03f68f7bfr			; 0.91003
	DD	03e7fffffr			; 0.25
	DD	0bda65bf1r			; -0.0812301
	DD	03ed9c440r			; 0.425325
	DD	03f55a698r			; 0.834573
	DD	03ee567ber			; 0.448057
	DD	03eb2cb7cr			; 0.349209
	DD	0be64bd85r			; -0.223379
	DD	03f68f7bfr			; 0.91003
	DD	03e051074r			; 0.129946
	DD	0bd2cf0ebr			; -0.0422219
	DD	03ef6419cr			; 0.480969
	DD	03f4ac04fr			; 0.791997
	DD	03ef238acr			; 0.473089
	DD	03eb2cb7cr			; 0.349209
	DD	0be64bd85r			; -0.223379
	DD	03f68f7ber			; 0.91003
	DD	03e0c596br			; 0.13706
	DD	0be412ca1r			; -0.188647
	DD	03ee274cdr			; 0.442297
	DD	03f4c3e4er			; 0.797826
	DD	03ec0f31br			; 0.376855
	DD	03eb2cb7br			; 0.349209
	DD	0be64bd82r			; -0.223379
	DD	03f68f7bdr			; 0.91003
	DD	03e0c596cr			; 0.13706
	DD	0be9f5a87r			; -0.311238
	DD	03ebbaa17r			; 0.366532
	DD	03f4e9464r			; 0.806952
	DD	03e927f43r			; 0.286127
	DD	03dd61649r			; 0.104535
	DD	0bf22726er			; -0.634559
	DD	03f4409afr			; 0.765773
	DD	000000000r			; 0
	DD	0be869652r			; -0.262866
	DD	03ed9c440r			; 0.425325
	DD	03f400000r			; 0.75
	DD	03ea5c809r			; 0.323792
	DD	03dd61648r			; 0.104535
	DD	0bf22726er			; -0.634559
	DD	03f4409aer			; 0.765773
	DD	000000000r			; 0
	DD	0bebcf91ar			; -0.369088
	DD	03eacb31fr			; 0.337304
	DD	03f400000r			; 0.75
	DD	03e71580ar			; 0.235687
	DD	03dd61649r			; 0.104535
	DD	0bf22726er			; -0.634559
	DD	03f4409afr			; 0.765773
	DD	03e81de7dr			; 0.253651
	DD	0be67f75br			; -0.22653
	DD	03ebbaa17r			; 0.366532
	DD	03f58aa17r			; 0.846345
	DD	03eb35ecdr			; 0.350333
	DD	03eb6b15fr			; 0.356822
	DD	0befb7493r			; -0.491124
	DD	03f4b6e78r			; 0.794654
	DD	03e0c596br			; 0.13706
	DD	0be412ca1r			; -0.188647
	DD	03ee274cdr			; 0.442297
	DD	03f4c3e4er			; 0.797826
	DD	03ec0f31br			; 0.376855
	DD	03eb6b15er			; 0.356822
	DD	0befb7493r			; -0.491124
	DD	03f4b6e76r			; 0.794654
	DD	03e0c596cr			; 0.13706
	DD	0be9f5a87r			; -0.311238
	DD	03ebbaa17r			; 0.366532
	DD	03f4e9464r			; 0.806952
	DD	03e927f43r			; 0.286127
	DD	03eb6b15fr			; 0.356822
	DD	0befb7494r			; -0.491124
	DD	03f4b6e78r			; 0.794654
	DD	03eb3b959r			; 0.351023
	DD	0bde99579r			; -0.114055
	DD	03eacb320r			; 0.337304
	DD	03f60cfddr			; 0.878172
	DD	03eda7e68r			; 0.426746
	DD	03f123a06r			; 0.571198
	DD	0be974ccer			; -0.295508
	DD	03f4409b2r			; 0.765773
	DD	03e7fffffr			; 0.25
	DD	0bda65bf1r			; -0.0812301
	DD	03ed9c440r			; 0.425325
	DD	03f55a698r			; 0.834573
	DD	03ee567ber			; 0.448057
	DD	03f123a06r			; 0.571198
	DD	0be974ccer			; -0.295508
	DD	03f4409b2r			; 0.765773
	DD	03e81de7dr			; 0.253651
	DD	0be67f75br			; -0.22653
	DD	03ebbaa17r			; 0.366532
	DD	03f58aa17r			; 0.846345
	DD	03eb35ecdr			; 0.350333
	DD	03f123a06r			; 0.571198
	DD	0be974ccer			; -0.295508
	DD	03f4409b2r			; 0.765773
	DD	03e051077r			; 0.129946
	DD	0bed29738r			; -0.41131
	DD	03e8176e3r			; 0.25286
	DD	03f535763r			; 0.825552
	DD	03e4521bfr			; 0.192512
	DD	03dcc3e37r			; 0.099728
	DD	0bf51f050r			; -0.820073
	DD	03f1041abr			; 0.563502
	DD	000000000r			; 0
	DD	0bebcf91ar			; -0.369088
	DD	03eacb31fr			; 0.337304
	DD	03f400000r			; 0.75
	DD	03e71580ar			; 0.235687
	DD	03dcc3e37r			; 0.099728
	DD	0bf51f04fr			; -0.820073
	DD	03f1041aar			; 0.563502
	DD	000000000r			; 0
	DD	0bee4f931r			; -0.447214
	DD	03e64f91fr			; 0.223607
	DD	03f400000r			; 0.75
	DD	03e17201er			; 0.147583
	DD	03dcc3e35r			; 0.099728
	DD	0bf51f04fr			; -0.820073
	DD	03f1041aar			; 0.563502
	DD	03e7fffffr			; 0.25
	DD	0beb02d4fr			; -0.344096
	DD	03e869648r			; 0.262865
	DD	03f5efa68r			; 0.871008
	DD	03e844da7r			; 0.258405
	DD	03eb2cb7br			; 0.349209
	DD	0bf36cc80r			; -0.714058
	DD	03f1b558ar			; 0.606774
	DD	03e0c596cr			; 0.13706
	DD	0be9f5a87r			; -0.311238
	DD	03ebbaa17r			; 0.366532
	DD	03f4e9464r			; 0.806952
	DD	03e927f43r			; 0.286127
	DD	03eb2cb7ar			; 0.349209
	DD	0bf36cc7fr			; -0.714058
	DD	03f1b558ar			; 0.606774
	DD	03e051077r			; 0.129946
	DD	0bed29738r			; -0.41131
	DD	03e8176e3r			; 0.25286
	DD	03f535763r			; 0.825552
	DD	03e4521bfr			; 0.192512
	DD	03eb2cb7br			; 0.349209
	DD	0bf36cc80r			; -0.714058
	DD	03f1b558ar			; 0.606774
	DD	03eb3b959r			; 0.351023
	DD	0be805a1fr			; -0.250688
	DD	03e8176e4r			; 0.25286
	DD	03f6690car			; 0.900647
	DD	03eaa6864r			; 0.332828
	DD	03f123a05r			; 0.571198
	DD	0bf0d8293r			; -0.552774
	DD	03f1b5587r			; 0.606774
	DD	03e81de7dr			; 0.253651
	DD	0be67f75br			; -0.22653
	DD	03ebbaa17r			; 0.366532
	DD	03f58aa17r			; 0.846345
	DD	03eb35ecdr			; 0.350333
	DD	03f123a05r			; 0.571198
	DD	0bf0d8294r			; -0.552774
	DD	03f1b5587r			; 0.606774
	DD	03e7fffffr			; 0.25
	DD	0beb02d4fr			; -0.344096
	DD	03e869648r			; 0.262865
	DD	03f5efa68r			; 0.871008
	DD	03e844da7r			; 0.258405
	DD	03f123a04r			; 0.571198
	DD	0bf0d8293r			; -0.552774
	DD	03f1b5586r			; 0.606774
	DD	03ed9c441r			; 0.425325
	DD	0be0d8379r			; -0.138197
	DD	03e64f921r			; 0.223607
	DD	03f6c477er			; 0.922966
	DD	03ed25c53r			; 0.410861
	DD	03f3fc632r			; 0.749118
	DD	0beb24fa8r			; -0.348264
	DD	03f1041adr			; 0.563502
	DD	03eb3b959r			; 0.351023
	DD	0bde99579r			; -0.114055
	DD	03eacb320r			; 0.337304
	DD	03f60cfddr			; 0.878172
	DD	03eda7e68r			; 0.426746
	DD	03f3fc630r			; 0.749118
	DD	0beb24fa8r			; -0.348264
	DD	03f1041acr			; 0.563502
	DD	03eb3b959r			; 0.351023
	DD	0be805a1fr			; -0.250688
	DD	03e8176e4r			; 0.25286
	DD	03f6690car			; 0.900647
	DD	03eaa6864r			; 0.332828
	DD	03f3fc630r			; 0.749118
	DD	0beb24fa8r			; -0.348264
	DD	03f1041adr			; 0.563502
	DD	03e051074r			; 0.129946
	DD	0bd2cf0ebr			; -0.0422219
	DD	03ef6419cr			; 0.480969
	DD	03f4ac04fr			; 0.791997
	DD	03ef238acr			; 0.473089
	DD	03e35016er			; 0.176763
	DD	0be792208r			; -0.243294
	DD	03f742656r			; 0.95371
	DD	000000000r			; 0
	DD	0be0be97fr			; -0.136633
	DD	03ef6419cr			; 0.480969
	DD	03f400000r			; 0.75
	DD	03ed2e40dr			; 0.411896
	DD	03e35016er			; 0.176763
	DD	0be792208r			; -0.243294
	DD	03f742656r			; 0.95371
	DD	03e0c596br			; 0.13706
	DD	0be412ca1r			; -0.188647
	DD	03ee274cdr			; 0.442297
	DD	03f4c3e4er			; 0.797826
	DD	03ec0f31br			; 0.376855
	DD	03e35016fr			; 0.176763
	DD	0be792208r			; -0.243294
	DD	03f742658r			; 0.95371
	DD	03e0c596br			; 0.13706
	DD	0be412ca1r			; -0.188647
	DD	03ee274cdr			; 0.442297
	DD	03f4c3e4er			; 0.797826
	DD	03ec0f31br			; 0.376855
	DD	03e34c594r			; 0.176535
	DD	0bf047935r			; -0.517474
	DD	03f5658acr			; 0.837291
	DD	000000000r			; 0
	DD	0be869652r			; -0.262866
	DD	03ed9c440r			; 0.425325
	DD	03f400000r			; 0.75
	DD	03ea5c809r			; 0.323792
	DD	03e34c596r			; 0.176535
	DD	0bf047936r			; -0.517475
	DD	03f5658aer			; 0.837291
	DD	03e0c596cr			; 0.13706
	DD	0be9f5a87r			; -0.311238
	DD	03ebbaa17r			; 0.366532
	DD	03f4e9464r			; 0.806952
	DD	03e927f43r			; 0.286127
	DD	03e34c595r			; 0.176535
	DD	0bf047936r			; -0.517475
	DD	03f5658adr			; 0.837291
	DD	03e7fffffr			; 0.25
	DD	0bda65bf1r			; -0.0812301
	DD	03ed9c440r			; 0.425325
	DD	03f55a698r			; 0.834573
	DD	03ee567ber			; 0.448057
	DD	03ee00c73r			; 0.437595
	DD	0bea7d5d3r			; -0.327803
	DD	03f5658afr			; 0.837291
	DD	03e0c596br			; 0.13706
	DD	0be412ca1r			; -0.188647
	DD	03ee274cdr			; 0.442297
	DD	03f4c3e4er			; 0.797826
	DD	03ec0f31br			; 0.376855
	DD	03ee00c73r			; 0.437595
	DD	0bea7d5d4r			; -0.327803
	DD	03f5658b0r			; 0.837291
	DD	03e81de7dr			; 0.253651
	DD	0be67f75br			; -0.22653
	DD	03ebbaa17r			; 0.366532
	DD	03f58aa17r			; 0.846345
	DD	03eb35ecdr			; 0.350333
	DD	03ee00c73r			; 0.437595
	DD	0bea7d5d5r			; -0.327803
	DD	03f5658afr			; 0.837291
	DD	03e0c596cr			; 0.13706
	DD	0be9f5a87r			; -0.311238
	DD	03ebbaa17r			; 0.366532
	DD	03f4e9464r			; 0.806952
	DD	03e927f43r			; 0.286127
	DD	03e35016br			; 0.176763
	DD	0bf3e8538r			; -0.74422
	DD	03f24e512r			; 0.64412
	DD	000000000r			; 0
	DD	0bebcf91ar			; -0.369088
	DD	03eacb31fr			; 0.337304
	DD	03f400000r			; 0.75
	DD	03e71580ar			; 0.235687
	DD	03e35016br			; 0.176763
	DD	0bf3e8538r			; -0.74422
	DD	03f24e512r			; 0.64412
	DD	03e051077r			; 0.129946
	DD	0bed29738r			; -0.41131
	DD	03e8176e3r			; 0.25286
	DD	03f535763r			; 0.825552
	DD	03e4521bfr			; 0.192512
	DD	03e35016br			; 0.176763
	DD	0bf3e8538r			; -0.74422
	DD	03f24e513r			; 0.64412
	DD	03e81de7dr			; 0.253651
	DD	0be67f75br			; -0.22653
	DD	03ebbaa17r			; 0.366532
	DD	03f58aa17r			; 0.846345
	DD	03eb35ecdr			; 0.350333
	DD	03ee00c70r			; 0.437595
	DD	0bf1a3038r			; -0.602298
	DD	03f2aeaacr			; 0.667643
	DD	03e0c596cr			; 0.13706
	DD	0be9f5a87r			; -0.311238
	DD	03ebbaa17r			; 0.366532
	DD	03f4e9464r			; 0.806952
	DD	03e927f43r			; 0.286127
	DD	03ee00c70r			; 0.437595
	DD	0bf1a3038r			; -0.602298
	DD	03f2aeaacr			; 0.667643
	DD	03e7fffffr			; 0.25
	DD	0beb02d4fr			; -0.344096
	DD	03e869648r			; 0.262865
	DD	03f5efa68r			; 0.871008
	DD	03e844da7r			; 0.258405
	DD	03ee00c6fr			; 0.437595
	DD	0bf1a3037r			; -0.602298
	DD	03f2aeaacr			; 0.667643
	DD	03eb3b959r			; 0.351023
	DD	0bde99579r			; -0.114055
	DD	03eacb320r			; 0.337304
	DD	03f60cfddr			; 0.878172
	DD	03eda7e68r			; 0.426746
	DD	03f273651r			; 0.653173
	DD	0becbd24br			; -0.398089
	DD	03f24e510r			; 0.64412
	DD	03e81de7dr			; 0.253651
	DD	0be67f75br			; -0.22653
	DD	03ebbaa17r			; 0.366532
	DD	03f58aa17r			; 0.846345
	DD	03eb35ecdr			; 0.350333
	DD	03f273652r			; 0.653173
	DD	0becbd24br			; -0.398089
	DD	03f24e512r			; 0.64412
	DD	03eb3b959r			; 0.351023
	DD	0be805a1fr			; -0.250688
	DD	03e8176e4r			; 0.25286
	DD	03f6690car			; 0.900647
	DD	03eaa6864r			; 0.332828
	DD	03f273652r			; 0.653173
	DD	0becbd24br			; -0.398089
	DD	03f24e511r			; 0.64412
	DD	000000000r			; 0
	DD	0be0be97fr			; -0.136633
	DD	03ef6419cr			; 0.480969
	DD	03f400000r			; 0.75
	DD	03ed2e40dr			; 0.411896
	DD	0bdcc3e39r			; -0.0997281
	DD	0be0c8eebr			; -0.137264
	DD	03f7c49d1r			; 0.985501
	DD	000000000r			; 0
	DD	000000000r			; 0
	DD	03f000000r			; 0.5
	DD	03f400000r			; 0.75
	DD	03f000000r			; 0.5
	DD	0bdcc3e38r			; -0.099728
	DD	0be0c8eear			; -0.137264
	DD	03f7c49d0r			; 0.985501
	DD	0be051074r			; -0.129946
	DD	0bd2cf0ebr			; -0.0422219
	DD	03ef6419cr			; 0.480969
	DD	03f353fb1r			; 0.708003
	DD	03ef238acr			; 0.473089
	DD	0bdcc3e3ar			; -0.0997281
	DD	0be0c8eebr			; -0.137264
	DD	03f7c49d1r			; 0.985501
	DD	0be0c596br			; -0.13706
	DD	0be412ca1r			; -0.188647
	DD	03ee274cdr			; 0.442297
	DD	03f33c1b2r			; 0.702174
	DD	03ec0f31br			; 0.376855
	DD	0beb2cb7br			; -0.349209
	DD	0be64bd84r			; -0.223379
	DD	03f68f7ber			; 0.91003
	DD	0be051074r			; -0.129946
	DD	0bd2cf0ebr			; -0.0422219
	DD	03ef6419cr			; 0.480969
	DD	03f353fb1r			; 0.708003
	DD	03ef238acr			; 0.473089
	DD	0beb2cb7br			; -0.349209
	DD	0be64bd85r			; -0.223379
	DD	03f68f7ber			; 0.91003
	DD	0be7fffffr			; -0.25
	DD	0bda65bf1r			; -0.0812301
	DD	03ed9c440r			; 0.425325
	DD	03f2a5968r			; 0.665427
	DD	03ee567ber			; 0.448057
	DD	0beb2cb7br			; -0.349209
	DD	0be64bd85r			; -0.223379
	DD	03f68f7bfr			; 0.91003
	DD	000000000r			; 0
	DD	0be869652r			; -0.262866
	DD	03ed9c440r			; 0.425325
	DD	03f400000r			; 0.75
	DD	03ea5c809r			; 0.323792
	DD	0bdd61643r			; -0.104535
	DD	0becd62e8r			; -0.401145
	DD	03f68f7bfr			; 0.91003
	DD	000000000r			; 0
	DD	0be0be97fr			; -0.136633
	DD	03ef6419cr			; 0.480969
	DD	03f400000r			; 0.75
	DD	03ed2e40dr			; 0.411896
	DD	0bdd61644r			; -0.104535
	DD	0becd62e9r			; -0.401145
	DD	03f68f7ber			; 0.91003
	DD	0be0c596br			; -0.13706
	DD	0be412ca1r			; -0.188647
	DD	03ee274cdr			; 0.442297
	DD	03f33c1b2r			; 0.702174
	DD	03ec0f31br			; 0.376855
	DD	0bdd61643r			; -0.104535
	DD	0becd62e9r			; -0.401145
	DD	03f68f7ber			; 0.91003
	DD	0be81de7dr			; -0.253651
	DD	0be67f75br			; -0.22653
	DD	03ebbaa19r			; 0.366532
	DD	03f2755e9r			; 0.653655
	DD	03eb35ecfr			; 0.350333
	DD	0bf123a06r			; -0.571198
	DD	0be974cc3r			; -0.295508
	DD	03f4409b2r			; 0.765773
	DD	0be7fffffr			; -0.25
	DD	0bda65bf1r			; -0.0812301
	DD	03ed9c440r			; 0.425325
	DD	03f2a5968r			; 0.665427
	DD	03ee567ber			; 0.448057
	DD	0bf123a07r			; -0.571198
	DD	0be974cc4r			; -0.295508
	DD	03f4409b3r			; 0.765773
	DD	0beb3b959r			; -0.351023
	DD	0bde99579r			; -0.114055
	DD	03eacb320r			; 0.337304
	DD	03f1f3023r			; 0.621828
	DD	03eda7e68r			; 0.426746
	DD	0bf123a06r			; -0.571198
	DD	0be974cc3r			; -0.295508
	DD	03f4409b2r			; 0.765773
	DD	0be0c596dr			; -0.13706
	DD	0be9f5a88r			; -0.311238
	DD	03ebbaa17r			; 0.366532
	DD	03f316b9cr			; 0.693048
	DD	03e927f43r			; 0.286127
	DD	0beb6b155r			; -0.356822
	DD	0befb748fr			; -0.491124
	DD	03f4b6e79r			; 0.794654
	DD	0be0c596br			; -0.13706
	DD	0be412ca1r			; -0.188647
	DD	03ee274cdr			; 0.442297
	DD	03f33c1b2r			; 0.702174
	DD	03ec0f31br			; 0.376855
	DD	0beb6b155r			; -0.356822
	DD	0befb7491r			; -0.491124
	DD	03f4b6e79r			; 0.794654
	DD	0be81de7dr			; -0.253651
	DD	0be67f75br			; -0.22653
	DD	03ebbaa19r			; 0.366532
	DD	03f2755e9r			; 0.653655
	DD	03eb35ecfr			; 0.350333
	DD	0beb6b156r			; -0.356822
	DD	0befb7492r			; -0.491124
	DD	03f4b6e7br			; 0.794655
	DD	000000000r			; 0
	DD	0bebcf91ar			; -0.369088
	DD	03eacb31fr			; 0.337304
	DD	03f400000r			; 0.75
	DD	03e71580ar			; 0.235687
	DD	0bdd61633r			; -0.104535
	DD	0bf22726dr			; -0.634558
	DD	03f4409afr			; 0.765773
	DD	000000000r			; 0
	DD	0be869652r			; -0.262866
	DD	03ed9c440r			; 0.425325
	DD	03f400000r			; 0.75
	DD	03ea5c809r			; 0.323792
	DD	0bdd61634r			; -0.104535
	DD	0bf22726er			; -0.634559
	DD	03f4409b0r			; 0.765773
	DD	0be0c596dr			; -0.13706
	DD	0be9f5a88r			; -0.311238
	DD	03ebbaa17r			; 0.366532
	DD	03f316b9cr			; 0.693048
	DD	03e927f43r			; 0.286127
	DD	0bdd61634r			; -0.104535
	DD	0bf22726fr			; -0.634559
	DD	03f4409b0r			; 0.765773
	DD	0beb3b959r			; -0.351023
	DD	0be805a1fr			; -0.250688
	DD	03e8176e4r			; 0.25286
	DD	03f196f36r			; 0.599353
	DD	03eaa6864r			; 0.332828
	DD	0bf3fc62fr			; -0.749118
	DD	0beb24fa7r			; -0.348264
	DD	03f1041adr			; 0.563502
	DD	0beb3b959r			; -0.351023
	DD	0bde99579r			; -0.114055
	DD	03eacb320r			; 0.337304
	DD	03f1f3023r			; 0.621828
	DD	03eda7e68r			; 0.426746
	DD	0bf3fc62fr			; -0.749118
	DD	0beb24fa7r			; -0.348264
	DD	03f1041acr			; 0.563502
	DD	0bed9c441r			; -0.425325
	DD	0be0d8379r			; -0.138197
	DD	03e64f921r			; 0.223607
	DD	03f13b882r			; 0.577034
	DD	03ed25c53r			; 0.410861
	DD	0bf3fc630r			; -0.749118
	DD	0beb24fa7r			; -0.348264
	DD	03f1041adr			; 0.563502
	DD	0be7fffffr			; -0.25
	DD	0beb02d4fr			; -0.344096
	DD	03e869648r			; 0.262865
	DD	03f210598r			; 0.628992
	DD	03e844da7r			; 0.258405
	DD	0bf123a06r			; -0.571198
	DD	0bf0d8296r			; -0.552774
	DD	03f1b5583r			; 0.606774
	DD	0be81de7dr			; -0.253651
	DD	0be67f75br			; -0.22653
	DD	03ebbaa19r			; 0.366532
	DD	03f2755e9r			; 0.653655
	DD	03eb35ecfr			; 0.350333
	DD	0bf123a07r			; -0.571198
	DD	0bf0d8297r			; -0.552774
	DD	03f1b5583r			; 0.606774
	DD	0beb3b959r			; -0.351023
	DD	0be805a1fr			; -0.250688
	DD	03e8176e4r			; 0.25286
	DD	03f196f36r			; 0.599353
	DD	03eaa6864r			; 0.332828
	DD	0bf123a06r			; -0.571198
	DD	0bf0d8296r			; -0.552774
	DD	03f1b5583r			; 0.606774
	DD	0be051077r			; -0.129946
	DD	0bed29738r			; -0.41131
	DD	03e8176e3r			; 0.25286
	DD	03f2ca89dr			; 0.674448
	DD	03e4521bfr			; 0.192512
	DD	0beb2cb7er			; -0.349209
	DD	0bf36cc82r			; -0.714058
	DD	03f1b5586r			; 0.606774
	DD	0be0c596dr			; -0.13706
	DD	0be9f5a88r			; -0.311238
	DD	03ebbaa17r			; 0.366532
	DD	03f316b9cr			; 0.693048
	DD	03e927f43r			; 0.286127
	DD	0beb2cb7er			; -0.349209
	DD	0bf36cc82r			; -0.714058
	DD	03f1b5586r			; 0.606774
	DD	0be7fffffr			; -0.25
	DD	0beb02d4fr			; -0.344096
	DD	03e869648r			; 0.262865
	DD	03f210598r			; 0.628992
	DD	03e844da7r			; 0.258405
	DD	0beb2cb7fr			; -0.349209
	DD	0bf36cc83r			; -0.714058
	DD	03f1b5586r			; 0.606774
	DD	000000000r			; 0
	DD	0bee4f931r			; -0.447214
	DD	03e64f91fr			; 0.223607
	DD	03f400000r			; 0.75
	DD	03e17201er			; 0.147583
	DD	0bdcc3e36r			; -0.099728
	DD	0bf51f04fr			; -0.820073
	DD	03f1041aar			; 0.563502
	DD	000000000r			; 0
	DD	0bebcf91ar			; -0.369088
	DD	03eacb31fr			; 0.337304
	DD	03f400000r			; 0.75
	DD	03e71580ar			; 0.235687
	DD	0bdcc3e38r			; -0.099728
	DD	0bf51f04fr			; -0.820073
	DD	03f1041aar			; 0.563502
	DD	0be051077r			; -0.129946
	DD	0bed29738r			; -0.41131
	DD	03e8176e3r			; 0.25286
	DD	03f2ca89dr			; 0.674448
	DD	03e4521bfr			; 0.192512
	DD	0bdcc3e38r			; -0.099728
	DD	0bf51f050r			; -0.820073
	DD	03f1041abr			; 0.563502
	DD	000000000r			; 0
	DD	0be0be97fr			; -0.136633
	DD	03ef6419cr			; 0.480969
	DD	03f400000r			; 0.75
	DD	03ed2e40dr			; 0.411896
	DD	0be35016er			; -0.176763
	DD	0be792208r			; -0.243294
	DD	03f742656r			; 0.95371
	DD	0be051074r			; -0.129946
	DD	0bd2cf0ebr			; -0.0422219
	DD	03ef6419cr			; 0.480969
	DD	03f353fb1r			; 0.708003
	DD	03ef238acr			; 0.473089
	DD	0be35016er			; -0.176763
	DD	0be792208r			; -0.243294
	DD	03f742656r			; 0.95371
	DD	0be0c596br			; -0.13706
	DD	0be412ca1r			; -0.188647
	DD	03ee274cdr			; 0.442297
	DD	03f33c1b2r			; 0.702174
	DD	03ec0f31br			; 0.376855
	DD	0be35016fr			; -0.176763
	DD	0be792208r			; -0.243294
	DD	03f742658r			; 0.95371
	DD	0be0c596br			; -0.13706
	DD	0be412ca1r			; -0.188647
	DD	03ee274cdr			; 0.442297
	DD	03f33c1b2r			; 0.702174
	DD	03ec0f31br			; 0.376855
	DD	0bee00c6cr			; -0.437595
	DD	0bea7d5car			; -0.327803
	DD	03f5658b3r			; 0.837291
	DD	0be7fffffr			; -0.25
	DD	0bda65bf1r			; -0.0812301
	DD	03ed9c440r			; 0.425325
	DD	03f2a5968r			; 0.665427
	DD	03ee567ber			; 0.448057
	DD	0bee00c6cr			; -0.437595
	DD	0bea7d5c9r			; -0.327803
	DD	03f5658b2r			; 0.837291
	DD	0be81de7dr			; -0.253651
	DD	0be67f75br			; -0.22653
	DD	03ebbaa19r			; 0.366532
	DD	03f2755e9r			; 0.653655
	DD	03eb35ecfr			; 0.350333
	DD	0bee00c6cr			; -0.437595
	DD	0bea7d5c9r			; -0.327803
	DD	03f5658b3r			; 0.837291
	DD	000000000r			; 0
	DD	0be869652r			; -0.262866
	DD	03ed9c440r			; 0.425325
	DD	03f400000r			; 0.75
	DD	03ea5c809r			; 0.323792
	DD	0be34c592r			; -0.176535
	DD	0bf047934r			; -0.517474
	DD	03f5658aer			; 0.837291
	DD	0be0c596br			; -0.13706
	DD	0be412ca1r			; -0.188647
	DD	03ee274cdr			; 0.442297
	DD	03f33c1b2r			; 0.702174
	DD	03ec0f31br			; 0.376855
	DD	0be34c593r			; -0.176535
	DD	0bf047934r			; -0.517474
	DD	03f5658aer			; 0.837291
	DD	0be0c596dr			; -0.13706
	DD	0be9f5a88r			; -0.311238
	DD	03ebbaa17r			; 0.366532
	DD	03f316b9cr			; 0.693048
	DD	03e927f43r			; 0.286127
	DD	0be34c593r			; -0.176535
	DD	0bf047934r			; -0.517474
	DD	03f5658aer			; 0.837291
	DD	0be81de7dr			; -0.253651
	DD	0be67f75br			; -0.22653
	DD	03ebbaa19r			; 0.366532
	DD	03f2755e9r			; 0.653655
	DD	03eb35ecfr			; 0.350333
	DD	0bf273655r			; -0.653173
	DD	0becbd247r			; -0.398089
	DD	03f24e50dr			; 0.64412
	DD	0beb3b959r			; -0.351023
	DD	0bde99579r			; -0.114055
	DD	03eacb320r			; 0.337304
	DD	03f1f3023r			; 0.621828
	DD	03eda7e68r			; 0.426746
	DD	0bf273655r			; -0.653173
	DD	0becbd246r			; -0.398089
	DD	03f24e50dr			; 0.64412
	DD	0beb3b959r			; -0.351023
	DD	0be805a1fr			; -0.250688
	DD	03e8176e4r			; 0.25286
	DD	03f196f36r			; 0.599353
	DD	03eaa6864r			; 0.332828
	DD	0bf273656r			; -0.653173
	DD	0becbd249r			; -0.398089
	DD	03f24e50er			; 0.64412
	DD	0be0c596dr			; -0.13706
	DD	0be9f5a88r			; -0.311238
	DD	03ebbaa17r			; 0.366532
	DD	03f316b9cr			; 0.693048
	DD	03e927f43r			; 0.286127
	DD	0bee00c70r			; -0.437595
	DD	0bf1a303br			; -0.602298
	DD	03f2aeaa8r			; 0.667643
	DD	0be81de7dr			; -0.253651
	DD	0be67f75br			; -0.22653
	DD	03ebbaa19r			; 0.366532
	DD	03f2755e9r			; 0.653655
	DD	03eb35ecfr			; 0.350333
	DD	0bee00c72r			; -0.437595
	DD	0bf1a303cr			; -0.602298
	DD	03f2aeaa9r			; 0.667643
	DD	0be7fffffr			; -0.25
	DD	0beb02d4fr			; -0.344096
	DD	03e869648r			; 0.262865
	DD	03f210598r			; 0.628992
	DD	03e844da7r			; 0.258405
	DD	0bee00c70r			; -0.437595
	DD	0bf1a303br			; -0.602298
	DD	03f2aeaa8r			; 0.667643
	DD	000000000r			; 0
	DD	0bebcf91ar			; -0.369088
	DD	03eacb31fr			; 0.337304
	DD	03f400000r			; 0.75
	DD	03e71580ar			; 0.235687
	DD	0be350164r			; -0.176763
	DD	0bf3e8539r			; -0.74422
	DD	03f24e50er			; 0.64412
	DD	0be0c596dr			; -0.13706
	DD	0be9f5a88r			; -0.311238
	DD	03ebbaa17r			; 0.366532
	DD	03f316b9cr			; 0.693048
	DD	03e927f43r			; 0.286127
	DD	0be350165r			; -0.176763
	DD	0bf3e8539r			; -0.74422
	DD	03f24e50fr			; 0.64412
	DD	0be051077r			; -0.129946
	DD	0bed29738r			; -0.41131
	DD	03e8176e3r			; 0.25286
	DD	03f2ca89dr			; 0.674448
	DD	03e4521bfr			; 0.192512
	DD	0be350166r			; -0.176763
	DD	0bf3e853br			; -0.74422
	DD	03f24e510r			; 0.64412
	DD	0be051074r			; -0.129946
	DD	0bd2cf0ebr			; -0.0422219
	DD	03ef6419cr			; 0.480969
	DD	03f353fb1r			; 0.708003
	DD	03ef238acr			; 0.473089
	DD	0be253c79r			; -0.161363
	DD	03d56c100r			; 0.0524302
	DD	03f7c49d0r			; 0.985501
	DD	000000000r			; 0
	DD	000000000r			; 0
	DD	03f000000r			; 0.5
	DD	03f400000r			; 0.75
	DD	03f000000r			; 0.5
	DD	0be253c7ar			; -0.161364
	DD	03d56c101r			; 0.0524302
	DD	03f7c49d1r			; 0.985501
	DD	0bda479fbr			; -0.0803108
	DD	03de261ear			; 0.110538
	DD	03ef6419cr			; 0.480969
	DD	03f39424ar			; 0.723668
	DD	03f122a3fr			; 0.570957
	DD	0be253c79r			; -0.161363
	DD	03d56c101r			; 0.0524302
	DD	03f7c49d1r			; 0.985501
	DD	0be631708r			; -0.221768
	DD	03d939266r			; 0.0720566
	DD	03ee274cfr			; 0.442297
	DD	03f2d1050r			; 0.67603
	DD	03f0bc8d1r			; 0.546033
	DD	0bea405e2r			; -0.320357
	DD	03e86b3a4r			; 0.263089
	DD	03f68f7ber			; 0.91003
	DD	0bda479fbr			; -0.0803108
	DD	03de261ear			; 0.110538
	DD	03ef6419cr			; 0.480969
	DD	03f39424ar			; 0.723668
	DD	03f122a3fr			; 0.570957
	DD	0bea405e2r			; -0.320357
	DD	03e86b3a3r			; 0.263089
	DD	03f68f7bfr			; 0.91003
	DD	0be1e377ar			; -0.154509
	DD	03e59c441r			; 0.212663
	DD	03ed9c441r			; 0.425325
	DD	03f31cd8dr			; 0.694543
	DD	03f23cc94r			; 0.63984
	DD	0bea405e2r			; -0.320357
	DD	03e86b3a4r			; 0.263089
	DD	03f68f7bfr			; 0.91003
	DD	0be7fffffr			; -0.25
	DD	0bda65bf1r			; -0.0812301
	DD	03ed9c440r			; 0.425325
	DD	03f2a5968r			; 0.665427
	DD	03ee567ber			; 0.448057
	DD	0bed3df85r			; -0.413815
	DD	0bcc90dbdr			; -0.0245427
	DD	03f68f7bdr			; 0.91003
	DD	0be051074r			; -0.129946
	DD	0bd2cf0ebr			; -0.0422219
	DD	03ef6419cr			; 0.480969
	DD	03f353fb1r			; 0.708003
	DD	03ef238acr			; 0.473089
	DD	0bed3df86r			; -0.413815
	DD	0bcc90dber			; -0.0245427
	DD	03f68f7ber			; 0.91003
	DD	0be631708r			; -0.221768
	DD	03d939266r			; 0.0720566
	DD	03ee274cfr			; 0.442297
	DD	03f2d1050r			; 0.67603
	DD	03f0bc8d1r			; 0.546033
	DD	0bed3df86r			; -0.413815
	DD	0bcc90dber			; -0.0245427
	DD	03f68f7ber			; 0.91003
	DD	0be96702dr			; -0.293825
	DD	03e2f581dr			; 0.171235
	DD	03ebbaa1ar			; 0.366532
	DD	03f2477d0r			; 0.642453
	DD	03f1c7bbfr			; 0.611263
	DD	0beea4493r			; -0.457554
	DD	03ee762a3r			; 0.451924
	DD	03f4409b3r			; 0.765773
	DD	0be1e377ar			; -0.154509
	DD	03e59c441r			; 0.212663
	DD	03ed9c441r			; 0.425325
	DD	03f31cd8dr			; 0.694543
	DD	03f23cc94r			; 0.63984
	DD	0beea4494r			; -0.457554
	DD	03ee762a3r			; 0.451924
	DD	03f4409b3r			; 0.765773
	DD	0be5e26b0r			; -0.216944
	DD	03e98e1e6r			; 0.298598
	DD	03eacb321r			; 0.337304
	DD	03f28b66ar			; 0.659033
	DD	03f3426edr			; 0.703719
	DD	0beea4493r			; -0.457554
	DD	03ee762a3r			; 0.451924
	DD	03f4409b3r			; 0.765773
	DD	0bead3d4cr			; -0.338358
	DD	03d0bf9f1r			; 0.0341739
	DD	03ebbaa1ar			; 0.366532
	DD	03f21a0acr			; 0.631358
	DD	03f0592e6r			; 0.521773
	DD	0bf13cd3dr			; -0.57735
	DD	03e40183fr			; 0.187592
	DD	03f4b6e77r			; 0.794654
	DD	0be631708r			; -0.221768
	DD	03d939266r			; 0.0720566
	DD	03ee274cfr			; 0.442297
	DD	03f2d1050r			; 0.67603
	DD	03f0bc8d1r			; 0.546033
	DD	0bf13cd3dr			; -0.57735
	DD	03e40183fr			; 0.187592
	DD	03f4b6e77r			; 0.794654
	DD	0be96702dr			; -0.293825
	DD	03e2f581dr			; 0.171235
	DD	03ebbaa1ar			; 0.366532
	DD	03f2477d0r			; 0.642453
	DD	03f1c7bbfr			; 0.611263
	DD	0bf13cd3dr			; -0.57735
	DD	03e40183fr			; 0.187592
	DD	03f4b6e77r			; 0.794654
	DD	0beb3b959r			; -0.351023
	DD	0bde99579r			; -0.114055
	DD	03eacb320r			; 0.337304
	DD	03f1f3023r			; 0.621828
	DD	03eda7e68r			; 0.426746
	DD	0bf22c409r			; -0.635804
	DD	0bdc5fba9r			; -0.0966714
	DD	03f4409b2r			; 0.765773
	DD	0be7fffffr			; -0.25
	DD	0bda65bf1r			; -0.0812301
	DD	03ed9c440r			; 0.425325
	DD	03f2a5968r			; 0.665427
	DD	03ee567ber			; 0.448057
	DD	0bf22c40ar			; -0.635804
	DD	0bdc5fbabr			; -0.0966714
	DD	03f4409b3r			; 0.765773
	DD	0bead3d4cr			; -0.338358
	DD	03d0bf9f1r			; 0.0341739
	DD	03ebbaa1ar			; 0.366532
	DD	03f21a0acr			; 0.631358
	DD	03f0592e6r			; 0.521773
	DD	0bf22c409r			; -0.635804
	DD	0bdc5fbabr			; -0.0966714
	DD	03f4409b3r			; 0.765773
	DD	0beb19b96r			; -0.34689
	DD	03e8343c9r			; 0.256377
	DD	03e8176e5r			; 0.25286
	DD	03f19a9e9r			; 0.600249
	DD	03f2bdf31r			; 0.671374
	DD	0bf100db0r			; -0.562709
	DD	03f1ad668r			; 0.604834
	DD	03f1041abr			; 0.563502
	DD	0be5e26b0r			; -0.216944
	DD	03e98e1e6r			; 0.298598
	DD	03eacb321r			; 0.337304
	DD	03f28b66ar			; 0.659033
	DD	03f3426edr			; 0.703719
	DD	0bf100dafr			; -0.562709
	DD	03f1ad668r			; 0.604834
	DD	03f1041abr			; 0.563502
	DD	0be869652r			; -0.262866
	DD	03eb93e4er			; 0.361803
	DD	03e64f923r			; 0.223607
	DD	03f1cb813r			; 0.612184
	DD	03f41eca5r			; 0.757517
	DD	0bf100dafr			; -0.562709
	DD	03f1ad668r			; 0.604834
	DD	03f1041abr			; 0.563502
	DD	0becf1bc1r			; -0.404509
	DD	03e06964br			; 0.131433
	DD	03e86964br			; 0.262865
	DD	03f177aa1r			; 0.591715
	DD	03f15acc5r			; 0.584668
	DD	0bf33c53fr			; -0.702228
	DD	03ebeae7fr			; 0.372425
	DD	03f1b5589r			; 0.606774
	DD	0be96702dr			; -0.293825
	DD	03e2f581dr			; 0.171235
	DD	03ebbaa1ar			; 0.366532
	DD	03f2477d0r			; 0.642453
	DD	03f1c7bbfr			; 0.611263
	DD	0bf33c53fr			; -0.702228
	DD	03ebeae7er			; 0.372425
	DD	03f1b5589r			; 0.606774
	DD	0beb19b96r			; -0.34689
	DD	03e8343c9r			; 0.256377
	DD	03e8176e5r			; 0.25286
	DD	03f19a9e9r			; 0.600249
	DD	03f2bdf31r			; 0.671374
	DD	0bf33c53fr			; -0.702228
	DD	03ebeae80r			; 0.372425
	DD	03f1b558ar			; 0.606774
	DD	0bedcd7dcr			; -0.431334
	DD	0bb667124r			; -0.00351627
	DD	03e8176e5r			; 0.25286
	DD	03f159a83r			; 0.584389
	DD	03efeda97r			; 0.497761
	DD	0bf497a35r			; -0.787021
	DD	03de445afr			; 0.111461
	DD	03f1b5587r			; 0.606774
	DD	0bead3d4cr			; -0.338358
	DD	03d0bf9f1r			; 0.0341739
	DD	03ebbaa1ar			; 0.366532
	DD	03f21a0acr			; 0.631358
	DD	03f0592e6r			; 0.521773
	DD	0bf497a35r			; -0.787021
	DD	03de445afr			; 0.111461
	DD	03f1b5587r			; 0.606774
	DD	0becf1bc1r			; -0.404509
	DD	03e06964br			; 0.131433
	DD	03e86964br			; 0.262865
	DD	03f177aa1r			; 0.591715
	DD	03f15acc5r			; 0.584668
	DD	0bf497a35r			; -0.787021
	DD	03de445aer			; 0.111461
	DD	03f1b5588r			; 0.606774
	DD	0bed9c441r			; -0.425325
	DD	0be0d8379r			; -0.138197
	DD	03e64f921r			; 0.223607
	DD	03f13b882r			; 0.577034
	DD	03ed25c53r			; 0.410861
	DD	0bf4f8d8ar			; -0.810753
	DD	0be226018r			; -0.15857
	DD	03f1041acr			; 0.563502
	DD	0beb3b959r			; -0.351023
	DD	0bde99579r			; -0.114055
	DD	03eacb320r			; 0.337304
	DD	03f1f3023r			; 0.621828
	DD	03eda7e68r			; 0.426746
	DD	0bf4f8d89r			; -0.810753
	DD	0be226015r			; -0.15857
	DD	03f1041abr			; 0.563502
	DD	0bedcd7dcr			; -0.431334
	DD	0bb667124r			; -0.00351627
	DD	03e8176e5r			; 0.25286
	DD	03f159a83r			; 0.584389
	DD	03efeda97r			; 0.497761
	DD	0bf4f8d89r			; -0.810753
	DD	0be226017r			; -0.15857
	DD	03f1041abr			; 0.563502
	DD	0be051074r			; -0.129946
	DD	0bd2cf0ebr			; -0.0422219
	DD	03ef6419cr			; 0.480969
	DD	03f353fb1r			; 0.708003
	DD	03ef238acr			; 0.473089
	DD	0be926fbbr			; -0.286009
	DD	03dbe51fbr			; 0.0929298
	DD	03f74265ar			; 0.95371
	DD	0bda479fbr			; -0.0803108
	DD	03de261ear			; 0.110538
	DD	03ef6419cr			; 0.480969
	DD	03f39424ar			; 0.723668
	DD	03f122a3fr			; 0.570957
	DD	0be926fbbr			; -0.286009
	DD	03dbe51fbr			; 0.0929298
	DD	03f74265ar			; 0.95371
	DD	0be631708r			; -0.221768
	DD	03d939266r			; 0.0720566
	DD	03ee274cfr			; 0.442297
	DD	03f2d1050r			; 0.67603
	DD	03f0bc8d1r			; 0.546033
	DD	0be926fbbr			; -0.286009
	DD	03dbe51fbr			; 0.0929298
	DD	03f742659r			; 0.95371
	DD	0be631708r			; -0.221768
	DD	03d939266r			; 0.0720566
	DD	03ee274cfr			; 0.442297
	DD	03f2d1050r			; 0.67603
	DD	03f0bc8d1r			; 0.546033
	DD	0bee4db09r			; -0.446984
	DD	03ea13813r			; 0.314881
	DD	03f5658afr			; 0.837291
	DD	0be1e377ar			; -0.154509
	DD	03e59c441r			; 0.212663
	DD	03ed9c441r			; 0.425325
	DD	03f31cd8dr			; 0.694543
	DD	03f23cc94r			; 0.63984
	DD	0bee4db09r			; -0.446984
	DD	03ea13812r			; 0.314881
	DD	03f5658aer			; 0.837291
	DD	0be96702dr			; -0.293825
	DD	03e2f581dr			; 0.171235
	DD	03ebbaa1ar			; 0.366532
	DD	03f2477d0r			; 0.642453
	DD	03f1c7bbfr			; 0.611263
	DD	0bee4db09r			; -0.446984
	DD	03ea13813r			; 0.314881
	DD	03f5658afr			; 0.837291
	DD	0be7fffffr			; -0.25
	DD	0bda65bf1r			; -0.0812301
	DD	03ed9c440r			; 0.425325
	DD	03f2a5968r			; 0.665427
	DD	03ee567ber			; 0.448057
	DD	0bf0bf480r			; -0.5467
	DD	03c02d74fr			; 0.0079859
	DD	03f5658b0r			; 0.837291
	DD	0be631708r			; -0.221768
	DD	03d939266r			; 0.0720566
	DD	03ee274cfr			; 0.442297
	DD	03f2d1050r			; 0.67603
	DD	03f0bc8d1r			; 0.546033
	DD	0bf0bf480r			; -0.5467
	DD	03c02d74fr			; 0.0079859
	DD	03f5658b1r			; 0.837291
	DD	0bead3d4cr			; -0.338358
	DD	03d0bf9f1r			; 0.0341739
	DD	03ebbaa1ar			; 0.366532
	DD	03f21a0acr			; 0.631358
	DD	03f0592e6r			; 0.521773
	DD	0bf0bf480r			; -0.5467
	DD	03c02d74fr			; 0.0079859
	DD	03f5658b0r			; 0.837291
	DD	0be96702dr			; -0.293825
	DD	03e2f581dr			; 0.171235
	DD	03ebbaa1ar			; 0.366532
	DD	03f2477d0r			; 0.642453
	DD	03f1c7bbfr			; 0.611263
	DD	0bf149821r			; -0.580446
	DD	03eff1276r			; 0.498188
	DD	03f24e512r			; 0.64412
	DD	0be5e26b0r			; -0.216944
	DD	03e98e1e6r			; 0.298598
	DD	03eacb321r			; 0.337304
	DD	03f28b66ar			; 0.659033
	DD	03f3426edr			; 0.703719
	DD	0bf149822r			; -0.580446
	DD	03eff1276r			; 0.498188
	DD	03f24e513r			; 0.64412
	DD	0beb19b96r			; -0.34689
	DD	03e8343c9r			; 0.256377
	DD	03e8176e5r			; 0.25286
	DD	03f19a9e9r			; 0.600249
	DD	03f2bdf31r			; 0.671374
	DD	0bf149821r			; -0.580446
	DD	03eff1274r			; 0.498188
	DD	03f24e512r			; 0.64412
	DD	0bead3d4cr			; -0.338358
	DD	03d0bf9f1r			; 0.0341739
	DD	03ebbaa1ar			; 0.366532
	DD	03f21a0acr			; 0.631358
	DD	03f0592e6r			; 0.521773
	DD	0bf35425br			; -0.708044
	DD	03e6b9426r			; 0.230057
	DD	03f2aeaafr			; 0.667643
	DD	0be96702dr			; -0.293825
	DD	03e2f581dr			; 0.171235
	DD	03ebbaa1ar			; 0.366532
	DD	03f2477d0r			; 0.642453
	DD	03f1c7bbfr			; 0.611263
	DD	0bf35425ar			; -0.708044
	DD	03e6b9424r			; 0.230057
	DD	03f2aeaaer			; 0.667643
	DD	0becf1bc1r			; -0.404509
	DD	03e06964br			; 0.131433
	DD	03e86964br			; 0.262865
	DD	03f177aa1r			; 0.591715
	DD	03f15acc5r			; 0.584668
	DD	0bf35425ar			; -0.708044
	DD	03e6b9424r			; 0.230057
	DD	03f2aeaaer			; 0.667643
	DD	0beb3b959r			; -0.351023
	DD	0bde99579r			; -0.114055
	DD	03eacb320r			; 0.337304
	DD	03f1f3023r			; 0.621828
	DD	03eda7e68r			; 0.426746
	DD	0bf432ddar			; -0.762418
	DD	0bd7d6672r			; -0.0618653
	DD	03f24e511r			; 0.64412
	DD	0bead3d4cr			; -0.338358
	DD	03d0bf9f1r			; 0.0341739
	DD	03ebbaa1ar			; 0.366532
	DD	03f21a0acr			; 0.631358
	DD	03f0592e6r			; 0.521773
	DD	0bf432ddar			; -0.762418
	DD	0bd7d6673r			; -0.0618653
	DD	03f24e511r			; 0.64412
	DD	0bedcd7dcr			; -0.431334
	DD	0bb667124r			; -0.00351627
	DD	03e8176e5r			; 0.25286
	DD	03f159a83r			; 0.584389
	DD	03efeda97r			; 0.497761
	DD	0bf432ddar			; -0.762418
	DD	0bd7d6672r			; -0.0618653
	DD	03f24e511r			; 0.64412
?sphere_indices@lib3d@@3PAHA DD 00H			; lib3d::sphere_indices
	DD	01H
	DD	02H
	DD	03H
	DD	04H
	DD	05H
	DD	06H
	DD	07H
	DD	08H
	DD	09H
	DD	0aH
	DD	0bH
	DD	0cH
	DD	0dH
	DD	0eH
	DD	0fH
	DD	010H
	DD	011H
	DD	012H
	DD	013H
	DD	014H
	DD	015H
	DD	016H
	DD	017H
	DD	018H
	DD	019H
	DD	01aH
	DD	01bH
	DD	01cH
	DD	01dH
	DD	01eH
	DD	01fH
	DD	020H
	DD	021H
	DD	022H
	DD	023H
	DD	024H
	DD	025H
	DD	026H
	DD	027H
	DD	028H
	DD	029H
	DD	02aH
	DD	02bH
	DD	02cH
	DD	02dH
	DD	02eH
	DD	02fH
	DD	030H
	DD	031H
	DD	032H
	DD	033H
	DD	034H
	DD	035H
	DD	036H
	DD	037H
	DD	038H
	DD	039H
	DD	03aH
	DD	03bH
	DD	03cH
	DD	03dH
	DD	03eH
	DD	03fH
	DD	040H
	DD	041H
	DD	042H
	DD	043H
	DD	044H
	DD	045H
	DD	046H
	DD	047H
	DD	048H
	DD	049H
	DD	04aH
	DD	04bH
	DD	04cH
	DD	04dH
	DD	04eH
	DD	04fH
	DD	050H
	DD	051H
	DD	052H
	DD	053H
	DD	054H
	DD	055H
	DD	056H
	DD	057H
	DD	058H
	DD	059H
	DD	05aH
	DD	05bH
	DD	05cH
	DD	05dH
	DD	05eH
	DD	05fH
	DD	060H
	DD	061H
	DD	062H
	DD	063H
	DD	064H
	DD	065H
	DD	066H
	DD	067H
	DD	068H
	DD	069H
	DD	06aH
	DD	06bH
	DD	06cH
	DD	06dH
	DD	06eH
	DD	06fH
	DD	070H
	DD	071H
	DD	072H
	DD	073H
	DD	074H
	DD	075H
	DD	076H
	DD	077H
	DD	078H
	DD	079H
	DD	07aH
	DD	07bH
	DD	07cH
	DD	07dH
	DD	07eH
	DD	07fH
	DD	080H
	DD	081H
	DD	082H
	DD	083H
	DD	084H
	DD	085H
	DD	086H
	DD	087H
	DD	088H
	DD	089H
	DD	08aH
	DD	08bH
	DD	08cH
	DD	08dH
	DD	08eH
	DD	08fH
	DD	090H
	DD	091H
	DD	092H
	DD	093H
	DD	094H
	DD	095H
	DD	096H
	DD	097H
	DD	098H
	DD	099H
	DD	09aH
	DD	09bH
	DD	09cH
	DD	09dH
	DD	09eH
	DD	09fH
	DD	0a0H
	DD	0a1H
	DD	0a2H
	DD	0a3H
	DD	0a4H
	DD	0a5H
	DD	0a6H
	DD	0a7H
	DD	0a8H
	DD	0a9H
	DD	0aaH
	DD	0abH
	DD	0acH
	DD	0adH
	DD	0aeH
	DD	0afH
	DD	0b0H
	DD	0b1H
	DD	0b2H
	DD	0b3H
	DD	0b4H
	DD	0b5H
	DD	0b6H
	DD	0b7H
	DD	0b8H
	DD	0b9H
	DD	0baH
	DD	0bbH
	DD	0bcH
	DD	0bdH
	DD	0beH
	DD	0bfH
	DD	0c0H
	DD	0c1H
	DD	0c2H
	DD	0c3H
	DD	0c4H
	DD	0c5H
	DD	0c6H
	DD	0c7H
	DD	0c8H
	DD	0c9H
	DD	0caH
	DD	0cbH
	DD	0ccH
	DD	0cdH
	DD	0ceH
	DD	0cfH
	DD	0d0H
	DD	0d1H
	DD	0d2H
	DD	0d3H
	DD	0d4H
	DD	0d5H
	DD	0d6H
	DD	0d7H
	DD	0d8H
	DD	0d9H
	DD	0daH
	DD	0dbH
	DD	0dcH
	DD	0ddH
	DD	0deH
	DD	0dfH
	DD	0e0H
	DD	0e1H
	DD	0e2H
	DD	0e3H
	DD	0e4H
	DD	0e5H
	DD	0e6H
	DD	0e7H
	DD	0e8H
	DD	0e9H
	DD	0eaH
	DD	0ebH
	DD	0ecH
	DD	0edH
	DD	0eeH
	DD	0efH
	DD	0f0H
	DD	0f1H
	DD	0f2H
	DD	0f3H
	DD	0f4H
	DD	0f5H
	DD	0f6H
	DD	0f7H
	DD	0f8H
	DD	0f9H
	DD	0faH
	DD	0fbH
	DD	0fcH
	DD	0fdH
	DD	0feH
	DD	0ffH
	DD	0100H
	DD	0101H
	DD	0102H
	DD	0103H
	DD	0104H
	DD	0105H
	DD	0106H
	DD	0107H
	DD	0108H
	DD	0109H
	DD	010aH
	DD	010bH
	DD	010cH
	DD	010dH
	DD	010eH
	DD	010fH
	DD	0110H
	DD	0111H
	DD	0112H
	DD	0113H
	DD	0114H
	DD	0115H
	DD	0116H
	DD	0117H
	DD	0118H
	DD	0119H
	DD	011aH
	DD	011bH
	DD	011cH
	DD	011dH
	DD	011eH
	DD	011fH
	DD	0120H
	DD	0121H
	DD	0122H
	DD	0123H
	DD	0124H
	DD	0125H
	DD	0126H
	DD	0127H
	DD	0128H
	DD	0129H
	DD	012aH
	DD	012bH
	DD	012cH
	DD	012dH
	DD	012eH
	DD	012fH
	DD	0130H
	DD	0131H
	DD	0132H
	DD	0133H
	DD	0134H
	DD	0135H
	DD	0136H
	DD	0137H
	DD	0138H
	DD	0139H
	DD	013aH
	DD	013bH
	DD	013cH
	DD	013dH
	DD	013eH
	DD	013fH
	DD	0140H
	DD	0141H
	DD	0142H
	DD	0143H
	DD	0144H
	DD	0145H
	DD	0146H
	DD	0147H
	DD	0148H
	DD	0149H
	DD	014aH
	DD	014bH
	DD	014cH
	DD	014dH
	DD	014eH
	DD	014fH
	DD	0150H
	DD	0151H
	DD	0152H
	DD	0153H
	DD	0154H
	DD	0155H
	DD	0156H
	DD	0157H
	DD	0158H
	DD	0159H
	DD	015aH
	DD	015bH
	DD	015cH
	DD	015dH
	DD	015eH
	DD	015fH
	DD	0160H
	DD	0161H
	DD	0162H
	DD	0163H
	DD	0164H
	DD	0165H
	DD	0166H
	DD	0167H
	DD	0168H
	DD	0169H
	DD	016aH
	DD	016bH
	DD	016cH
	DD	016dH
	DD	016eH
	DD	016fH
	DD	0170H
	DD	0171H
	DD	0172H
	DD	0173H
	DD	0174H
	DD	0175H
	DD	0176H
	DD	0177H
	DD	0178H
	DD	0179H
	DD	017aH
	DD	017bH
	DD	017cH
	DD	017dH
	DD	017eH
	DD	017fH
	DD	0180H
	DD	0181H
	DD	0182H
	DD	0183H
	DD	0184H
	DD	0185H
	DD	0186H
	DD	0187H
	DD	0188H
	DD	0189H
	DD	018aH
	DD	018bH
	DD	018cH
	DD	018dH
	DD	018eH
	DD	018fH
	DD	0190H
	DD	0191H
	DD	0192H
	DD	0193H
	DD	0194H
	DD	0195H
	DD	0196H
	DD	0197H
	DD	0198H
	DD	0199H
	DD	019aH
	DD	019bH
	DD	019cH
	DD	019dH
	DD	019eH
	DD	019fH
	DD	01a0H
	DD	01a1H
	DD	01a2H
	DD	01a3H
	DD	01a4H
	DD	01a5H
	DD	01a6H
	DD	01a7H
	DD	01a8H
	DD	01a9H
	DD	01aaH
	DD	01abH
	DD	01acH
	DD	01adH
	DD	01aeH
	DD	01afH
	DD	01b0H
	DD	01b1H
	DD	01b2H
	DD	01b3H
	DD	01b4H
	DD	01b5H
	DD	01b6H
	DD	01b7H
	DD	01b8H
	DD	01b9H
	DD	01baH
	DD	01bbH
	DD	01bcH
	DD	01bdH
	DD	01beH
	DD	01bfH
	DD	01c0H
	DD	01c1H
	DD	01c2H
	DD	01c3H
	DD	01c4H
	DD	01c5H
	DD	01c6H
	DD	01c7H
	DD	01c8H
	DD	01c9H
	DD	01caH
	DD	01cbH
	DD	01ccH
	DD	01cdH
	DD	01ceH
	DD	01cfH
	DD	01d0H
	DD	01d1H
	DD	01d2H
	DD	01d3H
	DD	01d4H
	DD	01d5H
	DD	01d6H
	DD	01d7H
	DD	01d8H
	DD	01d9H
	DD	01daH
	DD	01dbH
	DD	01dcH
	DD	01ddH
	DD	01deH
	DD	01dfH
	DD	01e0H
	DD	01e1H
	DD	01e2H
	DD	01e3H
	DD	01e4H
	DD	01e5H
	DD	01e6H
	DD	01e7H
	DD	01e8H
	DD	01e9H
	DD	01eaH
	DD	01ebH
	DD	01ecH
	DD	01edH
	DD	01eeH
	DD	01efH
	DD	01f0H
	DD	01f1H
	DD	01f2H
	DD	01f3H
	DD	01f4H
	DD	01f5H
	DD	01f6H
	DD	01f7H
	DD	01f8H
	DD	01f9H
	DD	01faH
	DD	01fbH
	DD	01fcH
	DD	01fdH
	DD	01feH
	DD	01ffH
	DD	0200H
	DD	0201H
	DD	0202H
	DD	0203H
	DD	0204H
	DD	0205H
	DD	0206H
	DD	0207H
	DD	0208H
	DD	0209H
	DD	020aH
	DD	020bH
	DD	020cH
	DD	020dH
	DD	020eH
	DD	020fH
	DD	0210H
	DD	0211H
	DD	0212H
	DD	0213H
	DD	0214H
	DD	0215H
	DD	0216H
	DD	0217H
	DD	0218H
	DD	0219H
	DD	021aH
	DD	021bH
	DD	021cH
	DD	021dH
	DD	021eH
	DD	021fH
	DD	0220H
	DD	0221H
	DD	0222H
	DD	0223H
	DD	0224H
	DD	0225H
	DD	0226H
	DD	0227H
	DD	0228H
	DD	0229H
	DD	022aH
	DD	022bH
	DD	022cH
	DD	022dH
	DD	022eH
	DD	022fH
	DD	0230H
	DD	0231H
	DD	0232H
	DD	0233H
	DD	0234H
	DD	0235H
	DD	0236H
	DD	0237H
	DD	0238H
	DD	0239H
	DD	023aH
	DD	023bH
	DD	023cH
	DD	023dH
	DD	023eH
	DD	023fH
	DD	0240H
	DD	0241H
	DD	0242H
	DD	0243H
	DD	0244H
	DD	0245H
	DD	0246H
	DD	0247H
	DD	0248H
	DD	0249H
	DD	024aH
	DD	024bH
	DD	024cH
	DD	024dH
	DD	024eH
	DD	024fH
	DD	0250H
	DD	0251H
	DD	0252H
	DD	0253H
	DD	0254H
	DD	0255H
	DD	0256H
	DD	0257H
	DD	0258H
	DD	0259H
	DD	025aH
	DD	025bH
	DD	025cH
	DD	025dH
	DD	025eH
	DD	025fH
	DD	0260H
	DD	0261H
	DD	0262H
	DD	0263H
	DD	0264H
	DD	0265H
	DD	0266H
	DD	0267H
	DD	0268H
	DD	0269H
	DD	026aH
	DD	026bH
	DD	026cH
	DD	026dH
	DD	026eH
	DD	026fH
	DD	0270H
	DD	0271H
	DD	0272H
	DD	0273H
	DD	0274H
	DD	0275H
	DD	0276H
	DD	0277H
	DD	0278H
	DD	0279H
	DD	027aH
	DD	027bH
	DD	027cH
	DD	027dH
	DD	027eH
	DD	027fH
	DD	0280H
	DD	0281H
	DD	0282H
	DD	0283H
	DD	0284H
	DD	0285H
	DD	0286H
	DD	0287H
	DD	0288H
	DD	0289H
	DD	028aH
	DD	028bH
	DD	028cH
	DD	028dH
	DD	028eH
	DD	028fH
	DD	0290H
	DD	0291H
	DD	0292H
	DD	0293H
	DD	0294H
	DD	0295H
	DD	0296H
	DD	0297H
	DD	0298H
	DD	0299H
	DD	029aH
	DD	029bH
	DD	029cH
	DD	029dH
	DD	029eH
	DD	029fH
	DD	02a0H
	DD	02a1H
	DD	02a2H
	DD	02a3H
	DD	02a4H
	DD	02a5H
	DD	02a6H
	DD	02a7H
	DD	02a8H
	DD	02a9H
	DD	02aaH
	DD	02abH
	DD	02acH
	DD	02adH
	DD	02aeH
	DD	02afH
	DD	02b0H
	DD	02b1H
	DD	02b2H
	DD	02b3H
	DD	02b4H
	DD	02b5H
	DD	02b6H
	DD	02b7H
	DD	02b8H
	DD	02b9H
	DD	02baH
	DD	02bbH
	DD	02bcH
	DD	02bdH
	DD	02beH
	DD	02bfH
	DD	02c0H
	DD	02c1H
	DD	02c2H
	DD	02c3H
	DD	02c4H
	DD	02c5H
	DD	02c6H
	DD	02c7H
	DD	02c8H
	DD	02c9H
	DD	02caH
	DD	02cbH
	DD	02ccH
	DD	02cdH
	DD	02ceH
	DD	02cfH
	DD	02d0H
	DD	02d1H
	DD	02d2H
	DD	02d3H
	DD	02d4H
	DD	02d5H
	DD	02d6H
	DD	02d7H
	DD	02d8H
	DD	02d9H
	DD	02daH
	DD	02dbH
	DD	02dcH
	DD	02ddH
	DD	02deH
	DD	02dfH
	DD	02e0H
	DD	02e1H
	DD	02e2H
	DD	02e3H
	DD	02e4H
	DD	02e5H
	DD	02e6H
	DD	02e7H
	DD	02e8H
	DD	02e9H
	DD	02eaH
	DD	02ebH
	DD	02ecH
	DD	02edH
	DD	02eeH
	DD	02efH
	DD	02f0H
	DD	02f1H
	DD	02f2H
	DD	02f3H
	DD	02f4H
	DD	02f5H
	DD	02f6H
	DD	02f7H
	DD	02f8H
	DD	02f9H
	DD	02faH
	DD	02fbH
	DD	02fcH
	DD	02fdH
	DD	02feH
	DD	02ffH
	DD	0300H
	DD	0301H
	DD	0302H
	DD	0303H
	DD	0304H
	DD	0305H
	DD	0306H
	DD	0307H
	DD	0308H
	DD	0309H
	DD	030aH
	DD	030bH
	DD	030cH
	DD	030dH
	DD	030eH
	DD	030fH
	DD	0310H
	DD	0311H
	DD	0312H
	DD	0313H
	DD	0314H
	DD	0315H
	DD	0316H
	DD	0317H
	DD	0318H
	DD	0319H
	DD	031aH
	DD	031bH
	DD	031cH
	DD	031dH
	DD	031eH
	DD	031fH
	DD	0320H
	DD	0321H
	DD	0322H
	DD	0323H
	DD	0324H
	DD	0325H
	DD	0326H
	DD	0327H
	DD	0328H
	DD	0329H
	DD	032aH
	DD	032bH
	DD	032cH
	DD	032dH
	DD	032eH
	DD	032fH
	DD	0330H
	DD	0331H
	DD	0332H
	DD	0333H
	DD	0334H
	DD	0335H
	DD	0336H
	DD	0337H
	DD	0338H
	DD	0339H
	DD	033aH
	DD	033bH
	DD	033cH
	DD	033dH
	DD	033eH
	DD	033fH
	DD	0340H
	DD	0341H
	DD	0342H
	DD	0343H
	DD	0344H
	DD	0345H
	DD	0346H
	DD	0347H
	DD	0348H
	DD	0349H
	DD	034aH
	DD	034bH
	DD	034cH
	DD	034dH
	DD	034eH
	DD	034fH
	DD	0350H
	DD	0351H
	DD	0352H
	DD	0353H
	DD	0354H
	DD	0355H
	DD	0356H
	DD	0357H
	DD	0358H
	DD	0359H
	DD	035aH
	DD	035bH
	DD	035cH
	DD	035dH
	DD	035eH
	DD	035fH
	DD	0360H
	DD	0361H
	DD	0362H
	DD	0363H
	DD	0364H
	DD	0365H
	DD	0366H
	DD	0367H
	DD	0368H
	DD	0369H
	DD	036aH
	DD	036bH
	DD	036cH
	DD	036dH
	DD	036eH
	DD	036fH
	DD	0370H
	DD	0371H
	DD	0372H
	DD	0373H
	DD	0374H
	DD	0375H
	DD	0376H
	DD	0377H
	DD	0378H
	DD	0379H
	DD	037aH
	DD	037bH
	DD	037cH
	DD	037dH
	DD	037eH
	DD	037fH
	DD	0380H
	DD	0381H
	DD	0382H
	DD	0383H
	DD	0384H
	DD	0385H
	DD	0386H
	DD	0387H
	DD	0388H
	DD	0389H
	DD	038aH
	DD	038bH
	DD	038cH
	DD	038dH
	DD	038eH
	DD	038fH
	DD	0390H
	DD	0391H
	DD	0392H
	DD	0393H
	DD	0394H
	DD	0395H
	DD	0396H
	DD	0397H
	DD	0398H
	DD	0399H
	DD	039aH
	DD	039bH
	DD	039cH
	DD	039dH
	DD	039eH
	DD	039fH
	DD	03a0H
	DD	03a1H
	DD	03a2H
	DD	03a3H
	DD	03a4H
	DD	03a5H
	DD	03a6H
	DD	03a7H
	DD	03a8H
	DD	03a9H
	DD	03aaH
	DD	03abH
	DD	03acH
	DD	03adH
	DD	03aeH
	DD	03afH
	DD	03b0H
	DD	03b1H
	DD	03b2H
	DD	03b3H
	DD	03b4H
	DD	03b5H
	DD	03b6H
	DD	03b7H
	DD	03b8H
	DD	03b9H
	DD	03baH
	DD	03bbH
	DD	03bcH
	DD	03bdH
	DD	03beH
	DD	03bfH
?BACKGROUND_COL@@3PAMA DD 03f000000r		; 0.5	; BACKGROUND_COL
	DD	03dcccccdr			; 0.1
	DD	03dcccccdr			; 0.1
	DD	03f800000r			; 1
_DATA	ENDS
PUBLIC	?allocate_object@@YAPAXI@Z			; allocate_object
PUBLIC	??0RenderDepth2D@lib3d@@QAE@HH@Z		; lib3d::RenderDepth2D::RenderDepth2D
PUBLIC	??0Backbuffer@lib3d@@QAE@XZ			; lib3d::Backbuffer::Backbuffer
PUBLIC	??0ConstantBuffer@lib3d@@QAE@H@Z		; lib3d::ConstantBuffer::ConstantBuffer
PUBLIC	?attach@ConstantBuffer@lib3d@@QAEXH@Z		; lib3d::ConstantBuffer::attach
PUBLIC	??0Rasterizer@lib3d@@QAE@XZ			; lib3d::Rasterizer::Rasterizer
PUBLIC	??0Rasterizer@lib3d@@QAE@W4D3D11_FILL_MODE@@W4D3D11_CULL_MODE@@@Z ; lib3d::Rasterizer::Rasterizer
PUBLIC	??0AlphaBlending@lib3d@@QAE@XZ			; lib3d::AlphaBlending::AlphaBlending
PUBLIC	??0DepthStencil@lib3d@@QAE@_NW4D3D11_DEPTH_WRITE_MASK@@W4D3D11_COMPARISON_FUNC@@@Z ; lib3d::DepthStencil::DepthStencil
PUBLIC	??0Mesh@lib3d@@QAE@QAMQAHHH@Z			; lib3d::Mesh::Mesh
PUBLIC	?setup_device@lib3d@@YAXPAUHINSTANCE__@@@Z	; lib3d::setup_device
PUBLIC	?clean_srv@lib3d@@YAXH@Z			; lib3d::clean_srv
PUBLIC	?clean_uav@lib3d@@YAXH@Z			; lib3d::clean_uav
PUBLIC	?clean_constantbuffers@lib3d@@YAXH@Z		; lib3d::clean_constantbuffers
PUBLIC	?clear_blending@lib3d@@YAXXZ			; lib3d::clear_blending
PUBLIC	?clear_depthstencil@lib3d@@YAXXZ		; lib3d::clear_depthstencil
PUBLIC	?emit_vertex@lib3d@@YAXHH@Z			; lib3d::emit_vertex
PUBLIC	?set_renders_and_uavs@lib3d@@YAXPAURenderTarget2D@1@PAURenderDepth2D@1@QAPAUID3D11UnorderedAccessView@@HH@Z ; lib3d::set_renders_and_uavs
PUBLIC	??0float4x4@@QAE@MMMMMMMMMMMMMMMM@Z		; float4x4::float4x4
PUBLIC	?row@float4x4@@QAE?AUfloat4@@H@Z		; float4x4::row
PUBLIC	??H@YA?AUfloat2@@AAU0@0@Z			; operator+
PUBLIC	??G@YA?AUfloat2@@AAU0@0@Z			; operator-
PUBLIC	??D@YA?AUfloat2@@AAU0@M@Z			; operator*
PUBLIC	??D@YA?AUfloat2@@MAAU0@@Z			; operator*
PUBLIC	??K@YA?AUfloat2@@AAU0@M@Z			; operator/
PUBLIC	??K@YA?AUfloat2@@MAAU0@@Z			; operator/
PUBLIC	??H@YA?AUfloat3@@AAU0@0@Z			; operator+
PUBLIC	??G@YA?AUfloat3@@AAU0@0@Z			; operator-
PUBLIC	??D@YA?AUfloat3@@AAU0@M@Z			; operator*
PUBLIC	??D@YA?AUfloat3@@MAAU0@@Z			; operator*
PUBLIC	??K@YA?AUfloat3@@AAU0@M@Z			; operator/
PUBLIC	??K@YA?AUfloat3@@MAAU0@@Z			; operator/
PUBLIC	??H@YA?AUfloat4@@AAU0@0@Z			; operator+
PUBLIC	??G@YA?AUfloat4@@AAU0@0@Z			; operator-
PUBLIC	??D@YA?AUfloat4@@AAU0@M@Z			; operator*
PUBLIC	??D@YA?AUfloat4@@MAAU0@@Z			; operator*
PUBLIC	??K@YA?AUfloat4@@AAU0@M@Z			; operator/
PUBLIC	??K@YA?AUfloat4@@MAAU0@@Z			; operator/
PUBLIC	?dot@@YAMAAUfloat2@@0@Z				; dot
PUBLIC	?dot@@YAMAAUfloat3@@0@Z				; dot
PUBLIC	?dot@@YAMAAUfloat4@@0@Z				; dot
PUBLIC	?cross@@YA?AUfloat3@@AAU1@0@Z			; cross
PUBLIC	?length@@YAMAAUfloat2@@@Z			; length
PUBLIC	?length@@YAMAAUfloat3@@@Z			; length
PUBLIC	?length@@YAMAAUfloat4@@@Z			; length
PUBLIC	?normalize@@YA?AUfloat2@@AAU1@@Z		; normalize
PUBLIC	?normalize@@YA?AUfloat3@@AAU1@@Z		; normalize
PUBLIC	?normalize@@YA?AUfloat4@@AAU1@@Z		; normalize
PUBLIC	?mul@@YA?AUfloat2@@AAUfloat2x2@@AAU1@@Z		; mul
PUBLIC	?mul@@YA?AUfloat3@@AAUfloat3x3@@AAU1@@Z		; mul
PUBLIC	?mul@@YA?AUfloat4@@AAUfloat4x4@@AAU1@@Z		; mul
PUBLIC	?mul@@YA?AUfloat2x2@@AAU1@0@Z			; mul
PUBLIC	?mul@@YA?AUfloat3x3@@AAU1@0@Z			; mul
PUBLIC	?mul@@YA?AUfloat4x4@@AAU1@0@Z			; mul
PUBLIC	?compute_view_matrix@@YA?AUfloat4x4@@Ufloat3@@0@Z ; compute_view_matrix
PUBLIC	?compute_orthographic_matrix@@YA?AUfloat4x4@@MMMM@Z ; compute_orthographic_matrix
PUBLIC	?compute_perspective_matrix@@YA?AUfloat4x4@@MMMM@Z ; compute_perspective_matrix
PUBLIC	?compute_translation_matrix@@YA?AUfloat4x4@@MMM@Z ; compute_translation_matrix
PUBLIC	?compute_rotation_matrix@@YA?AUfloat4x4@@MUfloat3@@@Z ; compute_rotation_matrix
PUBLIC	?compute_scale_matrix@@YA?AUfloat4x4@@MMM@Z	; compute_scale_matrix
PUBLIC	?extract_rotation_info@@YA?AUfloat4@@Ufloat4x4@@@Z ; extract_rotation_info
PUBLIC	?smoothstep@@YAMMMM@Z				; smoothstep
PUBLIC	??0GlobalConstantsBuffer@@QAE@XZ		; GlobalConstantsBuffer::GlobalConstantsBuffer
PUBLIC	?update_globalconstants@@YAXXZ			; update_globalconstants
PUBLIC	?WinMainCRTStartup@@YAXXZ			; WinMainCRTStartup
PUBLIC	__GUID_6f15aaf2_d208_4e89_9ab4_489535d34f9c
PUBLIC	??_C@_06KFINLFAI@vs_5_0@			; `string'
PUBLIC	??_C@_07PBPNHGKE@app?4ico@			; `string'
PUBLIC	??_C@_0N@HJANABLK@custom_class@			; `string'
PUBLIC	??_C@_0N@BHJNMBPJ@lazy?$FLE?$FNngine@		; `string'
PUBLIC	??_C@_04GHJNJNPO@main@				; `string'
PUBLIC	??_C@_1DM@GDLAFHJP@?$AA?4?$AA?1?$AAs?$AAh?$AAa?$AAd?$AAe?$AAr?$AAs?$AA?1?$AAi?$AAn?$AAp?$AAu?$AAt@ ; `string'
PUBLIC	??_C@_08JPMAAECC@POSITION@			; `string'
PUBLIC	??_C@_08CMDKBPJM@TEXCOORD@			; `string'
PUBLIC	??_C@_06IOJAGNKJ@NORMAL@			; `string'
PUBLIC	__real@00000000
PUBLIC	__real@3c83126f
PUBLIC	__real@3dcccccd
PUBLIC	__real@3f000000
PUBLIC	__real@3f800000
PUBLIC	__real@40000000
PUBLIC	__real@4014000000000000
PUBLIC	__real@40400000
PUBLIC	__real@40a00000
PUBLIC	__real@41200000
PUBLIC	__real@bf800000
EXTRN	__imp__ExitProcess@4:PROC
EXTRN	__imp__CreateSolidBrush@4:PROC
EXTRN	__imp__TranslateMessage@4:PROC
EXTRN	__imp__DispatchMessageA@4:PROC
EXTRN	__imp__PeekMessageA@20:PROC
EXTRN	__imp__DefWindowProcA@16:PROC
EXTRN	__imp__RegisterClassA@4:PROC
EXTRN	__imp__CreateWindowExA@48:PROC
EXTRN	__imp__SetWindowPos@28:PROC
EXTRN	__imp__GetAsyncKeyState@4:PROC
EXTRN	__imp__GetForegroundWindow@0:PROC
EXTRN	__imp__ShowCursor@4:PROC
EXTRN	__imp__GetWindowLongA@8:PROC
EXTRN	__imp__SetWindowLongA@12:PROC
EXTRN	__imp__LoadImageA@24:PROC
EXTRN	_D3D11CreateDeviceAndSwapChain@48:PROC
EXTRN	_D3DCompileFromFile@36:PROC
EXTRN	_memset:PROC
EXTRN	__fltused:DWORD
_BSS	SEGMENT
?static_memory@@3PADA DB 06400000H DUP (?)		; static_memory
?static_memory_pointer@@3IA DD 01H DUP (?)		; static_memory_pointer
?WIDTH@lib3d@@3HA DD 01H DUP (?)			; lib3d::WIDTH
?HEIGHT@lib3d@@3HA DD 01H DUP (?)			; lib3d::HEIGHT
_BSS	ENDS
;	COMDAT __real@bf800000
CONST	SEGMENT
__real@bf800000 DD 0bf800000r			; -1
CONST	ENDS
;	COMDAT __real@41200000
CONST	SEGMENT
__real@41200000 DD 041200000r			; 10
CONST	ENDS
;	COMDAT __real@40a00000
CONST	SEGMENT
__real@40a00000 DD 040a00000r			; 5
CONST	ENDS
;	COMDAT __real@40400000
CONST	SEGMENT
__real@40400000 DD 040400000r			; 3
CONST	ENDS
;	COMDAT __real@4014000000000000
CONST	SEGMENT
__real@4014000000000000 DQ 04014000000000000r	; 5
CONST	ENDS
;	COMDAT __real@40000000
CONST	SEGMENT
__real@40000000 DD 040000000r			; 2
CONST	ENDS
;	COMDAT __real@3f800000
CONST	SEGMENT
__real@3f800000 DD 03f800000r			; 1
CONST	ENDS
;	COMDAT __real@3f000000
CONST	SEGMENT
__real@3f000000 DD 03f000000r			; 0.5
CONST	ENDS
;	COMDAT __real@3dcccccd
CONST	SEGMENT
__real@3dcccccd DD 03dcccccdr			; 0.1
CONST	ENDS
;	COMDAT __real@3c83126f
CONST	SEGMENT
__real@3c83126f DD 03c83126fr			; 0.016
CONST	ENDS
;	COMDAT __real@00000000
CONST	SEGMENT
__real@00000000 DD 000000000r			; 0
CONST	ENDS
;	COMDAT ??_C@_06IOJAGNKJ@NORMAL@
CONST	SEGMENT
??_C@_06IOJAGNKJ@NORMAL@ DB 'NORMAL', 00H		; `string'
CONST	ENDS
;	COMDAT ??_C@_08CMDKBPJM@TEXCOORD@
CONST	SEGMENT
??_C@_08CMDKBPJM@TEXCOORD@ DB 'TEXCOORD', 00H		; `string'
CONST	ENDS
;	COMDAT ??_C@_08JPMAAECC@POSITION@
CONST	SEGMENT
??_C@_08JPMAAECC@POSITION@ DB 'POSITION', 00H		; `string'
CONST	ENDS
;	COMDAT ??_C@_1DM@GDLAFHJP@?$AA?4?$AA?1?$AAs?$AAh?$AAa?$AAd?$AAe?$AAr?$AAs?$AA?1?$AAi?$AAn?$AAp?$AAu?$AAt@
CONST	SEGMENT
??_C@_1DM@GDLAFHJP@?$AA?4?$AA?1?$AAs?$AAh?$AAa?$AAd?$AAe?$AAr?$AAs?$AA?1?$AAi?$AAn?$AAp?$AAu?$AAt@ DB '.'
	DB	00H, '/', 00H, 's', 00H, 'h', 00H, 'a', 00H, 'd', 00H, 'e', 00H
	DB	'r', 00H, 's', 00H, '/', 00H, 'i', 00H, 'n', 00H, 'p', 00H, 'u'
	DB	00H, 't', 00H, 's', 00H, 'i', 00H, 'g', 00H, 'n', 00H, 'a', 00H
	DB	't', 00H, 'u', 00H, 'r', 00H, 'e', 00H, '.', 00H, 'h', 00H, 'l'
	DB	00H, 's', 00H, 'l', 00H, 00H, 00H		; `string'
CONST	ENDS
;	COMDAT ??_C@_04GHJNJNPO@main@
CONST	SEGMENT
??_C@_04GHJNJNPO@main@ DB 'main', 00H			; `string'
CONST	ENDS
;	COMDAT ??_C@_0N@BHJNMBPJ@lazy?$FLE?$FNngine@
CONST	SEGMENT
??_C@_0N@BHJNMBPJ@lazy?$FLE?$FNngine@ DB 'lazy[E]ngine', 00H ; `string'
CONST	ENDS
;	COMDAT ??_C@_0N@HJANABLK@custom_class@
CONST	SEGMENT
??_C@_0N@HJANABLK@custom_class@ DB 'custom_class', 00H	; `string'
CONST	ENDS
;	COMDAT ??_C@_07PBPNHGKE@app?4ico@
CONST	SEGMENT
??_C@_07PBPNHGKE@app?4ico@ DB 'app.ico', 00H		; `string'
CONST	ENDS
;	COMDAT ??_C@_06KFINLFAI@vs_5_0@
CONST	SEGMENT
??_C@_06KFINLFAI@vs_5_0@ DB 'vs_5_0', 00H		; `string'
CONST	ENDS
;	COMDAT __GUID_6f15aaf2_d208_4e89_9ab4_489535d34f9c
CONST	SEGMENT
__GUID_6f15aaf2_d208_4e89_9ab4_489535d34f9c DD 06f15aaf2H
	DW	0d208H
	DW	04e89H
	DB	09aH
	DB	0b4H
	DB	048H
	DB	095H
	DB	035H
	DB	0d3H
	DB	04fH
	DB	09cH
CONST	ENDS
; Function compile flags: /Ogspy
; File C:\Users\jose-remedy\Documents\GitHub\lazyengine\main.cpp
; File C:\Users\jose-remedy\Documents\GitHub\lazyengine\lib3d.h
; File C:\Users\jose-remedy\Documents\GitHub\lazyengine\main.cpp
_TEXT	SEGMENT
__gcb$ = -360						; size = 264
$T1 = -96						; size = 64
$T2 = -96						; size = 64
__real@3f800000$1$ = -32				; size = 4
_msg$3 = -28						; size = 28
$T4 = -20						; size = 20
$T5 = -20						; size = 20
$T6 = -20						; size = 20
$T7 = -20						; size = 20
$T8 = -12						; size = 12
$T9 = -8						; size = 8
$T10 = -4						; size = 4
$T11 = -4						; size = 4
$T12 = -4						; size = 4
$T13 = -4						; size = 4
$T14 = -4						; size = 4
$T15 = -4						; size = 4
?WinMainCRTStartup@@YAXXZ PROC				; WinMainCRTStartup

; 27   : {

	push	ebp
	mov	ebp, esp
	sub	esp, 360				; 00000168H
	push	ebx
	push	esi
	push	edi

; 28   : #ifdef _DEBUG
; 29   : 	lib3d::setup_device(handle_instance);
; 30   : #else
; 31   : 	lib3d::setup_device(nullptr);

	push	0
	call	?setup_device@lib3d@@YAXPAUHINSTANCE__@@@Z ; lib3d::setup_device

; 32   : #endif// DEBUG
; 33   : 
; 34   : 	
; 35   : #ifdef _DEBUG
; 36   : 	libmidi::setup_device();
; 37   : 	liblua::initialize_lua();
; 38   : #endif // _DEBUG
; 39   : 
; 40   : 	//Create a viewport
; 41   : 	viewport = (lib3d::Viewport*)allocate_object(sizeof(lib3d::Viewport));

	push	24					; 00000018H
	call	?allocate_object@@YAPAXI@Z		; allocate_object

; 42   : 	*viewport = lib3d::Viewport(lib3d::WIDTH, lib3d::HEIGHT);

	fild	DWORD PTR ?WIDTH@lib3d@@3HA
	mov	DWORD PTR ?viewport@@3PAUViewport@lib3d@@A, eax ; viewport

; 43   : 
; 44   : 	//Create several rasterizers (one of them for wireframe)
; 45   : 	rasterizer = (lib3d::Rasterizer*)allocate_object(sizeof(lib3d::Rasterizer));

	push	4
	pop	esi
	fild	DWORD PTR ?HEIGHT@lib3d@@3HA
	push	esi
	fldz
	fst	DWORD PTR [eax]
	mov	eax, DWORD PTR ?viewport@@3PAUViewport@lib3d@@A ; viewport
	fst	DWORD PTR [eax+4]
	mov	eax, DWORD PTR ?viewport@@3PAUViewport@lib3d@@A ; viewport
	fxch	ST(2)
	fstp	DWORD PTR [eax+8]
	mov	eax, DWORD PTR ?viewport@@3PAUViewport@lib3d@@A ; viewport
	fstp	DWORD PTR [eax+12]
	mov	eax, DWORD PTR ?viewport@@3PAUViewport@lib3d@@A ; viewport
	fstp	DWORD PTR [eax+16]
	mov	eax, DWORD PTR ?viewport@@3PAUViewport@lib3d@@A ; viewport
	fld1
	fst	DWORD PTR __real@3f800000$1$[ebp]
	fstp	DWORD PTR [eax+20]
	call	?allocate_object@@YAPAXI@Z		; allocate_object
	add	esp, 12					; 0000000cH
	mov	DWORD PTR ?rasterizer@@3PAURasterizer@lib3d@@A, eax ; rasterizer

; 46   : 	*rasterizer = lib3d::Rasterizer();

	lea	ecx, DWORD PTR $T15[ebp]
	call	??0Rasterizer@lib3d@@QAE@XZ		; lib3d::Rasterizer::Rasterizer

; 47   : 
; 48   : 	rasterizer_nocull = (lib3d::Rasterizer*)allocate_object(sizeof(lib3d::Rasterizer));

	push	esi
	mov	ecx, DWORD PTR [eax]
	mov	eax, DWORD PTR ?rasterizer@@3PAURasterizer@lib3d@@A ; rasterizer
	mov	DWORD PTR [eax], ecx
	call	?allocate_object@@YAPAXI@Z		; allocate_object
	pop	ecx

; 49   : 	*rasterizer_nocull = lib3d::Rasterizer(D3D11_FILL_SOLID, D3D11_CULL_NONE);

	xor	ebx, ebx
	mov	DWORD PTR ?rasterizer_nocull@@3PAURasterizer@lib3d@@A, eax ; rasterizer_nocull
	inc	ebx
	lea	ecx, DWORD PTR $T14[ebp]
	push	ebx
	push	3
	call	??0Rasterizer@lib3d@@QAE@W4D3D11_FILL_MODE@@W4D3D11_CULL_MODE@@@Z ; lib3d::Rasterizer::Rasterizer

; 50   : 	rasterizer_wireframe = (lib3d::Rasterizer*)allocate_object(sizeof(lib3d::Rasterizer));

	push	esi
	mov	ecx, DWORD PTR [eax]
	mov	eax, DWORD PTR ?rasterizer_nocull@@3PAURasterizer@lib3d@@A ; rasterizer_nocull
	mov	DWORD PTR [eax], ecx
	call	?allocate_object@@YAPAXI@Z		; allocate_object
	pop	ecx

; 51   : 	*rasterizer_wireframe = lib3d::Rasterizer(D3D11_FILL_WIREFRAME, D3D11_CULL_NONE);

	push	ebx
	push	2
	lea	ecx, DWORD PTR $T13[ebp]
	mov	DWORD PTR ?rasterizer_wireframe@@3PAURasterizer@lib3d@@A, eax ; rasterizer_wireframe
	call	??0Rasterizer@lib3d@@QAE@W4D3D11_FILL_MODE@@W4D3D11_CULL_MODE@@@Z ; lib3d::Rasterizer::Rasterizer

; 52   : 
; 53   : 	//Create a alpha blending mode 
; 54   : 	alpha_blending = (lib3d::AlphaBlending*)allocate_object(sizeof(lib3d::AlphaBlending));

	push	esi
	mov	ecx, DWORD PTR [eax]
	mov	eax, DWORD PTR ?rasterizer_wireframe@@3PAURasterizer@lib3d@@A ; rasterizer_wireframe
	mov	DWORD PTR [eax], ecx
	call	?allocate_object@@YAPAXI@Z		; allocate_object
	pop	ecx

; 55   : 	*alpha_blending = lib3d::AlphaBlending();

	lea	ecx, DWORD PTR $T12[ebp]
	mov	DWORD PTR ?alpha_blending@@3PAUAlphaBlending@lib3d@@A, eax ; alpha_blending
	call	??0AlphaBlending@lib3d@@QAE@XZ		; lib3d::AlphaBlending::AlphaBlending

; 56   : 
; 57   : 	//Several depth stencil setups (write or not write to depth buffer)
; 58   : 	nowrite_depthstencil = (lib3d::DepthStencil*)allocate_object(sizeof(lib3d::DepthStencil));

	push	esi
	mov	ecx, DWORD PTR [eax]
	mov	eax, DWORD PTR ?alpha_blending@@3PAUAlphaBlending@lib3d@@A ; alpha_blending
	mov	DWORD PTR [eax], ecx
	call	?allocate_object@@YAPAXI@Z		; allocate_object
	pop	ecx

; 59   : 	*nowrite_depthstencil = lib3d::DepthStencil(true, D3D11_DEPTH_WRITE_MASK_ZERO, D3D11_COMPARISON_LESS_EQUAL);

	push	esi
	push	0
	push	ebx
	lea	ecx, DWORD PTR $T11[ebp]
	mov	DWORD PTR ?nowrite_depthstencil@@3PAUDepthStencil@lib3d@@A, eax ; nowrite_depthstencil
	call	??0DepthStencil@lib3d@@QAE@_NW4D3D11_DEPTH_WRITE_MASK@@W4D3D11_COMPARISON_FUNC@@@Z ; lib3d::DepthStencil::DepthStencil
	mov	ecx, DWORD PTR [eax]
	mov	eax, DWORD PTR ?nowrite_depthstencil@@3PAUDepthStencil@lib3d@@A ; nowrite_depthstencil
	mov	DWORD PTR [eax], ecx

